# file opened: s3.MAC
   1  0000              gene      equ 2     ; 1 ... AgonLight
   2  0000                                  ; 2 ... DEG2000
   3  0000              kass      equ 2     ; 1 ... mit  Kassettenroutine
   4  0000                                  ; 2 ... ohne Kassettenroutine
   5  0000
   6  0000              XQ.DRAM:  EQU 0AC00H   ;Bildschirmspeicher
   7  0000
   8  0000              VB.LAZR:  EQU 0C267H   ;Aufrufschleife Betriebssystem
   9  0000
  10  0000              X0.TSCL:  EQU 0C808H   ;Zeichen von Tast. in den Puffer
  11  0000              X0.TSCL0: EQU 0C81BH   ; ... mit Loeschen Puffer
  12  0000              X0.ANZG:  EQU 0C822H   ;Speicherinhalt anzeigen
  13  0000              X0.AN1:   EQU 0C82EH   ;Zeichen auf akt. Pos. auf BS; Pos+1
  14  0000              X0.J:     EQU 0C83BH   ;Anzeige / Abfrage Y/N mit Cursor
  15  0000
  16  0000              TAST01:   EQU 0CED5H   ;Tastaturroutine MEOS
  17  0000
  18  0000              ARET:     EQU 0F26BH   ;Retteplatz fuer A-Register
  19  0000              CO.EORAM: EQU 0F011H   ;Adresse "END OF RAM", durch Anfangslader ermittelt
  20  0000
  21  0000              V1.REGIN: EQU 0F222H   ;Puffer fuer Zahleneingabe
  22  0000              V1.DATUM: EQU 0F234H   ;Datum: JJ/MM/TT
  23  0000              V1.SIGN:  EQU 0F23DH   ;Bedienersignum
  24  0000              V1.SAVSP: EQU 0F25EH   ;Retteplatz fuer Stackpointer
  25  0000              V1.SAVPC: EQU 0F260H   ;Retteplatz fuer Programmcounter
  26  0000              V1.IREG:  EQU 0F262H   ;I-Register
  27  0000              V1.IMi:   EQU 0F263H   ;0,1,2   ... IM0,IM1,IM2
  28  0000              V1.xI:    EQU 0F264H   ;"E","D" ... EI ,DI
  29  0000              V1.MASKE: EQU 0F295H   ;Speicher fuer spezielle CTRL-Tasten
  30  0000
  31  0000              ;EQU 0F80CH   ;
  32  0000
  33  0000              	; TITLE	'SYS3 - MEOS1521'
  34  0000              	DEVICE ZXSPECTRUM256
  35  0000
  36  0000              	INCLUDE	incANF1.MAC
# file opened: incANF1.MAC
   1+ 0000              ;	TITLE	'SYS3 - MEOS1521 ---> Anfangslader'
   2+ 0000              ;	PAGE
   3+ 0000              	ORG 0A000H
   4+ A000              	IF gene AND 2
   5+ A000              ;
   6+ A000              ;	 Vorspann für das Laden im DEG2000-Emulator
   7+ A000              ;	/------------------------------------------\
   8+ A000              	ORG	$-20H
   9+ 9FE0 F0           	DB	0F0H	;AuswahlByte
  10+ 9FE1 53 31 32     	DB	'S12'	;Name der nachfolgenden BIN-Datei
  11+ 9FE4 00 00 00...  	DEFS	25,0
  12+ 9FFD 03           	DB	003H	;HS-Bereich
  13+ 9FFE 00 A0        	DW	0A000H	;Ladeadresse
  14+ A000              ;	\------------------------------------------/
  15+ A000              	ENDIF
  16+ A000              ;
  17+ A000              ANF1:
  18+ A000              ;	A 0 0 0 --->  0 0 0 0
  19+ A000              ;	=======       =======
  20+ A000              	.phase	00000H
  21+ 0000              A000:
  22+ 0000 00 00            DB  0,0     ;   OUT	(0F9H),A
  23+ 0002 C3 2A 01     	JP	A12A	;0012AH
  24+ 0005              ;
  25+ 0005                  ; ORG 0A008H
  26+ 0005 FF FF FF     	DEFS	3,0FFH
  27+ 0008              A008:
  28+ 0008 00 00            DB  0,0     ;   OUT	(0F9H),A
  29+ 000A ED 73 5E F2  	LD	(V1.SAVSP),SP
  30+ 000E C3 00 01     	JP	A100	;00100H
  31+ 0011              ;
  32+ 0011              	; ORG	0A028H
  33+ 0011 FF FF FF...  	DEFS	17H,0FFH
  34+ 0028              A028:
  35+ 0028 00 00            DB  0,0     ;   OUT	(0F9H),A
  36+ 002A ED 73 5E F2  	LD	(V1.SAVSP),SP
  37+ 002E 31 5E F2     	LD	SP,V1.SAVSP
  38+ 0031 F5           	PUSH	AF
  39+ 0032 3E 08        	LD	A,008H
  40+ 0034 32 6B F2     	LD	(ARET),A
  41+ 0037 F1           	POP	AF
  42+ 0038 C3 00 01     	JP	00100H
  43+ 003B              ;
  44+ 003B              	; ORG	0A066H
  45+ 003B FF FF FF...  	DEFS	2BH,0FFH
  46+ 0066              A066:
  47+ 0066 ED 45        	RETN
  48+ 0068              ;
  49+ 0068              A068:
  50+ 0068 0F           	DB	00FH
  51+ 0069              ;
  52+ 0069 CF           	DB	0CFH
  53+ 006A 20           	DB	020H
  54+ 006B E8           	DB	0E8H
  55+ 006C F7           	DB	0F7H
  56+ 006D DF           	DB	0DFH
  57+ 006E              ;
  58+ 006E CF           	DB	0CFH
  59+ 006F 0F           	DB	00FH
  60+ 0070              ;
  61+ 0070 0F           	DB	00FH
  62+ 0071 03           	DB	003H
  63+ 0072              ;
  64+ 0072 4F           	DB	04FH
  65+ 0073 03           	DB	003H
  66+ 0074              ;
  67+ 0074              A074:
  68+ 0074 DD 4E 02     	LD	C,(IX+02)	;Programm KP
  69+ 0077 0C           	INC	C
  70+ 0078 0C           	INC	C
  71+ 0079 06 03        	LD	B,3
  72+ 007B 21 9F 00     	LD	HL,A09F
  73+ 007E F3           	DI
  74+ 007F ED B3        	OTIR
  75+ 0081 0C           	INC	C
  76+ 0082 06 03        	LD	B,3
  77+ 0084 ED B3        	OTIR
  78+ 0086 0C           	INC	C
  79+ 0087 0C           	INC	C
  80+ 0088 0C           	INC	C
  81+ 0089 06 05        	LD	B,5
  82+ 008B ED B3        	OTIR
  83+ 008D 0C           	INC	C
  84+ 008E 06 05        	LD	B,5
  85+ 0090 ED B3        	OTIR
  86+ 0092 FB           	EI
  87+ 0093 0D           	DEC	C
  88+ 0094 0D           	DEC	C
  89+ 0095 0D           	DEC	C
  90+ 0096 3E 03        	LD	A,3
  91+ 0098 ED 79        	OUT	(C),A
  92+ 009A 0C           	INC	C
  93+ 009B AF           	XOR	A
  94+ 009C ED 79        	OUT	(C),A
  95+ 009E C9           	RET
  96+ 009F              ;
  97+ 009F              A09F:
  98+ 009F D0           	DB	0D0H
  99+ 00A0 0F           	DB	00FH
 100+ 00A1 03           	DB	003H
 101+ 00A2              ;
 102+ 00A2 D4           	DB	0D4H
 103+ 00A3 4F           	DB	04FH
 104+ 00A4 03           	DB	003H
 105+ 00A5              ;
 106+ 00A5 D8           	DB	0D8H
 107+ 00A6 CF           	DB	0CFH
 108+ 00A7 80           	DB	080H
 109+ 00A8 17           	DB	017H
 110+ 00A9 7F           	DB	07FH
 111+ 00AA              ;
 112+ 00AA D6           	DB	0D6H
 113+ 00AB CF           	DB	0CFH
 114+ 00AC FD           	DB	0FDH
 115+ 00AD 37           	DB	037H
 116+ 00AE BF           	DB	0BFH
 117+ 00AF              ;
 118+ 00AF              	; ORG	0A100H
 119+ 00AF FF FF FF...  	DEFS	51H,0FFH
 120+ 0100              ;	A 1 0 0 --->  0 1 0 0
 121+ 0100              ;	=======       =======
 122+ 0100              A100:
 123+ 0100 31 5E F2     	LD	SP,V1.SAVSP
 124+ 0103 F5           	PUSH	AF
 125+ 0104 ED 57        	LD	A,I
 126+ 0106 F3           	DI
 127+ 0107 32 62 F2     	LD	(0F262H),A
 128+ 010A 3E 44        	LD	A,044H
 129+ 010C E2 10 01     	JP	PO,00110H
 130+ 010F 3C           	INC	A
 131+ 0110 32 64 F2     	LD	(0F264H),A
 132+ 0113 F1           	POP	AF
 133+ 0114 DD E5        	PUSH	IX
 134+ 0116 FD E5        	PUSH	IY
 135+ 0118 C5           	PUSH	BC
 136+ 0119 D5           	PUSH	DE
 137+ 011A E5           	PUSH	HL
 138+ 011B F5           	PUSH	AF
 139+ 011C 08           	EX	AF,AF'
 140+ 011D D9           	EXX
 141+ 011E C5           	PUSH	BC
 142+ 011F D5           	PUSH	DE
 143+ 0120 E5           	PUSH	HL
 144+ 0121 F5           	PUSH	AF
 145+ 0122 08           	EX	AF,AF'
 146+ 0123 D9           	EXX
 147+ 0124 31 62 F2     	LD	SP,0F262H
 148+ 0127 C3 00 F0     	JP	0F000H	;---> C20E
 149+ 012A              ;
 150+ 012A              A12A:
 151+ 012A 31 D0 F7     	LD	SP,0F7D0H
 152+ 012D 3A C0 03     	LD	A,(D3C0)
 153+ 0130 47           	LD	B,A
 154+ 0131 11 C1 03     	LD	DE,D3C0 + 1
 155+ 0134              A134:
 156+ 0134 1A           	LD	A,(DE)
 157+ 0135 67           	LD	H,A
 158+ 0136 2E 00        	LD	L,0
 159+ 0138 13           	INC	DE
 160+ 0139 E5           	PUSH	HL
 161+ 013A 1A           	LD	A,(DE)
 162+ 013B 6F           	LD	L,A
 163+ 013C 13           	INC	DE
 164+ 013D 1A           	LD	A,(DE)
 165+ 013E 67           	LD	H,A
 166+ 013F 13           	INC	DE
 167+ 0140 E3           	EX	(SP),HL
 168+ 0141 E5           	PUSH	HL
 169+ 0142 D9           	EXX
 170+ 0143 E1           	POP	HL
 171+ 0144 E5           	PUSH	HL
 172+ 0145 01 00 04     	LD	BC,1024
 173+ 0148 16 FF        	LD	D,0FFH
 174+ 014A 5A           	LD	E,D
 175+ 014B              A14B:
 176+ 014B 7E           	LD	A,(HL)
 177+ 014C AA           	XOR	D
 178+ 014D 57           	LD	D,A
 179+ 014E 0F           	RRCA
 180+ 014F 0F           	RRCA
 181+ 0150 0F           	RRCA
 182+ 0151 0F           	RRCA
 183+ 0152 E6 0F        	AND	00FH
 184+ 0154 AA           	XOR	D
 185+ 0155 57           	LD	D,A
 186+ 0156 0F           	RRCA
 187+ 0157 0F           	RRCA
 188+ 0158 0F           	RRCA
 189+ 0159 F5           	PUSH	AF
 190+ 015A E6 1F        	AND	01FH
 191+ 015C AB           	XOR	E
 192+ 015D 5F           	LD	E,A
 193+ 015E F1           	POP	AF
 194+ 015F F5           	PUSH	AF
 195+ 0160 0F           	RRCA
 196+ 0161 E6 F0        	AND	0F0H
 197+ 0163 AB           	XOR	E
 198+ 0164 5F           	LD	E,A
 199+ 0165 F1           	POP	AF
 200+ 0166 E6 E0        	AND	0E0H
 201+ 0168 AA           	XOR	D
 202+ 0169 53           	LD	D,E
 203+ 016A 5F           	LD	E,A
 204+ 016B 23           	INC	HL
 205+ 016C 0B           	DEC	BC
 206+ 016D 78           	LD	A,B
 207+ 016E B1           	OR	C
 208+ 016F 20 DA        	JR	NZ,A14B
 209+ 0171 C1           	POP	BC
 210+ 0172 E1           	POP	HL
 211+ 0173 AF           	XOR	A
 212+ 0174 ED 52        	SBC	HL,DE
 213+ 0176              	; JR	NZ,A17E	;ORIG !!!
 214+ 0176 00           	NOP
 215+ 0177 00           	NOP
 216+ 0178              A178:
 217+ 0178 D9           	EXX
 218+ 0179 05           	DEC	B
 219+ 017A 20 B8        	JR	NZ,A134
 220+ 017C 18 47        	JR	A1C5
 221+ 017E              A17E:
 222+ 017E C5           	PUSH	BC
 223+ 017F ED 5B 06 04  	LD	DE,(00406H)
 224+ 0183 21 B0 01     	LD	HL,A1B0
 225+ 0186 01 15 00     	LD	BC,A1C5-A1B0
 226+ 0189 ED B0        	LDIR
 227+ 018B E1           	POP	HL
 228+ 018C 7C           	LD	A,H
 229+ 018D 0F           	RRCA
 230+ 018E 0F           	RRCA
 231+ 018F 0F           	RRCA
 232+ 0190 0F           	RRCA
 233+ 0191 E6 0F        	AND	00FH
 234+ 0193 C6 30        	ADD	A,030H
 235+ 0195 FE 3A        	CP	03AH
 236+ 0197 38 02        	JR	C,A19B
 237+ 0199 C6 07        	ADD	A,007H
 238+ 019B              A19B:
 239+ 019B 12           	LD	(DE),A
 240+ 019C 13           	INC	DE
 241+ 019D 7C           	LD	A,H
 242+ 019E E6 0F        	AND	00FH
 243+ 01A0 C6 30        	ADD	A,030H
 244+ 01A2 FE 3A        	CP	03AH
 245+ 01A4 38 02        	JR	C,A1A8
 246+ 01A6 C6 07        	ADD	A,007H
 247+ 01A8              A1A8:
 248+ 01A8 12           	LD	(DE),A
 249+ 01A9 13           	INC	DE
 250+ 01AA 3E 20        	LD	A,020H
 251+ 01AC 12           	LD	(DE),A
 252+ 01AD 76           	HALT
 253+ 01AE 18 C8        	JR	A178
 254+ 01B0              ;
 255+ 01B0              A1B0:
 256+ 01B0 20 20 20 20  	DB	"     PROM ERROR CHIP "
 256+ 01B4 20 50 52 4F
 256+ 01B8 4D 20 45 52
 256+ 01BC 52 4F 52 20
 256+ 01C0 43 48 49 50
 256+ 01C4 20
 257+ 01C5              A1C5:
 258+ 01C5 3E 01        	LD	A,1
 259+ 01C7 32 6B F2     	LD	(ARET),A
 260+ 01CA 21 D9 F2     	LD	HL,0F2D9H
 261+ 01CD 36 00        	LD	(HL),0
 262+ 01CF 23           	INC	HL
 263+ 01D0 36 00        	LD	(HL),0
 264+ 01D2 23           	INC	HL
 265+ 01D3 36 80        	LD	(HL),080H
 266+ 01D5 23           	INC	HL
 267+ 01D6 06 09        	LD	B,9
 268+ 01D8              A1D8:
 269+ 01D8 36 00        	LD	(HL),0
 270+ 01DA 23           	INC	HL
 271+ 01DB 10 FB        	DJNZ	A1D8
 272+ 01DD 3E 02        	LD	A,2
 273+ 01DF 01 FB 00     	LD	BC,000FBH	;FB, FA
 274+ 01E2 21 E5 F2     	LD	HL,0F2E5H
 275+ 01E5              A1E5:
 276+ 01E5 F5           	PUSH	AF
 277+ 01E6              A1E6:
 278+ 01E6 2B           	DEC	HL
 279+ 01E7 56           	LD	D,(HL)
 280+ 01E8 2B           	DEC	HL
 281+ 01E9 5E           	LD	E,(HL)
 282+ 01EA 2B           	DEC	HL
 283+ 01EB              A1EB:
 284+ 01EB CB 0A        	RRC	D
 285+ 01ED 17           	RLA
 286+ 01EE CB 0B        	RRC	E
 287+ 01F0 17           	RLA
 288+ 01F1 CB 0E        	RRC	(HL)
 289+ 01F3 17           	RLA
 290+ 01F4 E6 07        	AND	007H
 291+ 01F6              	; OUT	(C),A	;ORIG !!!
 292+ 01F6 00           	NOP
 293+ 01F7 00           	NOP
 294+ 01F8 04           	INC	B
 295+ 01F9 78           	LD	A,B
 296+ 01FA FE 08        	CP	008H
 297+ 01FC 38 ED        	JR	C,A1EB
 298+ 01FE 28 E6        	JR	Z,A1E6
 299+ 0200 FE 10        	CP	010H
 300+ 0202 38 E7        	JR	C,A1EB
 301+ 0204 0D           	DEC	C
 302+ 0205 06 00        	LD	B,0
 303+ 0207 F1           	POP	AF
 304+ 0208 3D           	DEC	A
 305+ 0209 20 DA        	JR	NZ,A1E5
 306+ 020B AF           	XOR	A
 307+ 020C 32 35 F3     	LD	(0F335H),A
 308+ 020F 21 05 F3     	LD	HL,0F305H
 309+ 0212 06 06        	LD	B,6
 310+ 0214              A214:
 311+ 0214 36 FF        	LD	(HL),0FFH
 312+ 0216 23           	INC	HL
 313+ 0217 10 FB        	DJNZ	A214
 314+ 0219 36 FE        	LD	(HL),0FEH
 315+ 021B 23           	INC	HL
 316+ 021C 36 FF        	LD	(HL),0FFH
 317+ 021E              ;
 318+ 021E 21 E5 F2     	LD	HL,0F2E5H
 319+ 0221 11 15 F3     	LD	DE,0F315H
 320+ 0224 01 20 00     	LD	BC,00020H
 321+ 0227 ED B0        	LDIR
 322+ 0229 06 04        	LD	B,4
 323+ 022B 3A 35 F3     	LD	A,(0F335H)
 324+ 022E 11 E5 F2     	LD	DE,0F2E5H
 325+ 0231              A231:
 326+ 0231 C5               PUSH BC         ;<------
 327+ 0232 21 05 F3         LD   HL,0F305H  ;      |
 328+ 0235 01 08 00         LD   BC,8       ;      |
 329+ 0238 0F               RRCA            ;      |
 330+ 0239 30 02            JR   NC,A23D    ;----  |	;023D  $+04
 331+ 023B 62               LD   H,D        ;   |  |
 332+ 023C 6B               LD   L,E        ;   |  |
 333+ 023D              A23D:               ;   |  |
 334+ 023D ED B0            LDIR            ;<---  |
 335+ 023F C1               POP  BC         ;      |
 336+ 0240 10 EF            DJNZ A231       ;-------	;$-15	;0231
 337+ 0242 21 E5 F2     	LD	HL,0F2E5H
 338+ 0245 0E F4        	LD	C,0F4H
 339+ 0247 06 00        	LD	B,0
 340+ 0249 16 00        	LD	D,0
 341+ 024B C5           	PUSH	BC
 342+ 024C E5           	PUSH	HL
 343+ 024D 0E 04        	LD	C,4
 344+ 024F 7E           	LD	A,(HL)
 345+ 0250 F5           	PUSH	AF
 346+ 0251 23           	INC	HL
 347+ 0252 A6           	AND	(HL)
 348+ 0253 E6 0F        	AND	00FH
 349+ 0255 5F           	LD	E,A
 350+ 0256 78           	LD	A,B
 351+ 0257 A6           	AND	(HL)
 352+ 0258 E6 0F        	AND	00FH
 353+ 025A BB           	CP	E
 354+ 025B 20 02        	JR	NZ,$+04	;025F
 355+ 025D CB E2        	SET	4,D
 356+ 025F F1           	POP	AF
 357+ 0260 A6           	AND	(HL)
 358+ 0261 E6 F0        	AND	0F0H
 359+ 0263 5F           	LD	E,A
 360+ 0264 78           	LD	A,B
 361+ 0265 A6           	AND	(HL)
 362+ 0266 E6 F0        	AND	0F0H
 363+ 0268 BB           	CP	E
 364+ 0269 20 02        	JR	NZ,$+04	;026D
 365+ 026B CB C2        	SET	0,D
 366+ 026D CB 0A        	RRC	D
 367+ 026F C5           	PUSH	BC
 368+ 0270 01 07 00     	LD	BC,7
 369+ 0273 09           	ADD	HL,BC
 370+ 0274 C1           	POP	BC
 371+ 0275 0D           	DEC	C
 372+ 0276 20 D7        	JR	NZ,$-39	;024F
 373+ 0278 E1           	POP	HL
 374+ 0279 C1           	POP	BC
 375+ 027A 7A           	LD	A,D
 376+ 027B              	; OUT	(C),A	;F4,F5,F6,F7	;ORIG !!!
 377+ 027B 00           	NOP
 378+ 027C 00           	NOP
 379+ 027D 78           	LD	A,B
 380+ 027E C6 11        	ADD	A,011H
 381+ 0280 47           	LD	B,A
 382+ 0281 30 C6        	JR	NC,$-56	;0249
 383+ 0283 23           	INC	HL
 384+ 0284 23           	INC	HL
 385+ 0285 79           	LD	A,C
 386+ 0286 C6 01        	ADD	A,001H
 387+ 0288 4F           	LD	C,A
 388+ 0289 FE F8        	CP	0F8H
 389+ 028B 20 BA        	JR	NZ,$-68	;0247
 390+ 028D 21 15 F3     	LD	HL,0F315H
 391+ 0290 11 E5 F2     	LD	DE,0F2E5H
 392+ 0293 01 20 00     	LD	BC,00020H
 393+ 0296 ED B0        	LDIR
 394+ 0298 3E F8        	LD	A,0F8H      ;F8 ==> F0
 395+ 029A              	; OUT	(0F0H),A	;ORIG !!!
 396+ 029A 00           	NOP
 397+ 029B 00           	NOP
 398+ 029C 01 F0 04     	LD	BC,004F0H   ;47,00 ==> F0,F1,F2,F3
 399+ 029F 3E 47        	LD	A,047H
 400+ 02A1 16 00        	LD	D,000H
 401+ 02A3              ;
 402+ 02A3              A2A3:
 403+ 02A3              	; OUT	(C),A	;ORIG !!!
 404+ 02A3 00           	NOP
 405+ 02A4 00           	NOP
 406+ 02A5              	; OUT	(C),D	;ORIG !!!
 407+ 02A5 00           	NOP
 408+ 02A6 00           	NOP
 409+ 02A7 0C           	INC	C
 410+ 02A8 10 F9        	DJNZ	A2A3
 411+ 02AA 3E E0        	LD	A,0E0H      ;E0 ==> 80
 412+ 02AC              	; OUT	(080H),A	;ORIG !!!
 413+ 02AC 00           	NOP
 414+ 02AD 00           	NOP
 415+ 02AE 3E F7        	LD	A,0F7H
 416+ 02B0 ED 47        	LD	I,A
 417+ 02B2 ED 5E        	IM	2
 418+ 02B4 F3           	DI
 419+ 02B5 21 68 00     	LD	HL,A068     ;0F ==> DE	;D8-DF Folienspeicher
 420+ 02B8 0E DE        	LD	C,0DEH
 421+ 02BA ED A3        	OUTI
 422+ 02BC 3E FF        	LD	A,0FFH      ;FF ==> DC
 423+ 02BE D3 DC        	OUT	(0DCH),A
 424+ 02C0 06 05        	LD	B,5         ;CF,20,E8,F7,DF ==> DE
 425+ 02C2 ED B3        	OTIR
 426+ 02C4 0C           	INC	C           ;CF,0F          ==> DF
 427+ 02C5 06 02        	LD	B,2
 428+ 02C7 ED B3        	OTIR
 429+ 02C9 0E DA        	LD	C,0DAH      ;0F,03          ==> DA
 430+ 02CB ED A3        	OUTI
 431+ 02CD ED A3        	OUTI
 432+ 02CF 0C           	INC	C           ;4F,03          ==> DB
 433+ 02D0 ED A3        	OUTI
 434+ 02D2 ED A3        	OUTI
 435+ 02D4 DB D9        	IN	A,(0D9H)    ;               <== D9
 436+ 02D6              	; IN	A,(0E0H)  ;               <== E0	;ORIG !!!
 437+ 02D6 00           	NOP
 438+ 02D7 00           	NOP
 439+ 02D8 3E 07        	LD	A,007H      ;07             ==> E0
 440+ 02DA              	; OUT	(0E0H),A	;ORIG !!!
 441+ 02DA 00           	NOP
 442+ 02DB 00           	NOP
 443+ 02DC 3E 02        	LD	A,2         ;EPROM ===>  F... umladen
 444+ 02DE 21 00 04     	LD	HL,D400	;00400H
 445+ 02E1              A2E1:
 446+ 02E1 5E           	LD	E,(HL)
 447+ 02E2 23           	INC	HL
 448+ 02E3 56           	LD	D,(HL)
 449+ 02E4 23           	INC	HL
 450+ 02E5 4E           	LD	C,(HL)
 451+ 02E6 23           	INC	HL
 452+ 02E7 46           	LD	B,(HL)
 453+ 02E8 23           	INC	HL
 454+ 02E9 F5           	PUSH	AF
 455+ 02EA 78           	LD	A,B
 456+ 02EB B1           	OR	C
 457+ 02EC 28 05        	JR	Z,A2F3
 458+ 02EE F1           	POP	AF
 459+ 02EF ED B0        	LDIR
 460+ 02F1 18 EE        	JR	A2E1
 461+ 02F3              ;
 462+ 02F3              A2F3:
 463+ 02F3 F1           	POP	AF
 464+ 02F4 21 5A 03     	LD	HL,D35A	;0035AH
 465+ 02F7 3D           	DEC	A
 466+ 02F8 20 E7        	JR	NZ,A2E1
 467+ 02FA 21 34 F2     	LD	HL,V1.DATUM	;0F234H
 468+ 02FD 06 0D        	LD	B,00DH
 469+ 02FF 54           	LD	D,H
 470+ 0300 5D           	LD	E,L
 471+ 0301 48           	LD	C,B
 472+ 0302              A302:
 473+ 0302 7E           	LD	A,(HL)
 474+ 0303 FE 20        	CP	020H
 475+ 0305 38 09        	JR	C,A310
 476+ 0307 FE 7F        	CP	07FH
 477+ 0309 30 05        	JR	NC,A310
 478+ 030B 23           	INC	HL
 479+ 030C 10 F4        	DJNZ	A302
 480+ 030E 18 07        	JR	A317
 481+ 0310              A310:
 482+ 0310 EB           	EX	DE,HL
 483+ 0311              A311:
 484+ 0311 36 20        	LD	(HL),' '
 485+ 0313 23           	INC	HL
 486+ 0314 0D           	DEC	C
 487+ 0315 20 FA        	JR	NZ,A311
 488+ 0317              A317:
 489+ 0317 21 00 0F     	LD	HL,00F00H	; EOR ermitteln
 490+ 031A              A31A:
 491+ 031A 24           	INC	H
 492+ 031B 7E           	LD	A,(HL)
 493+ 031C 47           	LD	B,A
 494+ 031D 2F           	CPL
 495+ 031E 77           	LD	(HL),A
 496+ 031F BE           	CP	(HL)
 497+ 0320 70           	LD	(HL),B
 498+ 0321              	; JR	Z,A031A
 499+ 0321              	; DEC	HL	;ORIG !!!
 500+ 0321 21 FF 9F     	LD	HL,09FFFH	;NEU !!!
 501+ 0324 22 11 F0     	LD	(CO.EORAM),HL	;0F011H
 502+ 0327 F9           	LD	SP,HL
 503+ 0328 33           	INC	SP
 504+ 0329 2A 06 04     	LD	HL,(00406H)	;letzte BWS-Zeile auf Blank loeschen
 505+ 032C ED 4B 08 04  	LD	BC,(00408H)
 506+ 0330 41           	LD	B,C
 507+ 0331              A331:
 508+ 0331 36 20        	LD	(HL),' '
 509+ 0333 23           	INC	HL
 510+ 0334 10 FB        	DJNZ	A331
 511+ 0336              ;
 512+ 0336 DD 21 9D F9  	LD	IX,0F99DH
 513+ 033A CD 74 00     	CALL	A074	;K I N I
 514+ 033D              ;
 515+ 033D 01 00 00     	LD	BC,0
 516+ 0340 11 00 00     	LD	DE,0
 517+ 0343 21 00 00     	LD	HL,0
 518+ 0346 C5           	PUSH	BC
 519+ 0347 F1           	POP	AF
 520+ 0348 DD 21 00 00  	LD	IX,0
 521+ 034C FD 21 00 00  	LD	IY,0
 522+ 0350 03           	INC	BC
 523+ 0351 C5           	PUSH	BC
 524+ 0352 0B           	DEC	BC
 525+ 0353 ED 73 5E F2  	LD	(V1.SAVSP),SP
 526+ 0357 C3 00 01     	JP	A100
 527+ 035A              ;
 528+ 035A              D35A:
 529+ 035A E6 F1        	DW	0F1E6H
 530+ 035C 20 00        	DW	00020H
 531+ 035E 43 F2        	DW	0F243H
 532+ 0360 48 F2        	DW	0F248H
 533+ 0362 22 F2        	DW	V1.REGIN   ;0F222H
 534+ 0364 32 F2        	DW	0F232H
 535+ 0366 22 F2        	DW	V1.REGIN
 536+ 0368 29 F2        	DW	0F229H
 537+ 036A 22 F2        	DW	V1.REGIN
 538+ 036C 28 F2        	DW	0F228H
 539+ 036E 3D F2        	DW	V1.SIGN   ;0F23DH
 540+ 0370 3F F2        	DW	0F23FH
 541+ 0372 43 F2        	DW	0F243H
 542+ 0374 43 F2        	DW	0F243H
 543+ 0376 22 F2        	DW	V1.REGIN
 544+ 0378 24 F2        	DW	0F224H
 545+ 037A 22 F2        	DW	V1.REGIN
 546+ 037C 2A F2        	DW	0F22AH
 547+ 037E              ;
 548+ 037E              D37E:
 549+ 037E D0 F7        	DW	0F7D0H
 550+ 0380 0C 00        	DW	0000CH
 551+ 0382 53 E3        	DW	0E353H	;Int-rout. Kassette
 552+ 0384 D1 E3        	DW	0E3D1H	; "
 553+ 0386 08 E4        	DW	0E408H	; "
 554+ 0388 E1 E4        	DW	0E4E1H	; "
 555+ 038A FC E4        	DW	0E4FCH	; "
 556+ 038C 17 E5        	DW	0E517H	; "
 557+ 038E              ;
 558+ 038E              D38E:
 559+ 038E AC F9        	DW	0F9ACH
 560+ 0390 01 00        	DW	00001H
 561+ 0392 00           	DB	000H
 562+ 0393              ;
 563+ 0393              D393:
 564+ 0393 4C FA        	DW	0FA4CH
 565+ 0395 01 00        	DW	00001H
 566+ 0397 00           	DB	000H
 567+ 0398              ;
 568+ 0398              D398:
 569+ 0398 9D F9        	DW	0F99DH
 570+ 039A 03 00        	DW	00003H
 571+ 039C 00 00        	DW	00000H
 572+ 039E              	; DB	0D0H	;ORIG !!!
 573+ 039E 30           	DB	030H	;NEU !!!	;Adresse AKB
 574+ 039F              ;
 575+ 039F              D39F:
 576+ 039F 00 00        	DW	00000H
 577+ 03A1 00 00        	DW	00000H
 578+ 03A3              ;
 579+ 03A3 FF FF        	DW	0FFFFH
 580+ 03A5 FF FF        	DW	0FFFFH
 581+ 03A7 FF FF        	DW	0FFFFH
 582+ 03A9 FF FF        	DW	0FFFFH
 583+ 03AB FF FF        	DW	0FFFFH
 584+ 03AD FF FF        	DW	0FFFFH
 585+ 03AF FF FF        	DW	0FFFFH
 586+ 03B1 FF FF        	DW	0FFFFH
 587+ 03B3 FF FF        	DW	0FFFFH
 588+ 03B5 FF FF        	DW	0FFFFH
 589+ 03B7              ;
 590+ 03B7              D3B7:
 591+ 03B7 30 31 2E 53  	DB	'01.SEP.81'
 591+ 03BB 45 50 2E 38
 591+ 03BF 31
 592+ 03C0              ;
 593+ 03C0              D3C0:
 594+ 03C0 12           	DB	18
 595+ 03C1              ;	Kontrollsummen
 596+ 03C1              ;	--------------
 597+ 03C1 00           	DB	000H    ;00
 598+ 03C2 00 00        	DW	00000H
 599+ 03C4 04           	DB	004H    ;04
 600+ 03C5 2C 34        	DW	0342CH
 601+ 03C7              ;
 602+ 03C7 B0           	DB	0B0H    ;B0
 603+ 03C8 83 00        	DW	00083H
 604+ 03CA B4           	DB	0B4H    ;B4
 605+ 03CB 10 8A        	DW	08A10H
 606+ 03CD B8           	DB	0B8H    ;B8
 607+ 03CE AC FB        	DW	0FBACH
 608+ 03D0 BC           	DB	0BCH    ;BC
 609+ 03D1 D7 AB        	DW	0ABD7H
 610+ 03D3              ;
 611+ 03D3 C0           	DB	0C0H    ;C0
 612+ 03D4 77 85        	DW	08577H
 613+ 03D6 C4           	DB	0C4H    ;C4
 614+ 03D7 C9 A9        	DW	0A9C9H
 615+ 03D9 C8           	DB	0C8H    ;C8
 616+ 03DA 8B 4A        	DW	04A8BH
 617+ 03DC CC           	DB	0CCH    ;CC
 618+ 03DD 68 C6        	DW	0C668H
 619+ 03DF              ;
 620+ 03DF D0           	DB	0D0H    ;D0
 621+ 03E0 D7 46        	DW	046D7H
 622+ 03E2 D4           	DB	0D4H    ;D4
 623+ 03E3 FD 64        	DW	064FDH
 624+ 03E5 D8           	DB	0D8H    ;D8
 625+ 03E6 B0 62        	DW	062B0H
 626+ 03E8 DC           	DB	0DCH    ;DC
 627+ 03E9 01 93        	DW	09301H
 628+ 03EB              ;
 629+ 03EB E0           	DB	0E0H    ;E0
 630+ 03EC ED 6C        	DW	06CEDH
 631+ 03EE E4           	DB	0E4H    ;E4
 632+ 03EF 08 65        	DW	06508H
 633+ 03F1 E8           	DB	0E8H    ;E8
 634+ 03F2 E0 45        	DW	045E0H
 635+ 03F4 EC           	DB	0ECH    ;EC
 636+ 03F5 23 34        	DW	03423H
 637+ 03F7              ;
 638+ 03F7              ;	ORG	003FEH
 639+ 03F7 FF FF FF...  	DEFS	7,0FFH
 640+ 03FE              D3FE:
 641+ 03FE 03 18        	DW	01803H
 642+ 0400              ;
 643+ 0400              ;	A 4 0 0 --->  0 4 0 0
 644+ 0400              ;	=======       =======
 645+ 0400              D400:
 646+ 0400 13 F0        	DW	0F013H
 647+ 0402 1D 00        	DW	0001DH
 648+ 0404 0C F7        	DW	0F70CH
 649+ 0406 C0 AF        	DW	0AFC0H
 650+ 0408 40 00        	DW	00040H
 651+ 040A 81 48        	DW	04881H
 652+ 040C 00 00        	DW	00000H
 653+ 040E 08           	DB	008H
 654+ 040F 10           	DB	010H
 655+ 0410 18           	DB	018H
 656+ 0411 20           	DB	020H
 657+ 0412 28           	DB	028H
 658+ 0413 30           	DB	030H
 659+ 0414 38           	DB	038H
 660+ 0415 40           	DB	040H
 661+ 0416 48           	DB	048H
 662+ 0417 50           	DB	050H
 663+ 0418 58           	DB	058H
 664+ 0419 60           	DB	060H
 665+ 041A 68           	DB	068H
 666+ 041B 70           	DB	070H
 667+ 041C 78           	DB	078H
 668+ 041D 00           	DB	000H
 669+ 041E AC           	DB	0ACH
 670+ 041F 40           	DB	040H
 671+ 0420 10           	DB	010H
 672+ 0421              ;
 673+ 0421              D421:
 674+ 0421 14 FB        	DW	0FB14H
 675+ 0423 06 00        	DW	00006H
 676+ 0425 CD 62 D8     	CALL	0D862H
 677+ 0428 00           	NOP
 678+ 0429 00           	NOP
 679+ 042A 05           	DB	005H
 680+ 042B              ;
 681+ 042B              A42B:
 682+ 042B D0 F5        	DW	0F5D0H
 683+ 042D 0E 00        	DW	0000EH
 684+ 042F DC 00        	DW	000DCH
 685+ 0431 DC 00        	DW	000DCH
 686+ 0433 DC 00        	DW	000DCH
 687+ 0435 DD 6F        	DW	06FDDH
 688+ 0437 D8 05        	DW	005D8H
 689+ 0439 FB 85        	DW	085FBH
 690+ 043B D9 04        	DW	004D9H
 691+ 043D              ;
 692+ 043D              D43D:
 693+ 043D F5 FB        	DW	0FBF5H
 694+ 043F 02 00        	DW	00002H
 695+ 0441 00 00        	DW	00000H
 696+ 0443              ;
 697+ 0443              D443:
 698+ 0443 B2 F4        	DW	0F4B2H
 699+ 0445 68 00        	DW	00068H
 700+ 0447              	; DB	"KDSabclep****  "	;OLD !!!
 701+ 0447 4B 44 61 62  	DB	"KDabSClep****  "		;NEU !!!
 701+ 044B 53 43 6C 65
 701+ 044F 70 2A 2A 2A
 701+ 0453 2A 20 20
 702+ 0456 58 58 58 58  	DB	"XXXX       "
 702+ 045A 20 20 20 20
 702+ 045E 20 20 20
 703+ 0461              ;
 704+ 0461              	;ORG	$+42	;BER	42
 705+ 0461              	;DEFS	42,0FFH
 706+ 0461 FF FF FF FF  	DEFS	4,0FFH
 707+ 0465 00 00        	DEFS	2,0
 708+ 0467 FF FF FF FF  	DEFS	4,0FFH
 709+ 046B 00 00        	DEFS	2,0
 710+ 046D FF FF FF FF  	DEFS	4,0FFH
 711+ 0471 00 00 00 00  	DEFS	4,0
 712+ 0475 FF FF        	DEFS	2,0FFH
 713+ 0477 00 00 00 00  	DEFS	4,0
 714+ 047B FF FF        	DEFS	2,0FFH
 715+ 047D 20           	DB	020H
 716+ 047E 30           	DB	030H
 717+ 047F 00 00        	DEFS	2,0
 718+ 0481 FF FF        	DEFS	2,0FFH
 719+ 0483 60           	DB	060H
 720+ 0484 60           	DB	060H
 721+ 0485 00 00        	DEFS	2,0
 722+ 0487 FF FF        	DEFS	2,0FFH
 723+ 0489 00 40        	DW	04000H
 724+ 048B              ;
 725+ 048B B8 E7        	DW	0E7B8H
 726+ 048D FF FF        	DW	0FFFFH
 727+ 048F 53 53        	DW	05353H
 728+ 0491 B0 E7        	DW	0E7B0H
 729+ 0493 FF FF        	DW	0FFFFH
 730+ 0495 52 52        	DW	05252H
 731+ 0497 81 D3        	DW	0D381H
 732+ 0499 FF FF        	DW	0FFFFH
 733+ 049B 51 51        	DW	05151H
 734+ 049D 78 D3        	DW	0D378H
 735+ 049F FF FF        	DW	0FFFFH
 736+ 04A1 50 50        	DW	05050H
 737+ 04A3 82 CF        	DW	0CF82H
 738+ 04A5 FF FF        	DW	0FFFFH
 739+ 04A7 00 70        	DW	07000H
 740+ 04A9 D5 CE        	DW	0CED5H
 741+ 04AB FF FF        	DW	0FFFFH
 742+ 04AD 10 00        	DW	00010H
 743+ 04AF              ;
 744+ 04AF              D4AF:
 745+ 04AF 1A F5        	DW	0F51AH
 746+ 04B1 0D 00        	DW	0000DH
 747+ 04B3 00 00        	DW	00000H
 748+ 04B5 00 00        	DW	00000H
 749+ 04B7 00           	DB	000H
 750+ 04B8 03 00        	DW	00003H
 751+ 04BA 03 03        	DW	00303H
 752+ 04BC 01 01        	DW	00101H
 753+ 04BE 00 00        	DW	00000H
 754+ 04C0              ;
 755+ 04C0              D4C0:
 756+ 04C0 2D F5        	DW	0F52DH
 757+ 04C2 0A 00        	DW	0000AH
 758+ 04C4 20 45 52 52  	DB	' ERROR '
 758+ 04C8 4F 52 20
 759+ 04CB 00 00        	DW	00000H
 760+ 04CD 20           	DB	' '
 761+ 04CE              ;
 762+ 04CE              D4CE:
 763+ 04CE 03 F8        	DW	0F803H
 764+ 04D0 04 00        	DW	00004H
 765+ 04D2 0D F8        	DW	0F80DH
 766+ 04D4 01 00        	DW	00001H
 767+ 04D6              ;
 768+ 04D6              D4D6:
 769+ 04D6 0E F8        	DW	0F80EH
 770+ 04D8 0A 00        	DW	0000AH
 771+ 04DA CD 62 D8     	CALL	0D862H
 772+ 04DD 00           	DB	000H
 773+ 04DE 00           	DB	000H
 774+ 04DF 03           	DB	003H
 775+ 04E0 0D F8        	DW	0F80DH
 776+ 04E2 01 00        	DW	00001H
 777+ 04E4              ;
 778+ 04E4              D4E4:
 779+ 04E4 18 F8        	DW	0F818H
 780+ 04E6 04 00        	DW	00004H
 781+ 04E8 FF C9        	DW	0C9FFH
 782+ 04EA C9 C9        	DW	0C9C9H
 783+ 04EC              ;
 784+ 04EC              D4EC:
 785+ 04EC 39 F5        	DW	0F539H
 786+ 04EE 90 00        	DW	00090H
 787+ 04F0 0B 10        	DW	0100BH
 788+ 04F2 BB D9        	DW	0D9BBH
 789+ 04F4 E0 00        	DW	000E0H
 790+ 04F6 00 00        	DW	00000H
 791+ 04F8 00 00        	DW	00000H
 792+ 04FA 00 00        	DW	00000H
 793+ 04FC 00 00        	DW	00000H
 794+ 04FE 50 66        	DW	06650H
 795+ 0500 DB D8        	DW	0D8DBH
 796+ 0502 DC 00        	DW	000DCH
 797+ 0504 00 00        	DW	00000H
 798+ 0506 00 80        	DW	08000H
 799+ 0508 00 00        	DW	00000H
 800+ 050A 00 51        	DW	05100H
 801+ 050C 6B DB        	DW	0DB6BH
 802+ 050E D8 DC        	DW	0DCD8H
 803+ 0510 00 00        	DW	00000H
 804+ 0512 00 00        	DW	00000H
 805+ 0514 80 00        	DW	00080H
 806+ 0516 00 00        	DW	00000H
 807+ 0518 00 70        	DW	07000H
 808+ 051A DB D8        	DW	0D8DBH
 809+ 051C DC 00        	DW	000DCH
 810+ 051E 00 00        	DW	00000H
 811+ 0520 00 80        	DW	08000H
 812+ 0522 00 00        	DW	00000H
 813+ 0524 00 00        	DW	00000H
 814+ 0526 75 DB        	DW	0DB75H
 815+ 0528 D8 DC        	DW	0DCD8H
 816+ 052A 00 00        	DW	00000H
 817+ 052C 00 00        	DW	00000H
 818+ 052E 80 00        	DW	00080H
 819+ 0530 00 00        	DW	00000H
 820+ 0532 70 00        	DW	00070H
 821+ 0534 00 00        	DW	00000H
 822+ 0536 00 00        	DW	00000H
 823+ 0538 00 00        	DW	00000H
 824+ 053A 00 00        	DW	00000H
 825+ 053C 00 00        	DW	00000H
 826+ 053E 00 52        	DW	05200H
 827+ 0540 00 00        	DW	00000H
 828+ 0542 00 00        	DW	00000H
 829+ 0544 00 00        	DW	00000H
 830+ 0546 00 00        	DW	00000H
 831+ 0548 00 00        	DW	00000H
 832+ 054A 00 00        	DW	00000H
 833+ 054C 53 00        	DW	00053H
 834+ 054E 00 00        	DW	00000H
 835+ 0550 00 00        	DW	00000H
 836+ 0552 00 00        	DW	00000H
 837+ 0554 00 00        	DW	00000H
 838+ 0556 00 00        	DW	00000H
 839+ 0558 00 00        	DW	00000H
 840+ 055A 00 00        	DW	00000H
 841+ 055C 00 00        	DW	00000H
 842+ 055E 00 00        	DW	00000H
 843+ 0560 00 00        	DW	00000H
 844+ 0562 00 00        	DW	00000H
 845+ 0564 00 00        	DW	00000H
 846+ 0566 00 00        	DW	00000H
 847+ 0568 00 00        	DW	00000H
 848+ 056A 00 00        	DW	00000H
 849+ 056C 00 00        	DW	00000H
 850+ 056E 00 00        	DW	00000H
 851+ 0570 00 00        	DW	00000H
 852+ 0572 00 00        	DW	00000H
 853+ 0574 00 00        	DW	00000H
 854+ 0576 00 00        	DW	00000H
 855+ 0578 00 00        	DW	00000H
 856+ 057A 00 00        	DW	00000H
 857+ 057C 00 00        	DW	00000H
 858+ 057E 00 00        	DW	00000H
 859+ 0580              ;
 860+ 0580              D580:
 861+ 0580 06 F2        	DW	0F206H
 862+ 0582 06 00        	DW	00006H
 863+ 0584 CD 62 D8     	CALL	0D862H
 864+ 0587 00           	NOP
 865+ 0588 00           	NOP
 866+ 0589 00           	NOP
 867+ 058A              ;
 868+ 058A              D58A:
 869+ 058A 12 F2        	DW	0F212H
 870+ 058C 10 00        	DW	00010H
 871+ 058E              	; DB	'3333333333333333'	;OLD !!!
 872+ 058E 30 30 30 30  	DB	'0000000000000000'	;NEU !!!
 872+ 0592 30 30 30 30
 872+ 0596 30 30 30 30
 872+ 059A 30 30 30 30
 873+ 059E              ;
 874+ 059E              D59E:
 875+ 059E 41 F2        	DW	0F241H
 876+ 05A0 02 00        	DW	00002H
 877+ 05A2 50 01        	DW	00150H
 878+ 05A4              ;
 879+ 05A4              D5A4:
 880+ 05A4 95 F2        	DW	V1.MASKE	;0F295H
 881+ 05A6 01 00        	DW	00001H
 882+ 05A8 00           	DB	000H
 883+ 05A9              ;
 884+ 05A9              D5A9:
 885+ 05A9 D5 F2        	DW	0F2D5H
 886+ 05AB 01 00        	DW	00001H
 887+ 05AD 00           	DB	000H
 888+ 05AE              ;
 889+ 05AE              D5AE:
 890+ 05AE C6 F3        	DW	0F3C6H
 891+ 05B0 01 00        	DW	00001H
 892+ 05B2 00           	DB	000H
 893+ 05B3              ;
 894+ 05B3              D5B3:
 895+ 05B3 AA F4        	DW	0F4AAH
 896+ 05B5 01 00        	DW	00001H
 897+ 05B7 00           	DB	000H
 898+ 05B8              ;
 899+ 05B8              D5B8:
 900+ 05B8 05 F0        	DW	0F005H
 901+ 05BA 0C 00        	DW	0000CH
 902+ 05BC 31 D0 F7     	LD	SP,0F7D0H
 903+ 05BF CD 52 C3     	CALL	0C352H
 904+ 05C2 00           	NOP
 905+ 05C3 00           	NOP
 906+ 05C4 00           	NOP
 907+ 05C5 C3 41 C3     	JP	0C341H
 908+ 05C8              ;
 909+ 05C8              D5C8:
 910+ 05C8 00 F0        	DW	0F000H
 911+ 05CA 05 00        	DW	00005H
 912+ 05CC C3 0E C2     	JP	C20E
 913+ 05CF 67 C2        	DW	VB.LAZR	;0C267H
 914+ 05D1              ;
 915+ 05D1              D5D1:
 916+ 05D1 97 F2        	DW	0F297H
 917+ 05D3 3E 00        	DW	0003EH
 918+ 05D5              	;ORG	0060BH
 919+ 05D5 FF FF FF...  	DEFS	54,0FFH	;036H
 920+ 060B FF           	RST	38H
 921+ 060C FF           	RST	38H
 922+ 060D 00           	NOP
 923+ 060E 00           	NOP
 924+ 060F 00           	NOP
 925+ 0610 00           	NOP
 926+ 0611 00           	NOP
 927+ 0612 00           	NOP
 928+ 0613              ;
 929+ 0613              D613:
 930+ 0613 36 FB        	DW	0FB36H
 931+ 0615 01 00        	DW	00001H
 932+ 0617 00           	DB	000H
 933+ 0618              ;
 934+ 0618              D618:
 935+ 0618 4B FB        	DW	0FB4BH
 936+ 061A 01 00        	DW	00001H
 937+ 061C 00           	DB	000H
 938+ 061D              ;
 939+ 061D              D61D:
 940+ 061D 60 FB        	DW	0FB60H
 941+ 061F 01 00        	DW	00001H
 942+ 0621 00           	DB	000H
 943+ 0622              ;
 944+ 0622              D622:
 945+ 0622 75 FB        	DW	0FB75H
 946+ 0624 01 00        	DW	00001H
 947+ 0626 00           	DB	000H
 948+ 0627              ;
 949+ 0627              D627:
 950+ 0627 8A FB        	DW	0FB8AH
 951+ 0629 01 00        	DW	00001H
 952+ 062B 00           	DB	000H
 953+ 062C              ;
 954+ 062C              D62C:
 955+ 062C 9F FB        	DW	0FB9FH
 956+ 062E 01 00        	DW	00001H
 957+ 0630 00           	DB	000H
 958+ 0631              ;
 959+ 0631              D631:
 960+ 0631 B4 FB        	DW	0FBB4H
 961+ 0633 01 00        	DW	00001H
 962+ 0635 00           	DB	000H
 963+ 0636              ;
 964+ 0636              D636:
 965+ 0636 C9 FB        	DW	0FBC9H
 966+ 0638 01 00        	DW	00001H
 967+ 063A 00           	DB	000H
 968+ 063B              ;
 969+ 063B              D63B:
 970+ 063B DE FB        	DW	0FBDEH
 971+ 063D 01 00        	DW	00001H
 972+ 063F 00           	DB	000H
 973+ 0640              ;
 974+ 0640              A640:
 975+ 0640 30 F0        	DW	0F030H
 976+ 0642 0A 01        	DW	0010AH
 977+ 0644              	; DB	"   MEOS 1521     V4.2   "	;OLD !!!
 978+ 0644 20 45 53 20  	DB	" ES 2000      V:4.2/DEG "		;NEU !!!
 978+ 0648 32 30 30 30
 978+ 064C 20 20 20 20
 978+ 0650 20 20 56 3A
 978+ 0654 34 2E 32 2F
 978+ 0658 44 45 47 20
 979+ 065C 04           	DB	004H
 980+ 065D 52 45 53 45  	DB	"RESET  BREAK  TIMEOUT"
 980+ 0661 54 20 20 42
 980+ 0665 52 45 41 4B
 980+ 0669 20 20 54 49
 980+ 066D 4D 45 4F 55
 980+ 0671 54
 981+ 0672 53 42 52 45  	DB	"SBREAK TEMO   OS-MODE"
 981+ 0676 41 4B 20 54
 981+ 067A 45 4D 4F 20
 981+ 067E 20 20 4F 53
 981+ 0682 2D 4D 4F 44
 981+ 0686 45
 982+ 0687 49 20 20 20  	DB	"I   IM I=PC=SP=IX=IY="
 982+ 068B 49 4D 20 49
 982+ 068F 3D 50 43 3D
 982+ 0693 53 50 3D 49
 982+ 0697 58 3D 49 59
 982+ 069B 3D
 983+ 069C 42 43 3D 44  	DB	"BC=DE=HL= A="
 983+ 06A0 45 3D 48 4C
 983+ 06A4 3D 20 41 3D
 984+ 06A8 53 20 20 5A  	DB	"S  Z  H P/V N CY F="
 984+ 06AC 20 20 48 20
 984+ 06B0 50 2F 56 20
 984+ 06B4 4E 20 43 59
 984+ 06B8 20 46 3D
 985+ 06BB 0C           	DB	00CH
 986+ 06BC 19           	DB	019H
 987+ 06BD 2A 20        	DB	'* '
 988+ 06BF 04           	DB	004H
 989+ 06C0 18           	DB	018H
 990+ 06C1 18           	DB	018H
 991+ 06C2 3D           	DB	'='
 992+ 06C3 04           	DB	004H
 993+ 06C4 3A 20        	DB	': '
 994+ 06C6 04           	DB	004H
 995+ 06C7 41 44 44 52  	DB	'ADDRESS'
 995+ 06CB 45 53 53
 996+ 06CE 04           	DB	004H
 997+ 06CF 3D 3D 3D 3D  	DB	'======='
 997+ 06D3 3D 3D 3D
 998+ 06D6 04           	DB	004H
 999+ 06D7 53 4F 55 52  	DB	'SOURCE:  '
 999+ 06DB 43 45 3A 20
 999+ 06DF 20
1000+ 06E0 04           	DB	004H
1001+ 06E1 44 52 41 49  	DB	'DRAIN:   '
1001+ 06E5 4E 3A 20 20
1001+ 06E9 20
1002+ 06EA 04           	DB	004H
1003+ 06EB 42 59 54 45  	DB	'BYTES:   '
1003+ 06EF 53 3A 20 20
1003+ 06F3 20
1004+ 06F4 04           	DB	004H
1005+ 06F5 46 52 4F 4D  	DB	'FROM UMM:'
1005+ 06F9 20 55 4D 4D
1005+ 06FD 3A
1006+ 06FE 04           	DB	004H
1007+ 06FF 54 4F 20 4F  	DB	'TO OSM:  '
1007+ 0703 53 4D 3A 20
1007+ 0707 20
1008+ 0708 04           	DB	004H
1009+ 0709 49 4E 20 20  	DB	'IN  '
1010+ 070D 04           	DB	004H
1011+ 070E 4F 55 54 20  	DB	'OUT '
1012+ 0712 04           	DB	004H
1013+ 0713 18           	DB	018H
1014+ 0714 18           	DB	018H
1015+ 0715 18           	DB	018H
1016+ 0716 20 3D 20     	DB	' = '
1017+ 0719 04           	DB	004H
1018+ 071A 43 42 59 54  	DB	"CBYTEDATA H-ADDL-ADD4321 MR1"
1018+ 071E 45 44 41 54
1018+ 0722 41 20 48 2D
1018+ 0726 41 44 44 4C
1018+ 072A 2D 41 44 44
1018+ 072E 34 33 32 31
1018+ 0732 20 4D 52 31
1019+ 0736 10 1A        	DW	01A10H
1020+ 0738 10 1A        	DW	01A10H
1021+ 073A 10 1A        	DW	01A10H
1022+ 073C 10 1A        	DW	01A10H
1023+ 073E 10 1A        	DW	01A10H
1024+ 0740 10 1A        	DW	01A10H
1025+ 0742 10 1A        	DW	01A10H
1026+ 0744 10 1A        	DW	01A10H
1027+ 0746 10 1A        	DW	01A10H
1028+ 0748 10 1A        	DW	01A10H
1029+ 074A 10 1A        	DW	01A10H
1030+ 074C 10 04        	DW	00410H
1031+ 074E              ;
1032+ 074E              D74E:
1033+ 074E 3A F1        	DW	0F13AH
1034+ 0750 AA 00        	DW	000AAH
1035+ 0752 01 08 DC     	LD	BC,0DC08H
1036+ 0755 4B           	LD	C,E
1037+ 0756 02           	LD	(BC),A
1038+ 0757 74           	LD	(HL),H
1039+ 0758 B3           	OR	E
1040+ 0759 E0           	RET	PO
1041+ 075A D9           	EXX
1042+ 075B BD           	CP	L
1043+ 075C 26 8D        	LD	H,08DH
1044+ 075E 5D           	LD	E,L
1045+ 075F BF           	CP	A
1046+ 0760 4C           	LD	C,H
1047+ 0761 49           	LD	C,C
1048+ 0762 82           	ADD	A,D
1049+ 0763 16 02        	LD	D,002H
1050+ 0765 08           	EX	AF,AF'
1051+ 0766 18 0E        	JR	D776	;$+16	;0776
1052+ 0768              ;
1053+ 0768 30 6A        	JR	NC,$+108	;07D4
1054+ 076A              	; SBC	A,E	;OLD !!!
1055+ 076A              	; SUB	L	;OLD !!!
1056+ 076A 6D           	DB	06DH
1057+ 076B CB           	DB	0CBH
1058+ 076C
1059+ 076C A0           	AND	B
1060+ 076D A0           	AND	B
1061+ 076E 24           	INC	H
1062+ 076F EB           	EX	DE,HL
1063+ 0770 A9           	XOR	C
1064+ 0771 D8           	RET	C
1065+ 0772 D6 53        	SUB	053H
1066+ 0774 2B           	DEC	HL
1067+ 0775 BE           	CP	(HL)
1068+ 0776              D776:
1069+ 0776 03           	INC	BC
1070+ 0777 19           	ADD	HL,DE
1071+ 0778 32 12 5A     	LD	(05A12H),A
1072+ 077B 36 A0        	LD	(HL),0A0H
1073+ 077D 02           	LD	(BC),A
1074+ 077E F1           	POP	AF
1075+ 077F A8           	XOR	B
1076+ 0780 F6 83        	OR	083H
1077+ 0782 92           	SUB	D
1078+ 0783 C3 0D 60     	JP	0600DH
1079+ 0786 5B           	LD	E,E
1080+ 0787 F4 FA F2     	CALL	P,0F2FAH
1081+ 078A B9           	CP	C
1082+ 078B BC           	CP	H
1083+ 078C 19           	ADD	HL,DE
1084+ 078D F9           	LD	SP,HL
1085+ 078E 58           	LD	E,B
1086+ 078F 31 F8 74     	LD	SP,074F8H
1087+ 0792 59           	LD	E,C
1088+ 0793 72           	LD	(HL),D
1089+ 0794 18 BA        	JR	$-68	;0750
1090+ 0796 5A           	LD	E,D
1091+ 0797 B7           	OR	A
1092+ 0798 DC 2B 3C     	CALL	C,03C2BH
1093+ 079B E5           	PUSH	HL
1094+ 079C 3E 63        	LD	A,063H
1095+ 079E A2           	AND	D
1096+ 079F 84           	ADD	A,H
1097+ 07A0 5B           	LD	E,E
1098+ 07A1 94           	SUB	H
1099+ 07A2 EF           	RST	28H
1100+ 07A3 E2 33 79     	JP	PO,07933H
1101+ 07A6 19           	ADD	HL,DE
1102+ 07A7 0D           	DEC	C
1103+ 07A8 B9           	CP	C
1104+ 07A9 48           	LD	C,B
1105+ 07AA 7A           	LD	A,D
1106+ 07AB C6 62        	ADD	A,062H
1107+ 07AD C6 62        	ADD	A,062H
1108+ 07AF C4 87 BD     	CALL	NZ,0BD87H
1109+ 07B2 A3           	AND	E
1110+ 07B3 C4 D6 BE     	CALL	NZ,0BED6H
1111+ 07B6 05           	DEC	B
1112+ 07B7 C4 67 C2     	CALL	NZ,VB.LAZR	;0C267H
1113+ 07BA C4 B7 B9     	CALL	NZ,0B9B7H
1114+ 07BD BA           	CP	D
1115+ 07BE 0F           	RRCA
1116+ 07BF B4           	OR	H
1117+ 07C0 2F           	CPL
1118+ 07C1 B8           	CP	B
1119+ 07C2 77           	LD	(HL),A
1120+ 07C3 BF           	CP	A
1121+ 07C4 E7           	RST	20H
1122+ 07C5 BE           	CP	(HL)
1123+ 07C6 C2 BE AC     	JP	NZ,0ACBEH
1124+ 07C9 C0           	RET	NZ
1125+ 07CA 60           	LD	H,B
1126+ 07CB F2 5E F2     	JP	P,V1.SAVSP
1127+ 07CE 5A           	LD	E,D
1128+ 07CF F2 5C F2     	JP	P,0F25CH
1129+ 07D2 58           	LD	E,B
1130+ 07D3 F2 56 F2     	JP	P,0F256H
1131+ 07D6 54           	LD	D,H
1132+ 07D7 F2 54 F2     	JP	P,0F254H
1133+ 07DA 55           	LD	D,L
1134+ 07DB F2 56 F2     	JP	P,0F256H
1135+ 07DE 57           	LD	D,A
1136+ 07DF F2 58 F2     	JP	P,0F258H
1137+ 07E2 59           	LD	E,C
1138+ 07E3 F2 52 F2     	JP	P,0F252H
1139+ 07E6 53           	LD	D,E
1140+ 07E7 F2 62 F2     	JP	P,0F262H
1141+ 07EA 80           	ADD	A,B
1142+ 07EB 00           	NOP
1143+ 07EC 04           	INC	B
1144+ 07ED 00           	NOP
1145+ 07EE 40           	LD	B,B
1146+ 07EF 00           	NOP
1147+ 07F0 01 00 63     	LD	BC,06300H
1148+ 07F3 F2 63 F2     	JP	P,0F263H
1149+ 07F6 63           	LD	H,E
1150+ 07F7 F2 64 F2     	JP	P,0F264H
1151+ 07FA 64           	LD	H,H
1152+ 07FB F2           	DB	0F2H
1153+ 07FC              ;
1154+ 07FC              D7FC:
1155+ 07FC 00 00        	DW	00000H
1156+ 07FE 00 00        	DW	00000H
1157+ 0800              	.dephase
1158+ A800
1159+ A800              ENDE1 EQU $
1160+ A800
# file closed: incANF1.MAC
  37  A800              	INCLUDE	incANF2.MAC
# file opened: incANF2.MAC
   1+ A800              ;	TITLE	'SYS3 - MEOS1521 ---> Verbindung fuer DEG2000-EMU'
   2+ A800              ;	PAGE
   3+ A800              ;	wird aus DEG2000 - SYS1 angesprungen
   4+ A800              INmem:
   5+ A800 01 C0 04     	LD	BC,004C0H
   6+ A803 21 18 A8     	LD	HL,memIN1
   7+ A806 ED B3        	OTIR
   8+ A808 21 00 A0     	LD	HL,0A000H	; unteren Speicher belegen
   9+ A80B 11 00 00     	LD	DE,00000H
  10+ A80E 01 00 08     	LD	BC,00800H
  11+ A811 ED B0        	LDIR
  12+ A813 C3 00 00     	JP	00000H		; Sprung nach unten
  13+ A816 00           	NOP
  14+ A817 00           	NOP
  15+ A818              memIN1:
  16+ A818 F0           	DB	0F0H	; Speicher für SYS3 aktivieren
  17+ A819 03           	DB	003H
  18+ A81A 09           	DB	009H
  19+ A81B FF           	DB	0FFH
  20+ A81C 00 00 00 00  	DEFS	4,0
  21+ A820              ;
  22+ A820              CurAUS:
  23+ A820              	; PUSH	BC	; OLD !!!
  24+ A820 C9           	RET
  25+ A821 E5           	PUSH	HL
  26+ A822 21 2D A8     	LD	HL,CurIN1
  27+ A825 01 40 03     	LD	BC,00340H
  28+ A828 ED B3        	OTIR
  29+ A82A E1           	POP	HL
  30+ A82B C1           	POP	BC
  31+ A82C C9           	RET
  32+ A82D              ;
  33+ A82D              CurIN1:
  34+ A82D F0           	DB	0F0H	; Cursor ausschalten
  35+ A82E 02           	DB	002H
  36+ A82F FF           	DB	0FFH
  37+ A830              ;
  38+ A830              CurEIN:
  39+ A830              	; PUSH	BC	; OLD !!!
  40+ A830 C9           	RET
  41+ A831 E5           	PUSH	HL
  42+ A832 21 49 A8     	LD	HL,0A849H
  43+ A835 C1           	POP	BC
  44+ A836 C5           	PUSH	BC
  45+ A837 71           	LD	(HL),C
  46+ A838 23           	INC	HL
  47+ A839 70           	LD	(HL),B
  48+ A83A 21 45 A8     	LD	HL,CurIN2
  49+ A83D 01 40 07     	LD	BC,00740H
  50+ A840 ED B3        	OTIR
  51+ A842 E1           	POP	HL
  52+ A843 C1           	POP	BC
  53+ A844 C9           	RET
  54+ A845              ;
  55+ A845              CurIN2:
  56+ A845 F0           	DB	0F0H	; Cursor einschalten
  57+ A846 04           	DB	004H
  58+ A847 00           	DB	000H
  59+ A848 30           	DB	030H
  60+ A849 00           	DB	000H
  61+ A84A 30           	DB	030H
  62+ A84B FF           	DB	0FFH
  63+ A84C              ;
  64+ A84C 00 00 00...  	DEFS	024H,0
  65+ A870 FF FF FF...  	DEFS	020H,0FFH
  66+ A890              ;
  67+ A890 01 28 00     	LD	BC,00028H	;!!! unklarer IO-Port 28H
  68+ A893 1E 04        	LD	E,004H
  69+ A895              M1:
  70+ A895 3E 08        	LD	A,008H
  71+ A897 ED 79        	OUT	(C),A
  72+ A899 78           	LD	A,B
  73+ A89A C6 10        	ADD	A,010H
  74+ A89C 47           	LD	B,A
  75+ A89D 1D           	DEC	E
  76+ A89E 20 F5        	JR	NZ,M1
  77+ A8A0 C3 00 00     	JP	00000H
  78+ A8A3              ;
  79+ A8A3 FF FF FF...  	DEFS	13,0FFH
  80+ A8B0              ;
  81+ A8B0              A8B0:
  82+ A8B0 00 00 00...  	DEFS	10,0
  83+ A8BA C1           	POP	BC
  84+ A8BB D1           	POP	DE
  85+ A8BC E1           	POP	HL
  86+ A8BD F1           	POP	AF
  87+ A8BE C9           	RET
  88+ A8BF
  89+ A8BF              ENDE2 EQU $
  90+ A8BF
# file closed: incANF2.MAC
  38  A8BF
  39  A8BF              	INCLUDE	incMEOS.MAC
# file opened: incMEOS.MAC
   1+ A8BF              ;	TITLE	'SYS3 - MEOS1521 ---> MEOS System'
   2+ A8BF              ;	PAGE
   3+ A8BF FF FF FF...  	DEFS	88H,0FFH
   4+ A947 20 20 20 20  	DB	"           DATE: ",00DH,01AH,01AH,"             SIGN: 83/05/25 "
   4+ A94B 20 20 20 20
   4+ A94F 20 20 20 44
   4+ A953 41 54 45 3A
   4+ A957 20 0D 1A 1A
   4+ A95B 20 20 20 20
   4+ A95F 20 20 20 20
   4+ A963 20 20 20 20
   4+ A967 20 53 49 47
   4+ A96B 4E 3A 20 38
   4+ A96F 33 2F 30 35
   4+ A973 2F 32 35 20
   5+ A977              ;
   6+ A977              A977:
   7+ A977 6E           	LD	L,(HL)
   8+ A978 09           	ADD	HL,BC
   9+ A979 75           	LD	(HL),L
  10+ A97A 09           	ADD	HL,BC
  11+ A97B 3D           	DEC	A
  12+ A97C F2 3F F2     	JP	P,0F23FH
  13+ A97F 2A 24 01     	LD	HL,(00124H)
  14+ A982 1A           	LD	A,(DE)
  15+ A983 77           	LD	(HL),A
  16+ A984 23           	INC	HL
  17+ A985 13           	INC	DE
  18+ A986 1A           	LD	A,(DE)
  19+ A987 77           	LD	(HL),A
  20+ A988 CD 3F 01     	CALL	0013FH
  21+ A98B C9           	RET
  22+ A98C              ;
  23+ A98C              A98C:
  24+ A98C CD C9 09     	CALL	009C9H
  25+ A98F ED 5B 26 01  	LD	DE,(00126H)
  26+ A993 CD 7F 09     	CALL	0097FH
  27+ A996 ED 53 5A 0B  	LD	(00B5AH),DE
  28+ A99A CD C9 09     	CALL	009C9H
  29+ A99D ED 5B 28 01  	LD	DE,(00128H)
  30+ A9A1 CD 7F 09     	CALL	0097FH
  31+ A9A4 ED 53 5C 0B  	LD	(00B5CH),DE
  32+ A9A8 CD C9 09     	CALL	009C9H
  33+ A9AB ED 5B 2A 01  	LD	DE,(0012AH)
  34+ A9AF CD 7F 09     	CALL	0097FH
  35+ A9B2 ED 53 5E 0B  	LD	(00B5EH),DE
  36+ A9B6 CD BD 0A     	CALL	00ABDH
  37+ A9B9 CD D4 09     	CALL	009D4H
  38+ A9BC CD E6 09     	CALL	009E6H
  39+ A9BF CD F3 09     	CALL	009F3H
  40+ A9C2 CD 07 0A     	CALL	00A07H
  41+ A9C5 CD 14 0A     	CALL	00A14H
  42+ A9C8 C9           	RET
  43+ A9C9              ;
  44+ A9C9              A9C9:
  45+ A9C9 2A 24 01     	LD	HL,(00124H)
  46+ A9CC 06 12        	LD	B,012H
  47+ A9CE              A9CE:
  48+ A9CE 36 20        	LD	(HL),020H
  49+ A9D0 23           	INC	HL
  50+ A9D1 10 FB        	DJNZ	A9CE
  51+ A9D3 C9           	RET
  52+ A9D4              ;
  53+ A9D4              A9D4:
  54+ A9D4 29           	ADD	HL,HL
  55+ A9D5 01 39 0A     	LD	BC,00A39H
  56+ A9D8 09           	ADD	HL,BC
  57+ A9D9 5E           	LD	E,(HL)
  58+ A9DA 23           	INC	HL
  59+ A9DB 56           	LD	D,(HL)
  60+ A9DC EB           	EX	DE,HL
  61+ A9DD 11 21 0A     	LD	DE,00A21H
  62+ A9E0 01 0A 00     	LD	BC,10
  63+ A9E3 ED B0        	LDIR
  64+ A9E5 C9           	RET
  65+ A9E6              ;
  66+ A9E6              A9E6:
  67+ A9E6 2A 2A 01     	LD	HL,(0012AH)
  68+ A9E9 7E           	LD	A,(HL)
  69+ A9EA 32 2C 0A     	LD	(00A2CH),A
  70+ A9ED 23           	INC	HL
  71+ A9EE 7E           	LD	A,(HL)
  72+ A9EF 32 2D 0A     	LD	(00A2DH),A
  73+ A9F2 C9           	RET
  74+ A9F3              ;
  75+ A9F3              A9F3:
  76+ A9F3 2A 5C 0B     	LD	HL,(00B5CH)
  77+ A9F6 E5           	PUSH	HL
  78+ A9F7 29           	ADD	HL,HL
  79+ A9F8 D1           	POP	DE
  80+ A9F9 19           	ADD	HL,DE
  81+ A9FA 01 96 0A     	LD	BC,00A96H
  82+ A9FD 09           	ADD	HL,BC
  83+ A9FE 11 30 0A     	LD	DE,00A30H
  84+ AA01 01 03 00     	LD	BC,3
  85+ AA04 ED B0        	LDIR
  86+ AA06 C9           	RET
  87+ AA07              ;
  88+ AA07              AA07:
  89+ AA07 2A 26 01     	LD	HL,(00126H)
  90+ AA0A 7E           	LD	A,(HL)
  91+ AA0B 32 36 0A     	LD	(00A36H),A
  92+ AA0E 23           	INC	HL
  93+ AA0F 7E           	LD	A,(HL)
  94+ AA10 32 37 0A     	LD	(00A37H),A
  95+ AA13 C9           	RET
  96+ AA14              ;
  97+ AA14              AA14:
  98+ AA14 21 20 0A     	LD	HL,00A20H
  99+ AA17 11 A0 AD     	LD	DE,0ADA0H
 100+ AA1A 01 19 00     	LD	BC,19H
 101+ AA1D ED B0        	LDIR
 102+ AA1F C9           	RET
 103+ AA20              ;
 104+ AA20              AA20:
 105+ AA20 20 57 45 44  	DB	" WEDNESDAY  25. MAY 1983 I",00AH,"S",00AH,"]",00AH
 105+ AA24 4E 45 53 44
 105+ AA28 41 59 20 20
 105+ AA2C 32 35 2E 20
 105+ AA30 4D 41 59 20
 105+ AA34 31 39 38 33
 105+ AA38 20 49 0A 53
 105+ AA3C 0A 5D 0A
 106+ AA3F 67 0A 71 0A  	DB	"g",00AH,"q",00AH,"{",00AH,085H,00AH,08FH,00AH
 106+ AA43 7B 0A 85 0A
 106+ AA47 8F 0A
 107+ AA49 20 20 20 53  	DB	"   SUNDAY    MONDAY   TUESDAY WEDNESDAY  THURSDAY    FRIDAY  SATURDAY    "
 107+ AA4D 55 4E 44 41
 107+ AA51 59 20 20 20
 107+ AA55 20 4D 4F 4E
 107+ AA59 44 41 59 20
 107+ AA5D 20 20 54 55
 107+ AA61 45 53 44 41
 107+ AA65 59 20 57 45
 107+ AA69 44 4E 45 53
 107+ AA6D 44 41 59 20
 107+ AA71 20 54 48 55
 107+ AA75 52 53 44 41
 107+ AA79 59 20 20 20
 107+ AA7D 20 46 52 49
 107+ AA81 44 41 59 20
 107+ AA85 20 53 41 54
 107+ AA89 55 52 44 41
 107+ AA8D 59 20 20 20
 107+ AA91 20
 108+ AA92 49 4E 56 41  	DB	"INVALIDJANFEBMARAPRMAYJUNJULAUGSEPOKTNOVDEZ*"
 108+ AA96 4C 49 44 4A
 108+ AA9A 41 4E 46 45
 108+ AA9E 42 4D 41 52
 108+ AAA2 41 50 52 4D
 108+ AAA6 41 59 4A 55
 108+ AAAA 4E 4A 55 4C
 108+ AAAE 41 55 47 53
 108+ AAB2 45 50 4F 4B
 108+ AAB6 54 4E 4F 56
 108+ AABA 44 45 5A 2A
 109+ AABE              ;
 110+ AABE              AABE:
 111+ AABE 5E           	LD	E,(HL)
 112+ AABF 0B           	DEC	BC
 113+ AAC0 E5           	PUSH	HL
 114+ AAC1 21 01 00     	LD	HL,00001H
 115+ AAC4 22 5E 0B     	LD	(00B5EH),HL
 116+ AAC7 2A 5C 0B     	LD	HL,(00B5CH)
 117+ AACA 11 0D 00     	LD	DE,0000DH
 118+ AACD B7           	OR	A
 119+ AACE ED 52        	SBC	HL,DE
 120+ AAD0 30 2A        	JR	NC,$+2CH
 121+ AAD2 2A 5C 0B     	LD	HL,(00B5CH)
 122+ AAD5 E5           	PUSH	HL
 123+ AAD6 23           	INC	HL
 124+ AAD7 22 5C 0B     	LD	(00B5CH),HL
 125+ AADA CD 04 0B     	CALL	00B04H
 126+ AADD EB           	EX	DE,HL
 127+ AADE E1           	POP	HL
 128+ AADF 22 5C 0B     	LD	(00B5CH),HL
 129+ AAE2 E1           	POP	HL
 130+ AAE3 22 5E 0B     	LD	(00B5EH),HL
 131+ AAE6 D5           	PUSH	DE
 132+ AAE7 CD 04 0B     	CALL	00B04H
 133+ AAEA D1           	POP	DE
 134+ AAEB E5           	PUSH	HL
 135+ AAEC B7           	OR	A
 136+ AAED ED 52        	SBC	HL,DE
 137+ AAEF E1           	POP	HL
 138+ AAF0 30 0E        	JR	NC,$+10H
 139+ AAF2 23           	INC	HL
 140+ AAF3 44           	LD	B,H
 141+ AAF4 4D           	LD	C,L
 142+ AAF5 11 07 00     	LD	DE,00007H
 143+ AAF8 CD 74 0B     	CALL	00B74H
 144+ AAFB C9           	RET
 145+ AAFC              ;
 146+ AAFC              AAFC:
 147+ AAFC E1           	POP	HL
 148+ AAFD 22 5E 0B     	LD	(00B5EH),HL
 149+ AB00 21 07 00     	LD	HL,00007H
 150+ AB03 C9           	RET
 151+ AB04              AB04:
 152+ AB04 2A 5E 0B     	LD	HL,(00B5EH)
 153+ AB07 2B           	DEC	HL
 154+ AB08 E5           	PUSH	HL
 155+ AB09 ED 5B 5C 0B  	LD	DE,(00B5CH)
 156+ AB0D 1B           	DEC	DE
 157+ AB0E 01 1F 00     	LD	BC,0001FH
 158+ AB11 CD 60 0B     	CALL	00B60H
 159+ AB14 E1           	POP	HL
 160+ AB15 09           	ADD	HL,BC
 161+ AB16 E5           	PUSH	HL
 162+ AB17 ED 5B 5A 0B  	LD	DE,(00B5AH)
 163+ AB1B 01 6D 01     	LD	BC,0016DH
 164+ AB1E CD 60 0B     	CALL	00B60H
 165+ AB21 E1           	POP	HL
 166+ AB22 09           	ADD	HL,BC
 167+ AB23 E5           	PUSH	HL
 168+ AB24 3A 5C 0B     	LD	A,(00B5CH)
 169+ AB27 FE 03        	CP	3
 170+ AB29 30 06        	JR	NC,$+8
 171+ AB2B 2A 5A 0B     	LD	HL,(00B5AH)
 172+ AB2E 2B           	DEC	HL
 173+ AB2F 18 1E        	JR	$+20H
 174+ AB31              ;
 175+ AB31              AB31:
 176+ AB31 ED 5B 5C 0B  	LD	DE,(00B5CH)
 177+ AB35 01 04 00     	LD	BC,4
 178+ AB38 CD 60 0B     	CALL	000B60H
 179+ AB3B 21 17 00     	LD	HL,17H
 180+ AB3E 09           	ADD	HL,BC
 181+ AB3F 44           	LD	B,H
 182+ AB40 4D           	LD	C,L
 183+ AB41 11 0A 00     	LD	DE,10
 184+ AB44 CD 74 0B     	CALL	00B74H
 185+ AB47 E1           	POP	HL
 186+ AB48 B7           	OR	A
 187+ AB49 ED 42        	SBC	HL,BC
 188+ AB4B E5           	PUSH	HL
 189+ AB4C 2A 5A 0B     	LD	HL,(00B5AH)
 190+ AB4F 44           	LD	B,H
 191+ AB50 4D           	LD	C,L
 192+ AB51 11 04 00     	LD	DE,4
 193+ AB54 CD 74 0B     	CALL	00B74H
 194+ AB57 E1           	POP	HL
 195+ AB58 09           	ADD	HL,BC
 196+ AB59 C9           	RET
 197+ AB5A              ;
 198+ AB5A              AB5A:
 199+ AB5A 53 00 05 00  	DB	053H,0,5,0,019H,0
 199+ AB5E 19 00
 200+ AB60              AB60:
 201+ AB60 21 00 00     	LD	HL,0
 202+ AB63 3E 11        	LD	A,011H
 203+ AB65 CB 18        	RR	B
 204+ AB67 CB 19        	RR	C
 205+ AB69 3D           	DEC	A
 206+ AB6A C8           	RET	Z
 207+ AB6B              ;
 208+ AB6B              AB6B:
 209+ AB6B 30 01        	JR	NC,$+3
 210+ AB6D 19           	ADD	HL,DE
 211+ AB6E CB 1C        	RR	H
 212+ AB70 CB 1D        	RR	L
 213+ AB72 18 F1        	JR	$-13
 214+ AB74              ;
 215+ AB74              AB74:
 216+ AB74 21 00 00     	LD	HL,0
 217+ AB77 AF           	XOR	A
 218+ AB78 3E 12        	LD	A,012H
 219+ AB7A 3D           	DEC	A
 220+ AB7B 28 10        	JR	Z,$+12H
 221+ AB7D ED 52        	SBC	HL,DE
 222+ AB7F 30 01        	JR	NC,$+3
 223+ AB81 19           	ADD	HL,DE
 224+ AB82 3F           	CCF
 225+ AB83 CB 11        	RL	C
 226+ AB85 CB 10        	RL	B
 227+ AB87 CB 15        	RL	L
 228+ AB89 CB 14        	RL	H
 229+ AB8B 18 ED        	JR	$-011H
 230+ AB8D              ;
 231+ AB8D              AB8D:
 232+ AB8D CB 1C        	RR	H
 233+ AB8F CB 1D        	RR	L
 234+ AB91 C9           	RET
 235+ AB92              ;
 236+ AB92              AB92:
 237+ AB92 2D 2D 20 41  	DB	"-- ASSIGNMENT /2 --",00AH,01AH
 237+ AB96 53 53 49 47
 237+ AB9A 4E 4D 45 4E
 237+ AB9E 54 20 2F 32
 237+ ABA2 20 2D 2D 0A
 237+ ABA6 1A
 238+ ABA7 2D 44 45 56  	DB	"-DEVICE - DRIVE   -   NAM"
 238+ ABAB 49 43 45 20
 238+ ABAF 2D 20 44 52
 238+ ABB3 49 56 45 20
 238+ ABB7 20 20 2D 20
 238+ ABBB 20 20 4E 41
 238+ ABBF 4D
 239+ ABC0 45 20 20 20  	DB	"E   -  I  DEVICE  -  BEGIN   -  "
 239+ ABC4 2D 20 20 49
 239+ ABC8 20 20 44 45
 239+ ABCC 56 49 43 45
 239+ ABD0 20 20 2D 20
 239+ ABD4 20 42 45 47
 239+ ABD8 49 4E 20 20
 239+ ABDC 20 2D 20 20
 240+ ABE0 20 45 4E 44  	DB	" END  -I",01AH,008H
 240+ ABE4 20 20 2D 49
 240+ ABE8 1A 08
 241+ ABEA 59 4F 55 52  	DB	"YOUR SELECTION:       "
 241+ ABEE 20 53 45 4C
 241+ ABF2 45 43 54 49
 241+ ABF6 4F 4E 3A 20
 241+ ABFA 20 20 20 20
 241+ ABFE 20 20
 242+ AC00              ;
 243+ AC00              ;	Bildschirmspeicher der ABS 7023
 244+ AC00              ;	===============================
 245+ AC00              ;	A C 0 0
 246+ AC00              ;	=======
 247+ AC00 20 20 20...  	DEFS	400H," "	; 64 x 16 Zeichen
 248+ B000              ;
 249+ B000              ;	B 0 0 0
 250+ B000              ;	=======
 251+ B000              B000:
 252+ B000 00 01 01 02  	DB	000H,001H,001H,002H,002H,003H,001H,004H,005H,00DH,001H,003H,002H,003H,001H,007H
 252+ B004 02 03 01 04
 252+ B008 05 0D 01 03
 252+ B00C 02 03 01 07
 253+ B010 1D 01 01 02  	DB	01DH,001H,001H,002H,002H,003H,001H,008H,01EH,00DH,001H,003H,002H,003H,001H,009H
 253+ B014 02 03 01 08
 253+ B018 1E 0D 01 03
 253+ B01C 02 03 01 09
 254+ B020 1F 01 01 02  	DB	01FH,001H,001H,002H,002H,003H,001H,00AH,020H,00DH,001H,003H,002H,003H,001H,00BH
 254+ B024 02 03 01 0A
 254+ B028 20 0D 01 03
 254+ B02C 02 03 01 0B
 255+ B030 21 01 01 02  	DB	021H,001H,001H,002H,002H,003H,001H,00CH,022H,00DH,001H,003H,002H,003H,001H,006H
 255+ B034 02 03 01 0C
 255+ B038 22 0D 01 03
 255+ B03C 02 03 01 06
 256+ B040              ;
 257+ B040 02 4D 31     	DB	2,"M1"
 258+ B043 03 4D 52 07  	DB	3,"MR",7
 259+ B047 4D 57        	DB	"MW"
 260+ B049 01 49 52     	DB	1,"IR"
 261+ B04C 05 4F 57     	DB	5,"OW"
 262+ B04F 04 49 41 43  	DB	4,"IAC",0F2H,"D",0F2H,00CH,019H,010H,"* "
 262+ B053 F2 44 F2 0C
 262+ B057 19 10 2A 20
 263+ B05B 04 FF FF 42  	DB	4,0FFH,0FFH,"BU"
 263+ B05F 55
 264+ B060 53 41 43 59  	DB	"SACYCLE DA AH AL"
 264+ B064 43 4C 45 20
 264+ B068 44 41 20 41
 264+ B06C 48 20 41 4C
 265+ B070 19 17 10 01  	DB	019H,017H,010H,001H,"V@W",001H
 265+ B074 56 40 57 01
 266+ B078 19 17 0E 01  	DB	019H,017H,00EH,001H,000H,"AC",001H
 266+ B07C 00 41 43 01
 267+ B080              ;
 268+ B080 E1 E1 97 37  	DB	0E1H,0E1H,097H,037H,000H,000H,000H,0CDH,0E1H,0E1H,097H,073H,0FFH,000H,0FFH,0BDH
 268+ B084 00 00 00 CD
 268+ B088 E1 E1 97 73
 268+ B08C FF 00 FF BD
 269+ B090 E1 E1 98 38  	DB	0E1H,0E1H,098H,038H,0FFH,0FFH,000H,0DCH,0E1H,0E1H,098H,083H,0FFH,0FFH,000H,0DBH
 269+ B094 FF FF 00 DC
 269+ B098 E1 E1 98 83
 269+ B09C FF FF 00 DB
 270+ B0A0 E1 E1 99 39  	DB	0E1H,0E1H,099H,039H,0FFH,0FFH,0FFH,000H,0E1H,0E1H,099H,093H,044H,052H,050H,000H
 270+ B0A4 FF FF FF 00
 270+ B0A8 E1 E1 99 93
 270+ B0AC 44 52 50 00
 271+ B0B0              ;
 272+ B0B0 00 FF 96 36  	DB	000H,0FFH,096H,036H,0FFH,0FFH,0FFH,0FFH,0E1H,0E1H,096H,063H,0FFH,0FFH,0FFH,0FFH
 272+ B0B4 FF FF FF FF
 272+ B0B8 E1 E1 96 63
 272+ B0BC FF FF FF FF
 273+ B0C0              ;
 274+ B0C0 24 15 25 26  	DB	024H,015H,025H,026H,027H,016H,00DH,028H,029H,02AH,02BH,000H,02CH,02DH,00EH,028H
 274+ B0C4 27 16 0D 28
 274+ B0C8 29 2A 2B 00
 274+ B0CC 2C 2D 0E 28
 275+ B0D0 2E 15 2F 17  	DB	02EH,015H,02FH,017H,030H,016H,00FH,028H,031H,018H,032H,019H,033H,000H,010H,028H
 275+ B0D4 30 16 0F 28
 275+ B0D8 31 18 32 19
 275+ B0DC 33 00 10 28
 276+ B0E0 34 15 35 1A  	DB	034H,015H,035H,01AH,03DH,016H,011H,028H,03EH,026H,03FH,01AH,036H,000H,012H,028H
 276+ B0E4 3D 16 11 28
 276+ B0E8 3E 26 3F 1A
 276+ B0EC 36 00 12 28
 277+ B0F0 37 15 38 1B  	DB	037H,015H,038H,01BH,039H,016H,013H,028H,03AH,001H,03BH,01CH,03CH,000H,014H,028H
 277+ B0F4 39 16 13 28
 277+ B0F8 3A 01 3B 1C
 277+ B0FC 3C 00 14 28
 278+ B100              ;
 279+ B100 00 75 1D 70  	DB	000H,075H,01DH,070H,0E0H,0E0H,0ECH,000H,000H,097H,0D1H,070H,0E0H,0E0H,0ECH,000H
 279+ B104 E0 E0 EC 00
 279+ B108 00 97 D1 70
 279+ B10C E0 E0 EC 00
 280+ B110 02 85 2D 80  	DB	002H,085H,02DH,080H,0E0H,0E0H,0ECH,000H,002H,098H,0D2H,080H,0E0H,0E0H,0ECH,000H
 280+ B114 E0 E0 EC 00
 280+ B118 02 98 D2 80
 280+ B11C E0 E0 EC 00
 281+ B120 02 95 39 90  	DB	002H,095H,039H,090H,0E0H,0E0H,0ECH,000H,002H,099H,093H,090H,0E0H,0E0H,0ECH,000H
 281+ B124 E0 E0 EC 00
 281+ B128 02 99 93 90
 281+ B12C E0 E0 EC 00
 282+ B130 02 65 3D 60  	DB	002H,065H,03DH,060H,0E0H,0E0H,0ECH,000H,002H,096H,0D3H,060H,0E0H,0E0H,0ECH,000H
 282+ B134 E0 E0 EC 00
 282+ B138 02 96 D3 60
 282+ B13C E0 E0 EC 00
 283+ B140              ;
 284+ B140              B140:
 285+ B140 0A           	DB	00AH
 286+ B141 20 50 43 20  	DB	" PC     STMT         ADD  M  D/"
 286+ B145 20 20 20 20
 286+ B149 53 54 4D 54
 286+ B14D 20 20 20 20
 286+ B151 20 20 20 20
 286+ B155 20 41 44 44
 286+ B159 20 20 4D 20
 286+ B15D 20 44 2F
 287+ B160 45 20 49 53  	DB	"E IS IMODE  I  SP   IX   IY   BC"
 287+ B164 20 49 4D 4F
 287+ B168 44 45 20 20
 287+ B16C 49 20 20 53
 287+ B170 50 20 20 20
 287+ B174 49 58 20 20
 287+ B178 20 49 59 20
 287+ B17C 20 20 42 43
 288+ B180 20 20 20 44  	DB	"   DE   HL   AF  S  Z  H P/V N C"
 288+ B184 45 20 20 20
 288+ B188 48 4C 20 20
 288+ B18C 20 41 46 20
 288+ B190 20 53 20 20
 288+ B194 5A 20 20 48
 288+ B198 20 50 2F 56
 288+ B19C 20 4E 20 43
 289+ B1A0 59           	DB	"Y"
 290+ B1A1 0A 0A        	DW	00A0AH
 291+ B1A3 4E 4F 20 20  	DB	"NO   ADD   C   SBMEMORYIN/OUT"
 291+ B1A7 20 41 44 44
 291+ B1AB 20 20 20 43
 291+ B1AF 20 20 20 53
 291+ B1B3 42 4D 45 4D
 291+ B1B7 4F 52 59 49
 291+ B1BB 4E 2F 4F 55
 291+ B1BF 54
 292+ B1C0 00           	DB	000H
 293+ B1C1 70 50 50 50  	DB	"pPPPp"
 293+ B1C5 70
 294+ B1C6 F0 00        	DB	0F0H,000H
 295+ B1C8 00 00 50 00  	DB	000H,000H,050H,000H,050H,050H,0F0H,000H
 295+ B1CC 50 50 F0 00
 296+ B1D0 00 80 50 F0  	DB	000H,080H,050H,0F0H,050H,080H,0F0H,000H
 296+ B1D4 50 80 F0 00
 297+ B1D8 00 00 50 F0  	DB	000H,000H,050H,0F0H,050H,000H,0F0H,000H
 297+ B1DC 50 00 F0 00
 298+ B1E0 00 90 50 09  	DB	000H,090H,050H,009H,050H,090H,0F0H,000H
 298+ B1E4 50 90 F0 00
 299+ B1E8 00 03 50 89  	DB	000H,003H,050H,089H,050H,000H,0F0H,000H
 299+ B1EC 50 00 F0 00
 300+ B1F0 00 01 50 00  	DB	000H,001H,050H,000H,050H,001H,0F0H,000H
 300+ B1F4 50 01 F0 00
 301+ B1F8 00 69 50 00  	DB	000H,069H,050H,000H,050H,000H,0F0H,000H
 301+ B1FC 50 00 F0 00
 302+ B200              ;
 303+ B200              B200:
 304+ B200 4E 4F 50 20  	DB	"NOP LD  INC DEC RLCAEXAFCCF RRCA"
 304+ B204 4C 44 20 20
 304+ B208 49 4E 43 20
 304+ B20C 44 45 43 20
 304+ B210 52 4C 43 41
 304+ B214 45 58 41 46
 304+ B218 43 43 46 20
 304+ B21C 52 52 43 41
 305+ B220 52 4C 41 20  	DB	"RLA RRA DAA CPL SCF ADD ADC SUB "
 305+ B224 52 52 41 20
 305+ B228 44 41 41 20
 305+ B22C 43 50 4C 20
 305+ B230 53 43 46 20
 305+ B234 41 44 44 20
 305+ B238 41 44 43 20
 305+ B23C 53 55 42 20
 306+ B240 53 42 43 20  	DB	"SBC AND XOR OR  CMP POP PUSHOUT "
 306+ B244 41 4E 44 20
 306+ B248 58 4F 52 20
 306+ B24C 4F 52 20 20
 306+ B250 43 4D 50 20
 306+ B254 50 4F 50 20
 306+ B258 50 55 53 48
 306+ B25C 4F 55 54 20
 307+ B260 45 58 58 20  	DB	"EXX IN  EX  DI  EI  DJNZJR  JRNZ"
 307+ B264 49 4E 20 20
 307+ B268 45 58 20 20
 307+ B26C 44 49 20 20
 307+ B270 45 49 20 20
 307+ B274 44 4A 4E 5A
 307+ B278 4A 52 20 20
 307+ B27C 4A 52 4E 5A
 308+ B280 4A 52 5A 20  	DB	"JRZ JRNCJRC HALTRNZ JPNZJMP CANZ"
 308+ B284 4A 52 4E 43
 308+ B288 4A 52 43 20
 308+ B28C 48 41 4C 54
 308+ B290 52 4E 5A 20
 308+ B294 4A 50 4E 5A
 308+ B298 4A 4D 50 20
 308+ B29C 43 41 4E 5A
 309+ B2A0 52 53 54 20  	DB	"RST RZ  RET JPZ CAZ CALLRNC JPNC"
 309+ B2A4 52 5A 20 20
 309+ B2A8 52 45 54 20
 309+ B2AC 4A 50 5A 20
 309+ B2B0 43 41 5A 20
 309+ B2B4 43 41 4C 4C
 309+ B2B8 52 4E 43 20
 309+ B2BC 4A 50 4E 43
 310+ B2C0 43 41 4E 43  	DB	"CANCRC  JPC CAC RPO JPPOCAPERP  "
 310+ B2C4 52 43 20 20
 310+ B2C8 4A 50 43 20
 310+ B2CC 43 41 43 20
 310+ B2D0 52 50 4F 20
 310+ B2D4 4A 50 50 4F
 310+ B2D8 43 41 50 45
 310+ B2DC 52 50 20 20
 311+ B2E0 4A 50 50 20  	DB	"JPP CAP RM  JPM CAM CAPORPE JPPE"
 311+ B2E4 43 41 50 20
 311+ B2E8 52 4D 20 20
 311+ B2EC 4A 50 4D 20
 311+ B2F0 43 41 4D 20
 311+ B2F4 43 41 50 4F
 311+ B2F8 52 50 45 20
 311+ B2FC 4A 50 50 45
 312+ B300 52 45 54 4E  	DB	"RETNRETIIM1 IM2 RRD RLD LDI CPI "
 312+ B304 52 45 54 49
 312+ B308 49 4D 31 20
 312+ B30C 49 4D 32 20
 312+ B310 52 52 44 20
 312+ B314 52 4C 44 20
 312+ B318 4C 44 49 20
 312+ B31C 43 50 49 20
 313+ B320 49 4E 49 20  	DB	"INI OUTILDD CPD IND OUTDLDIRCPIR"
 313+ B324 4F 55 54 49
 313+ B328 4C 44 44 20
 313+ B32C 43 50 44 20
 313+ B330 49 4E 44 20
 313+ B334 4F 55 54 44
 313+ B338 4C 44 49 52
 313+ B33C 43 50 49 52
 314+ B340 49 4E 49 52  	DB	"INIROTIRLDDRCPDRINDROTDRNEG IM0 "
 314+ B344 4F 54 49 52
 314+ B348 4C 44 44 52
 314+ B34C 43 50 44 52
 314+ B350 49 4E 44 52
 314+ B354 4F 54 44 52
 314+ B358 4E 45 47 20
 314+ B35C 49 4D 30 20
 315+ B360 49 4E 46 20  	DB	"INF H-ADDL-ADDI  IM"
 315+ B364 48 2D 41 44
 315+ B368 44 4C 2D 41
 315+ B36C 44 44 49 20
 315+ B370 20 49 4D
 316+ B373 FF           	DB	0FFH
 317+ B374 42 49 54 20  	DB	"BIT RES SET "
 317+ B378 52 45 53 20
 317+ B37C 53 45 54 20
 318+ B380 52 4C 43 20  	DB	"RLC RRC RL  RR  SLA SRA RM ISRL "
 318+ B384 52 52 43 20
 318+ B388 52 4C 20 20
 318+ B38C 52 52 20 20
 318+ B390 53 4C 41 20
 318+ B394 53 52 41 20
 318+ B398 52 4D 20 49
 318+ B39C 53 52 4C 20
 319+ B3A0 28 53 50 29  	DB	"(SP)(BC)(DE)(NN)NNSPBCDEHLIXIYRI"
 319+ B3A4 28 42 43 29
 319+ B3A8 28 44 45 29
 319+ B3AC 28 4E 4E 29
 319+ B3B0 4E 4E 53 50
 319+ B3B4 42 43 44 45
 319+ B3B8 48 4C 49 58
 319+ B3BC 49 59 52 49
 320+ B3C0 41 46 20 20  	DB	"AF  E   M   (IX)(IY)(IX+D)(IY+D)"
 320+ B3C4 45 20 20 20
 320+ B3C8 4D 20 20 20
 320+ B3CC 28 49 58 29
 320+ B3D0 28 49 59 29
 320+ B3D4 28 49 58 2B
 320+ B3D8 44 29 28 49
 320+ B3DC 59 2B 44 29
 321+ B3E0 42 43 44 45  	DB	"BCDEHLMABRK-CONTROL: CBYTEDATA  "
 321+ B3E4 48 4C 4D 41
 321+ B3E8 42 52 4B 2D
 321+ B3EC 43 4F 4E 54
 321+ B3F0 52 4F 4C 3A
 321+ B3F4 20 43 42 59
 321+ B3F8 54 45 44 41
 321+ B3FC 54 41 20 20
 322+ B400              ;
 323+ B400              	; ORG	0B400H
 324+ B400              ;	B 4 0 0
 325+ B400              ;	=======
 326+ B400              B400:
 327+ B400 1F           	RRA
 328+ B401 13           	INC	DE
 329+ B402 12           	LD	(DE),A
 330+ B403 11 10 0F     	LD	DE,00F10H
 331+ B406 05           	DEC	B
 332+ B407 03           	INC	BC
 333+ B408 FF FF FF...  	DEFS	7,0FFH
 334+ B40F              ;
 335+ B40F              REAL:
 336+ B40F              B40F:
 337+ B40F C3 90 A8     	JP	0A890H
 338+ B412 FF FF FF...  	DEFS	14,0FFH
 339+ B420              ;
 340+ B420              B420:
 341+ B420 FE 02        	CP	002H
 342+ B422 C8           	RET	Z
 343+ B423 FE 03        	CP	003H
 344+ B425 C8           	RET	Z
 345+ B426 00           	NOP
 346+ B427 00           	NOP
 347+ B428 00           	NOP
 348+ B429 00           	NOP
 349+ B42A 00           	NOP
 350+ B42B              ;
 351+ B42B              B433:
 352+ B42B 00           	NOP
 353+ B42C 00           	NOP
 354+ B42D 00           	NOP
 355+ B42E 00           	NOP
 356+ B42F 00           	NOP
 357+ B430 00           	NOP
 358+ B431 00           	NOP
 359+ B432 00           	NOP
 360+ B433 DB A1        	IN	A,0A1H	; Tastatur
 361+ B435 CB 5F        	BIT	3,A
 362+ B437 20 F2        	JR	NZ,B433
 363+ B439 00           	NOP
 364+ B43A 00           	NOP
 365+ B43B 00           	NOP
 366+ B43C 00           	NOP
 367+ B43D DB A0        	IN	A,0A0H	; Tastatur
 368+ B43F 57           	LD	D,A
 369+ B440              ;
 370+ B440 FE FB        	CP	0FBH     ;Cursor runter
 371+ B442 20 04        	JR	NZ,TA10
 372+ B444 16 1A        	LD	D,01AH
 373+ B446 18 58        	JR	TA50
 374+ B448              TA10:
 375+ B448 FE FA        	CP	0FAH     ;Cursor an Zeilenanfang
 376+ B44A 20 04        	JR	NZ,TA11
 377+ B44C 16 0A        	LD	D,00AH
 378+ B44E 18 50        	JR	TA50
 379+ B450              TA11:
 380+ B450 FE F9        	CP	0F9H     ;Cursor rechts
 381+ B452 20 04        	JR	NZ,TA12
 382+ B454 16 18        	LD	D,018H
 383+ B456 18 48        	JR	TA50
 384+ B458              TA12:
 385+ B458 FE F8        	CP	0F8H     ;Cursor Home
 386+ B45A 20 04        	JR	NZ,TA13
 387+ B45C 16 0C        	LD	D,00CH
 388+ B45E 18 40        	JR	TA50
 389+ B460              TA13:
 390+ B460 FE F7        	CP	0F7H     ;Cursor links
 391+ B462 20 04        	JR	NZ,TA14
 392+ B464 16 08        	LD	D,008H
 393+ B466 18 38        	JR	TA50
 394+ B468              TA14:
 395+ B468 FE F5        	CP	0F5H     ;Cursor hoch
 396+ B46A 20 04        	JR	NZ,TA15
 397+ B46C 16 19        	LD	D,019H
 398+ B46E 18 30        	JR	TA50
 399+ B470              TA15:
 400+ B470 FE F3        	CP	0F3H     ;DEL LIN
 401+ B472 20 04        	JR	NZ,TA16
 402+ B474 16 1E        	LD	D,01EH
 403+ B476 18 28        	JR	TA50
 404+ B478              TA16:
 405+ B478 FE F2        	CP	0F2H     ;INS LIN
 406+ B47A 20 04        	JR	NZ,TA17
 407+ B47C 16 1C        	LD	D,01CH
 408+ B47E 18 20        	JR	TA50
 409+ B480              TA17:
 410+ B480 FE F1        	CP	0F1H     ;DEL
 411+ B482 20 04        	JR	NZ,TA18
 412+ B484 16 1D        	LD	D,01DH
 413+ B486 18 18        	JR	TA50
 414+ B488              TA18:
 415+ B488 FE CD        	CP	0CDH     ;SYS
 416+ B48A 20 04        	JR	NZ,TA19
 417+ B48C 16 1F        	LD	D,01FH
 418+ B48E 18 10        	JR	TA50
 419+ B490              TA19:
 420+ B490 00           	NOP
 421+ B491 00           	NOP
 422+ B492 00           	NOP
 423+ B493 00           	NOP
 424+ B494 00           	NOP
 425+ B495 00           	NOP
 426+ B496 00           	NOP
 427+ B497 00           	NOP
 428+ B498 00           	NOP
 429+ B499 00           	NOP
 430+ B49A 57           	LD	D,A
 431+ B49B 18 03        	JR	TA50
 432+ B49D FF FF FF     	DEFS	3,0FFH
 433+ B4A0              ;
 434+ B4A0              TA50:
 435+ B4A0 C5           	PUSH	BC
 436+ B4A1 06 50        	LD	B,80	;1 !!!
 437+ B4A3              TA51:
 438+ B4A3 C5           	PUSH	BC
 439+ B4A4 06 FF        	LD	B,0FFH	;1 !!!
 440+ B4A6              TA52:
 441+ B4A6 10 FE        	DJNZ	TA52
 442+ B4A8 C1           	POP	BC
 443+ B4A9 10 F8        	DJNZ	TA51
 444+ B4AB C1           	POP	BC
 445+ B4AC F5           	PUSH	AF
 446+ B4AD E5           	PUSH	HL
 447+ B4AE C5           	PUSH	BC
 448+ B4AF 21 00 B4     	LD	HL,B400
 449+ B4B2 01 08 00     	LD	BC,00008H
 450+ B4B5 ED B1        	CPIR
 451+ B4B7 20 0E        	JR	NZ,$+10H
 452+ B4B9 0C           	INC	C
 453+ B4BA 41           	LD	B,C
 454+ B4BB AF           	XOR	A
 455+ B4BC 37           	SCF
 456+ B4BD              TA53:
 457+ B4BD 17           	RLA
 458+ B4BE 10 FD        	DJNZ	TA53
 459+ B4C0 21 95 F2     	LD	HL,V1.MASKE
 460+ B4C3 B6           	OR	(HL)
 461+ B4C4 32 95 F2     	LD	(V1.MASKE),A
 462+ B4C7 C1           	POP	BC
 463+ B4C8 E1           	POP	HL
 464+ B4C9 F1           	POP	AF
 465+ B4CA C9           	RET
 466+ B4CB FF FF FF...  	DEFS	5,0FFH
 467+ B4D0              ;
 468+ B4D0              XY01:
 469+ B4D0              B4D0:
 470+ B4D0 F5           	PUSH	AF
 471+ B4D1 E5           	PUSH	HL
 472+ B4D2 D5           	PUSH	DE
 473+ B4D3 C5           	PUSH	BC
 474+ B4D4 01 28 30     	LD	BC,03028H	;28H welcher IO-Port ???
 475+ B4D7 3E 08        	LD	A,008H
 476+ B4D9 ED 79        	OUT	(C),A
 477+ B4DB 21 00 AC     	LD	HL,XQ.DRAM	;0AC00H
 478+ B4DE 11 48 31     	LD	DE,03148H
 479+ B4E1 D9           	EXX
 480+ B4E2 06 10        	LD	B,010H
 481+ B4E4              XY02:
 482+ B4E4 D9           	EXX
 483+ B4E5 01 40 00     	LD	BC,00040H
 484+ B4E8 ED B0        	LDIR
 485+ B4EA EB           	EX	DE,HL
 486+ B4EB 01 10 00     	LD	BC,00010H
 487+ B4EE 09           	ADD	HL,BC
 488+ B4EF EB           	EX	DE,HL
 489+ B4F0 D9           	EXX
 490+ B4F1 10 F1        	DJNZ	XY02
 491+ B4F3 01 28 30     	LD	BC,03028H
 492+ B4F6 AF           	XOR	A
 493+ B4F7 ED 79        	OUT	(C),A
 494+ B4F9 00           	NOP
 495+ B4FA 00           	NOP
 496+ B4FB 00           	NOP
 497+ B4FC C3 B0 A8     	JP	A8B0
 498+ B4FF              ;
 499+ B4FF C9           	RET
 500+ B500              ;
 501+ B500              XY03:
 502+ B500 CD D0 B4     	CALL	B4D0
 503+ B503 C3 E7 CB     	JP	0CBE7H
 504+ B506 FF FF        	DEFS	2,0FFH
 505+ B508              ;
 506+ B508              XY04:
 507+ B508 C1           	POP	BC
 508+ B509 CD D0 B4     	CALL	B4D0
 509+ B50C 1E 4B        	LD	E,04BH
 510+ B50E C3 C3 CC     	JP	0CCC3H
 511+ B511              ;
 512+ B511              XY05:
 513+ B511 CD 00 B4     	CALL	B400
 514+ B514 3E FF        	LD	A,0FFH
 515+ B516 CB 67        	BIT	4,A
 516+ B518 3E FF        	LD	A,0FFH
 517+ B51A 16 02        	LD	D,002H
 518+ B51C 28 F3        	JR	Z,XY05
 519+ B51E 1D           	DEC	E
 520+ B51F 20 F0        	JR	NZ,XY05
 521+ B521 C3 15 B4     	JP	0B415H
 522+ B524              ;    PAGE
 523+ B524              ;
 524+ B524              B524:
 525+ B524 21 96 F2     	LD	HL,0F296H		;PC SC   TEMO
 526+ B527 36 00        	LD	(HL),000H
 527+ B529 0E 07        	LD	C,007H
 528+ B52B 23           	INC	HL
 529+ B52C 56           	LD	D,(HL)
 530+ B52D 23           	INC	HL
 531+ B52E 5E           	LD	E,(HL)
 532+ B52F 23           	INC	HL
 533+ B530 7E           	LD	A,(HL)
 534+ B531 23           	INC	HL
 535+ B532 3C           	INC	A
 536+ B533 28 35        	JR	Z,$+55	;B56A
 537+ B535 3D           	DEC	A
 538+ B536 FE 42        	CP	042H
 539+ B538 28 04        	JR	Z,$+06	;B53E
 540+ B53A FE 54        	CP	054H
 541+ B53C 20 2C        	JR	NZ,$+46	;B56A
 542+ B53E 47           	LD	B,A
 543+ B53F C5           	PUSH	BC
 544+ B540 46           	LD	B,(HL)
 545+ B541 CD 75 E8     	CALL	0E875H
 546+ B544 EB           	EX	DE,HL
 547+ B545 CD 7B E8     	CALL	E87B
 548+ B548 12           	LD	(DE),A
 549+ B549 ED 4B 60 F2  	LD	BC,(V1.SAVPC)	;0F260H
 550+ B54D B7           	OR	A
 551+ B54E ED 42        	SBC	HL,BC
 552+ B550 C1           	POP	BC
 553+ B551 62           	LD	H,D
 554+ B552 6B           	LD	L,E
 555+ B553 20 15        	JR	NZ,$+23	;B56A
 556+ B555 FE 7F        	CP	07FH
 557+ B557 20 0D        	JR	NZ,$+15	;B566
 558+ B559 78           	LD	A,B
 559+ B55A FE 54        	CP	054H
 560+ B55C 28 08        	JR	Z,$+10	;B566
 561+ B55E 06 04        	LD	B,004H
 562+ B560 36 FF        	LD	(HL),0FFH
 563+ B562 2B           	DEC	HL
 564+ B563 10 FB        	DJNZ	$-03	;B560
 565+ B565 EB           	EX	DE,HL
 566+ B566 78           	LD	A,B
 567+ B567 32 96 F2     	LD	(0F296H),A
 568+ B56A 0D           	DEC	C
 569+ B56B 20 BE        	JR	NZ,$-64	;B52B
 570+ B56D 3A 96 F2     	LD	A,(0F296H)
 571+ B570 FE 54        	CP	054H
 572+ B572 C9           	RET
 573+ B573 3E 07        	LD	A,007H
 574+ B575 1E 4B        	LD	E,04BH
 575+ B577 CD 6E CA     	CALL	0CA6EH
 576+ B57A B7           	OR	A
 577+ B57B C0           	RET	NZ
 578+ B57C 7A           	LD	A,D
 579+ B57D FE 42        	CP	042H
 580+ B57F C9           	RET
 581+ B580 06 60        	LD	B,060H
 582+ B582 21 C9 F3     	LD	HL,0F3C9H
 583+ B585 36 20        	LD	(HL),020H
 584+ B587 23           	INC	HL
 585+ B588 10 FB        	DJNZ	$-03	;B585
 586+ B58A 21 B8 F3     	LD	HL,0F3B8H
 587+ B58D 16 00        	LD	D,000H
 588+ B58F 7E           	LD	A,(HL)
 589+ B590 FE CB        	CP	0CBH
 590+ B592 20 04        	JR	NZ,$+06	;B598
 591+ B594 14           	INC	D
 592+ B595 C3 4A B6     	JP	0B64AH
 593+ B598 FE ED        	CP	0EDH
 594+ B59A 20 50        	JR	NZ,$+82	;B5EC
 595+ B59C 16 02        	LD	D,002H
 596+ B59E 23           	INC	HL
 597+ B59F 7E           	LD	A,(HL)
 598+ B5A0 FE 80        	CP	080H
 599+ B5A2 38 16        	JR	C,$+24	;B5BA
 600+ B5A4 CB 5F        	BIT	3,A
 601+ B5A6 28 02        	JR	Z,$+04	;B5AA
 602+ B5A8 D6 04        	SUB	004H
 603+ B5AA FE B0        	CP	0B0H
 604+ B5AC 38 02        	JR	C,$+04	;B5B0
 605+ B5AE D6 08        	SUB	008H
 606+ B5B0 D6 5A        	SUB	05AH
 607+ B5B2 4F           	LD	C,A
 608+ B5B3 06 00        	LD	B,000H
 609+ B5B5 1E 0D        	LD	E,00DH
 610+ B5B7 C3 4C B6     	JP	0B64CH
 611+ B5BA 5F           	LD	E,A
 612+ B5BB E6 0F        	AND	00FH
 613+ B5BD F6 70        	OR	070H
 614+ B5BF 4F           	LD	C,A
 615+ B5C0 06 00        	LD	B,000H
 616+ B5C2 21 00 B0     	LD	HL,0B000H
 617+ B5C5 09           	ADD	HL,BC
 618+ B5C6 7B           	LD	A,E
 619+ B5C7 0E 58        	LD	C,058H
 620+ B5C9 FE 70        	CP	070H
 621+ B5CB 28 12        	JR	Z,$+20	;B5DF
 622+ B5CD 0E 42        	LD	C,042H
 623+ B5CF FE 56        	CP	056H
 624+ B5D1 28 0C        	JR	Z,$+14	;B5DF
 625+ B5D3 0E 44        	LD	C,044H
 626+ B5D5 FE 67        	CP	067H
 627+ B5D7 28 06        	JR	Z,$+08	;B5DF
 628+ B5D9 0C           	INC	C
 629+ B5DA FE 6F        	CP	06FH
 630+ B5DC 28 01        	JR	Z,$+03	;B5DF
 631+ B5DE 4E           	LD	C,(HL)
 632+ B5DF C5           	PUSH	BC
 633+ B5E0 7B           	LD	A,E
 634+ B5E1 C6 40        	ADD	A,040H
 635+ B5E3 4F           	LD	C,A
 636+ B5E4 21 00 B0     	LD	HL,0B000H
 637+ B5E7 09           	ADD	HL,BC
 638+ B5E8 C1           	POP	BC
 639+ B5E9 46           	LD	B,(HL)
 640+ B5EA 18 5E        	JR	$+96	;B64A
 641+ B5EC FE DD        	CP	0DDH
 642+ B5EE 28 05        	JR	Z,$+07	;B5F5
 643+ B5F0 FE FD        	CP	0FDH
 644+ B5F2 20 0E        	JR	NZ,$+16	;B602
 645+ B5F4 B7           	OR	A
 646+ B5F5 16 04        	LD	D,004H
 647+ B5F7 28 02        	JR	Z,$+04	;B5FB
 648+ B5F9 16 08        	LD	D,008H
 649+ B5FB 23           	INC	HL
 650+ B5FC 7E           	LD	A,(HL)
 651+ B5FD FE CB        	CP	0CBH
 652+ B5FF 20 01        	JR	NZ,$+03	;B602
 653+ B601 14           	INC	D
 654+ B602 6F           	LD	L,A
 655+ B603 06 00        	LD	B,000H
 656+ B605 FE C0        	CP	0C0H
 657+ B607 30 1B        	JR	NC,$+29	;B624
 658+ B609 FE 80        	CP	080H
 659+ B60B 38 0B        	JR	C,$+13	;B618
 660+ B60D E6 38        	AND	038H
 661+ B60F 0F           	RRCA
 662+ B610 0F           	RRCA
 663+ B611 0F           	RRCA
 664+ B612 C6 0D        	ADD	A,00DH
 665+ B614 4F           	LD	C,A
 666+ B615 7D           	LD	A,L
 667+ B616 18 12        	JR	$+20	;B62A
 668+ B618 0E 23        	LD	C,023H
 669+ B61A FE 76        	CP	076H
 670+ B61C 28 0C        	JR	Z,$+14	;B62A
 671+ B61E 0E 01        	LD	C,001H
 672+ B620 FE 40        	CP	040H
 673+ B622 30 06        	JR	NC,$+08	;B62A
 674+ B624 4D           	LD	C,L
 675+ B625 21 00 B0     	LD	HL,0B000H
 676+ B628 09           	ADD	HL,BC
 677+ B629 4E           	LD	C,(HL)
 678+ B62A FE C0        	CP	0C0H
 679+ B62C 30 12        	JR	NC,$+20	;B640
 680+ B62E 06 E2        	LD	B,0E2H
 681+ B630 FE 80        	CP	080H
 682+ B632 30 16        	JR	NC,$+24	;B64A
 683+ B634 06 00        	LD	B,000H
 684+ B636 FE 76        	CP	076H
 685+ B638 28 10        	JR	Z,$+18	;B64A
 686+ B63A 06 E8        	LD	B,0E8H
 687+ B63C FE 40        	CP	040H
 688+ B63E 30 0A        	JR	NC,$+12	;B64A
 689+ B640 C5           	PUSH	BC
 690+ B641 06 00        	LD	B,000H
 691+ B643 4D           	LD	C,L
 692+ B644 21 00 B1     	LD	HL,0B100H
 693+ B647 09           	ADD	HL,BC
 694+ B648 C1           	POP	BC
 695+ B649 46           	LD	B,(HL)
 696+ B64A 1E 00        	LD	E,000H
 697+ B64C ED 43 BE F3  	LD	(0F3BEH),BC
 698+ B650 ED 53 C0 F3  	LD	(0F3C0H),DE
 699+ B654 11 C9 F3     	LD	DE,0F3C9H
 700+ B657 01 C3 F3     	LD	BC,0F3C3H
 701+ B65A CD 95 C3     	CALL	0C395H
 702+ B65D 0B           	DEC	BC
 703+ B65E CD 95 C3     	CALL	0C395H
 704+ B661 13           	INC	DE
 705+ B662 01 04 00     	LD	BC,00004H
 706+ B665 3A C1 F3     	LD	A,(0F3C1H)
 707+ B668 21 00 B3     	LD	HL,0B300H
 708+ B66B CB 0F        	RRC	A
 709+ B66D 30 6B        	JR	NC,$+109	;B6DA
 710+ B66F 0F           	RRCA
 711+ B670 0F           	RRCA
 712+ B671 3A B9 F3     	LD	A,(0F3B9H)
 713+ B674 E2 7A B6     	JP	PO,0B67AH
 714+ B677 3A BB F3     	LD	A,(0F3BBH)
 715+ B67A F5           	PUSH	AF
 716+ B67B FE 40        	CP	040H
 717+ B67D 30 3F        	JR	NC,$+65	;B6BE
 718+ B67F E6 38        	AND	038H
 719+ B681 0F           	RRCA
 720+ B682 F6 80        	OR	080H
 721+ B684 C5           	PUSH	BC
 722+ B685 4F           	LD	C,A
 723+ B686 09           	ADD	HL,BC
 724+ B687 C1           	POP	BC
 725+ B688 ED B0        	LDIR
 726+ B68A 13           	INC	DE
 727+ B68B F1           	POP	AF
 728+ B68C EA 9B B6     	JP	PE,0B69BH
 729+ B68F 01 01 00     	LD	BC,00001H
 730+ B692 E6 07        	AND	007H
 731+ B694 F6 E0        	OR	0E0H
 732+ B696 6F           	LD	L,A
 733+ B697 FE E6        	CP	0E6H
 734+ B699 20 19        	JR	NZ,$+27	;B6B4
 735+ B69B 3A C1 F3     	LD	A,(0F3C1H)
 736+ B69E E6 0C        	AND	00CH
 737+ B6A0 FE 04        	CP	004H
 738+ B6A2 3E 0D        	LD	A,00DH
 739+ B6A4 38 0B        	JR	C,$+13	;B6B1
 740+ B6A6 2E DA        	LD	L,0DAH
 741+ B6A8 3E 0C        	LD	A,00CH
 742+ B6AA 0E 06        	LD	C,006H
 743+ B6AC 20 03        	JR	NZ,$+05	;B6B1
 744+ B6AE 3D           	DEC	A
 745+ B6AF 2E D4        	LD	L,0D4H
 746+ B6B1 32 C0 F3     	LD	(0F3C0H),A
 747+ B6B4 C5           	PUSH	BC
 748+ B6B5 4D           	LD	C,L
 749+ B6B6 21 00 B3     	LD	HL,0B300H
 750+ B6B9 09           	ADD	HL,BC
 751+ B6BA C1           	POP	BC
 752+ B6BB ED B0        	LDIR
 753+ B6BD C9           	RET
 754+ B6BE              ;
 755+ B6BE              ;    PAGE
 756+ B6BE              B6BE:
 757+ B6BE 0F           	RRCA
 758+ B6BF 0F           	RRCA
 759+ B6C0 0F           	RRCA
 760+ B6C1 F5           	PUSH	AF
 761+ B6C2 0F           	RRCA
 762+ B6C3 E6 0C        	AND	00CH
 763+ B6C5 F6 70        	OR	070H
 764+ B6C7 C5           	PUSH	BC
 765+ B6C8 4F           	LD	C,A
 766+ B6C9 09           	ADD	HL,BC
 767+ B6CA C1           	POP	BC
 768+ B6CB ED B0        	LDIR
 769+ B6CD 13           	INC	DE
 770+ B6CE F1           	POP	AF
 771+ B6CF E6 07        	AND	007H
 772+ B6D1 F6 30        	OR	030H
 773+ B6D3 12           	LD	(DE),A
 774+ B6D4 13           	INC	DE
 775+ B6D5 3E 2C        	LD	A,02CH
 776+ B6D7 12           	LD	(DE),A
 777+ B6D8 18 B0        	JR	$-78	;B68A
 778+ B6DA 3A BE F3     	LD	A,(0F3BEH)
 779+ B6DD FE 40        	CP	040H
 780+ B6DF 30 01        	JR	NC,$+03	;B6E2
 781+ B6E1 25           	DEC	H
 782+ B6E2 E6 3F        	AND	03FH
 783+ B6E4 07           	RLCA
 784+ B6E5 07           	RLCA
 785+ B6E6 C5           	PUSH	BC
 786+ B6E7 4F           	LD	C,A
 787+ B6E8 09           	ADD	HL,BC
 788+ B6E9 C1           	POP	BC
 789+ B6EA ED B0        	LDIR
 790+ B6EC 13           	INC	DE
 791+ B6ED 21 B8 F3     	LD	HL,0F3B8H
 792+ B6F0 7E           	LD	A,(HL)
 793+ B6F1 E6 C7        	AND	0C7H
 794+ B6F3 FE C7        	CP	0C7H
 795+ B6F5 20 08        	JR	NZ,$+10	;B6FF
 796+ B6F7 7E           	LD	A,(HL)
 797+ B6F8 E6 38        	AND	038H
 798+ B6FA 77           	LD	(HL),A
 799+ B6FB 7E           	LD	A,(HL)
 800+ B6FC C3 A8 C3     	JP	0C3A8H
 801+ B6FF 3A BF F3     	LD	A,(0F3BFH)
 802+ B702 B7           	OR	A
 803+ B703 C8           	RET	Z
 804+ B704 FE 04        	CP	004H
 805+ B706 30 1B        	JR	NC,$+29	;B723
 806+ B708 4F           	LD	C,A
 807+ B709 3A C1 F3     	LD	A,(0F3C1H)
 808+ B70C B7           	OR	A
 809+ B70D 28 06        	JR	Z,$+08	;B715
 810+ B70F 0C           	INC	C
 811+ B710 FE 08        	CP	008H
 812+ B712 20 01        	JR	NZ,$+03	;B715
 813+ B714 0C           	INC	C
 814+ B715 79           	LD	A,C
 815+ B716 32 C0 F3     	LD	(0F3C0H),A
 816+ B719 3D           	DEC	A
 817+ B71A 07           	RLCA
 818+ B71B 07           	RLCA
 819+ B71C F6 C0        	OR	0C0H
 820+ B71E 6F           	LD	L,A
 821+ B71F 0E 04        	LD	C,004H
 822+ B721 18 91        	JR	$-109	;B6B4
 823+ B723 FE F0        	CP	0F0H
 824+ B725 21 B9 F3     	LD	HL,0F3B9H
 825+ B728 28 D1        	JR	Z,$-45	;B6FB
 826+ B72A 4F           	LD	C,A
 827+ B72B E6 F0        	AND	0F0H
 828+ B72D FE E0        	CP	0E0H
 829+ B72F 79           	LD	A,C
 830+ B730 20 3A        	JR	NZ,$+60	;B76C
 831+ B732 CB 09        	RRC	C
 832+ B734 38 0A        	JR	C,$+12	;B740
 833+ B736 2B           	DEC	HL
 834+ B737 47           	LD	B,A
 835+ B738 3A C1 F3     	LD	A,(0F3C1H)
 836+ B73B B7           	OR	A
 837+ B73C 28 01        	JR	Z,$+03	;B73F
 838+ B73E 23           	INC	HL
 839+ B73F 78           	LD	A,B
 840+ B740 E5           	PUSH	HL
 841+ B741 F5           	PUSH	AF
 842+ B742 7E           	LD	A,(HL)
 843+ B743 CB 09        	RRC	C
 844+ B745 38 03        	JR	C,$+05	;B74A
 845+ B747 0F           	RRCA
 846+ B748 0F           	RRCA
 847+ B749 0F           	RRCA
 848+ B74A CD 8F B6     	CALL	0B68FH
 849+ B74D F1           	POP	AF
 850+ B74E E1           	POP	HL
 851+ B74F FE E4        	CP	0E4H
 852+ B751 D8           	RET	C
 853+ B752 4F           	LD	C,A
 854+ B753 3E 2C        	LD	A,02CH
 855+ B755 12           	LD	(DE),A
 856+ B756 13           	INC	DE
 857+ B757 79           	LD	A,C
 858+ B758 FE E8        	CP	0E8H
 859+ B75A 20 04        	JR	NZ,$+06	;B760
 860+ B75C 7E           	LD	A,(HL)
 861+ B75D C3 8F B6     	JP	0B68FH
 862+ B760              ;
 863+ B760              ;    PAGE
 864+ B760              B760:
 865+ B760 23           	INC	HL
 866+ B761 3A C1 F3     	LD	A,(0F3C1H)
 867+ B764 B7           	OR	A
 868+ B765 CA FB B6     	JP	Z,0B6FBH
 869+ B768 3E 4E        	LD	A,04EH
 870+ B76A 12           	LD	(DE),A
 871+ B76B C9           	RET
 872+ B76C 0F           	RRCA
 873+ B76D 0F           	RRCA
 874+ B76E 0F           	RRCA
 875+ B76F 0F           	RRCA
 876+ B770 CD 7F B7     	CALL	0B77FH
 877+ B773 3A BF F3     	LD	A,(0F3BFH)
 878+ B776 47           	LD	B,A
 879+ B777 E6 0F        	AND	00FH
 880+ B779 C8           	RET	Z
 881+ B77A 3E 2C        	LD	A,02CH
 882+ B77C 12           	LD	(DE),A
 883+ B77D 13           	INC	DE
 884+ B77E 78           	LD	A,B
 885+ B77F E6 0F        	AND	00FH
 886+ B781 01 04 00     	LD	BC,00004H
 887+ B784 B9           	CP	C
 888+ B785 30 10        	JR	NC,$+18	;B797
 889+ B787 F5           	PUSH	AF
 890+ B788 07           	RLCA
 891+ B789 07           	RLCA
 892+ B78A C6 A0        	ADD	A,0A0H
 893+ B78C 6F           	LD	L,A
 894+ B78D F1           	POP	AF
 895+ B78E 3C           	INC	A
 896+ B78F C6 06        	ADD	A,006H
 897+ B791 32 C0 F3     	LD	(0F3C0H),A
 898+ B794 C3 B4 B6     	JP	0B6B4H
 899+ B797 CB 09        	RRC	C
 900+ B799 FE 09        	CP	009H
 901+ B79B 30 0C        	JR	NC,$+14	;B7A9
 902+ B79D D6 05        	SUB	005H
 903+ B79F F5           	PUSH	AF
 904+ B7A0 07           	RLCA
 905+ B7A1 C6 B0        	ADD	A,0B0H
 906+ B7A3 6F           	LD	L,A
 907+ B7A4 F1           	POP	AF
 908+ B7A5 28 E8        	JR	Z,$-22	;B78F
 909+ B7A7 18 EB        	JR	$-19	;B794
 910+ B7A9 20 13        	JR	NZ,$+21	;B7BE
 911+ B7AB 2E B8        	LD	L,0B8H
 912+ B7AD 3A C1 F3     	LD	A,(0F3C1H)
 913+ B7B0 E6 0C        	AND	00CH
 914+ B7B2 FE 04        	CP	004H
 915+ B7B4 38 DE        	JR	C,$-32	;B794
 916+ B7B6 2E BA        	LD	L,0BAH
 917+ B7B8 28 DA        	JR	Z,$-36	;B794
 918+ B7BA 2E BC        	LD	L,0BCH
 919+ B7BC 18 D6        	JR	$-40	;B794
 920+ B7BE 0D           	DEC	C
 921+ B7BF C6 B3        	ADD	A,0B3H
 922+ B7C1 6F           	LD	L,A
 923+ B7C2 18 D0        	JR	$-46	;B794
 924+ B7C4              ;
 925+ B7C4              ;    PAGE
 926+ B7C4              ;	===>
 927+ B7C4              TEMOE:
 928+ B7C4              B7C4:
 929+ B7C4 21 D5 F2     	LD	HL,0F2D5H		;"TEMO  "   Eingang
 930+ B7C7 CB C6        	SET	0,(HL)
 931+ B7C9 AF           	XOR	A
 932+ B7CA 32 6A F4     	LD	(0F46AH),A
 933+ B7CD 21 D5 F2     	LD	HL,0F2D5H
 934+ B7D0 CB 9E        	RES	3,(HL)
 935+ B7D2 2A 60 F2     	LD	HL,(V1.SAVPC)
 936+ B7D5 22 C2 F3     	LD	(0F3C2H),HL
 937+ B7D8 EB           	EX	DE,HL
 938+ B7D9 3E FF        	LD	A,0FFH
 939+ B7DB 21 0D F3     	LD	HL,0F30DH
 940+ B7DE 73           	LD	(HL),E
 941+ B7DF 23           	INC	HL
 942+ B7E0 77           	LD	(HL),A
 943+ B7E1 23           	INC	HL
 944+ B7E2 72           	LD	(HL),D
 945+ B7E3 23           	INC	HL
 946+ B7E4 77           	LD	(HL),A
 947+ B7E5 23           	INC	HL
 948+ B7E6 23           	INC	HL
 949+ B7E7 36 00        	LD	(HL),000H
 950+ B7E9 23           	INC	HL
 951+ B7EA 36 04        	LD	(HL),004H
 952+ B7EC 23           	INC	HL
 953+ B7ED 36 07        	LD	(HL),007H
 954+ B7EF 21 35 F3     	LD	HL,0F335H
 955+ B7F2 CB E6        	SET	4,(HL)
 956+ B7F4 2A 54 F2     	LD	HL,(0F254H)
 957+ B7F7 22 C4 F3     	LD	(0F3C4H),HL
 958+ B7FA 21 82 F4     	LD	HL,0F482H
 959+ B7FD 11 88 F4     	LD	DE,0F488H
 960+ B800              ;               B800
 961+ B800 01 18 00     	LD	BC,00018H
 962+ B803 ED B8        	LDDR
 963+ B805 34           	INC	(HL)
 964+ B806 3E 05        	LD	A,005H
 965+ B808 BE           	CP	(HL)
 966+ B809 30 01        	JR	NC,$+03	;B80C
 967+ B80B 77           	LD	(HL),A
 968+ B80C 2A 60 F2     	LD	HL,(V1.SAVPC)
 969+ B80F 22 6B F4     	LD	(0F46BH),HL
 970+ B812 11 6D F4     	LD	DE,0F46DH
 971+ B815 01 B8 F3     	LD	BC,0F3B8H
 972+ B818 3E 04        	LD	A,004H
 973+ B81A F5           	PUSH	AF
 974+ B81B CD 81 E8     	CALL	E881
 975+ B81E 12           	LD	(DE),A
 976+ B81F 02           	LD	(BC),A
 977+ B820 23           	INC	HL
 978+ B821 13           	INC	DE
 979+ B822 03           	INC	BC
 980+ B823 F1           	POP	AF
 981+ B824 3D           	DEC	A
 982+ B825 20 F3        	JR	NZ,$-11	;B81A
 983+ B827 3E 10        	LD	A,010H
 984+ B829 32 6B F2     	LD	(ARET),A
 985+ B82C C3 98 C6     	JP	0C698H
 986+ B82F              ;
 987+ B82F              ;    PAGE
 988+ B82F              ;	===>
 989+ B82F              TEMOF:
 990+ B82F              B82F:
 991+ B82F 3A 6B F2     	LD	A,(ARET)		;"TEMO  "  Fortsetzung
 992+ B832 FE 10        	CP	010H
 993+ B834 C2 4B C3     	JP	NZ,0C34BH
 994+ B837 18 94        	JR	$-106	;B7CD
 995+ B839 21 35 F3     	LD	HL,0F335H
 996+ B83C CB A6        	RES	4,(HL)
 997+ B83E ED 5B C2 F3  	LD	DE,(0F3C2H)
 998+ B842 21 96 F2     	LD	HL,0F296H
 999+ B845 06 06        	LD	B,006H
1000+ B847 23           	INC	HL
1001+ B848 4E           	LD	C,(HL)
1002+ B849 23           	INC	HL
1003+ B84A 7E           	LD	A,(HL)
1004+ B84B 23           	INC	HL
1005+ B84C BB           	CP	E
1006+ B84D 20 04        	JR	NZ,$+06	;B853
1007+ B84F 79           	LD	A,C
1008+ B850 BA           	CP	D
1009+ B851 28 11        	JR	Z,$+19	;B864
1010+ B853 23           	INC	HL
1011+ B854 10 F1        	DJNZ	$-13	;B847
1012+ B856 00           	NOP
1013+ B857 CD F9 EF     	CALL	0EFF9H
1014+ B85A 28 1C        	JR	Z,$+30	;B878
1015+ B85C 7E           	LD	A,(HL)
1016+ B85D E6 03        	AND	003H
1017+ B85F 20 19        	JR	NZ,$+27	;B87A
1018+ B861 C3 D2 B7     	JP	0B7D2H
1019+ B864 7E           	LD	A,(HL)
1020+ B865 FE 52        	CP	052H
1021+ B867 CA 7F C6     	JP	Z,0C67FH
1022+ B86A FE 34        	CP	034H
1023+ B86C 30 E5        	JR	NC,$-25	;B853
1024+ B86E 21 D5 F2     	LD	HL,0F2D5H
1025+ B871 CB 4E        	BIT	1,(HL)
1026+ B873 28 02        	JR	Z,$+04	;B877
1027+ B875 CB D7        	SET	2,A
1028+ B877 77           	LD	(HL),A
1029+ B878 CB DE        	SET	3,(HL)
1030+ B87A CD 80 B5     	CALL	0B580H
1031+ B87D 3A C0 F3     	LD	A,(0F3C0H)
1032+ B880 FE 02        	CP	002H
1033+ B882 DA 38 B9     	JP	C,0B938H
1034+ B885 07           	RLCA
1035+ B886 4F           	LD	C,A
1036+ B887 06 00        	LD	B,000H
1037+ B889 21 AC B8     	LD	HL,0B8ACH
1038+ B88C 09           	ADD	HL,BC
1039+ B88D 7E           	LD	A,(HL)
1040+ B88E 23           	INC	HL
1041+ B88F 66           	LD	H,(HL)
1042+ B890 6F           	LD	L,A
1043+ B891 01 14 B9     	LD	BC,0B914H
1044+ B894 C5           	PUSH	BC
1045+ B895 E5           	PUSH	HL
1046+ B896 C9           	RET
1047+ B897              ;
1048+ B897              B897:
1049+ B897 0A           	LD	A,(BC)
1050+ B898 16 2B        	LD	D,02BH
1051+ B89A 06 00        	LD	B,000H
1052+ B89C 4F           	LD	C,A
1053+ B89D CB 7F        	BIT	7,A
1054+ B89F 28 05        	JR	Z,$+07	;B8A6
1055+ B8A1 16 2D        	LD	D,02DH
1056+ B8A3 05           	DEC	B
1057+ B8A4 ED 44        	NEG
1058+ B8A6 F5           	PUSH	AF
1059+ B8A7 09           	ADD	HL,BC
1060+ B8A8 7A           	LD	A,D
1061+ B8A9 11 E6 F3     	LD	DE,0F3E6H
1062+ B8AC 12           	LD	(DE),A
1063+ B8AD 13           	INC	DE
1064+ B8AE F1           	POP	AF
1065+ B8AF C9           	RET
1066+ B8B0              ;
1067+ B8B0 C8           	RET	Z
1068+ B8B1 B8           	CP	B
1069+ B8B2              	; CALL	C,0A0B8H	; OLD !!!
1070+ B8B2 DC B8 E0     	CALL	C,0E0B8H	; NEU !!!
1071+ B8B5 B8           	CP	B
1072+ B8B6 E4 B8 E8     	CALL	PO,0E8B8H
1073+ B8B9 B8           	CP	B
1074+ B8BA F4 B8 F8     	CALL	P,0F8B8H
1075+ B8BD B8           	CP	B
1076+ B8BE FC B8 E8     	CALL	M,0E8B8H
1077+ B8C1 B8           	CP	B
1078+ B8C2 00           	NOP
1079+ B8C3 B9           	CP	C
1080+ B8C4 0B           	DEC	BC
1081+ B8C5 B9           	CP	C
1082+ B8C6 10 B9        	DJNZ	$-69	;B881
1083+ B8C8 2A C2 F3     	LD	HL,(0F3C2H)
1084+ B8CB 23           	INC	HL
1085+ B8CC 23           	INC	HL
1086+ B8CD 01 B9 F3     	LD	BC,0F3B9H
1087+ B8D0 CD 97 B8     	CALL	0B897H
1088+ B8D3 28 02        	JR	Z,$+04	;B8D7
1089+ B8D5 D6 04        	SUB	004H
1090+ B8D7 C6 02        	ADD	A,002H
1091+ B8D9 C3 96 C3     	JP	0C396H
1092+ B8DC 2A 54 F2     	LD	HL,(0F254H)
1093+ B8DF C9           	RET
1094+ B8E0              ;
1095+ B8E0              B8E0:
1096+ B8E0 2A 5C F2     	LD	HL,(0F25CH)
1097+ B8E3 C9           	RET
1098+ B8E4              ;
1099+ B8E4 2A 5A F2     	LD	HL,(0F25AH)
1100+ B8E7 C9           	RET
1101+ B8E8              ;
1102+ B8E8 2A B9 F3     	LD	HL,(0F3B9H)
1103+ B8EB 3A C1 F3     	LD	A,(0F3C1H)
1104+ B8EE B7           	OR	A
1105+ B8EF C8           	RET	Z
1106+ B8F0 2A BA F3     	LD	HL,(0F3BAH)
1107+ B8F3 C9           	RET
1108+ B8F4              ;
1109+ B8F4 2A 5E F2     	LD	HL,(0F25EH)
1110+ B8F7 C9           	RET
1111+ B8F8              ;
1112+ B8F8 2A 58 F2     	LD	HL,(0F258H)
1113+ B8FB C9           	RET
1114+ B8FC              ;
1115+ B8FC 2A 56 F2     	LD	HL,(0F256H)
1116+ B8FF C9           	RET
1117+ B900              ;
1118+ B900 2A 5C F2     	LD	HL,(0F25CH)
1119+ B903 01 BA F3     	LD	BC,0F3BAH
1120+ B906 CD 97 B8     	CALL	0B897H
1121+ B909 18 CE        	JR	$-48	;B8D9
1122+ B90B 2A 5A F2     	LD	HL,(0F25AH)
1123+ B90E 18 F3        	JR	$-11	;B903
1124+ B910 2A C4 F3     	LD	HL,(0F3C4H)
1125+ B913 C9           	RET
1126+ B914              ;
1127+ B914 44           	LD	B,H
1128+ B915 4D           	LD	C,L
1129+ B916 11 DD F3     	LD	DE,0F3DDH
1130+ B919 D5           	PUSH	DE
1131+ B91A 7C           	LD	A,H
1132+ B91B CD 96 C3     	CALL	0C396H
1133+ B91E 7D           	LD	A,L
1134+ B91F CD 96 C3     	CALL	0C396H
1135+ B922 E1           	POP	HL
1136+ B923 2B           	DEC	HL
1137+ B924 3A C0 F3     	LD	A,(0F3C0H)
1138+ B927 FE 07        	CP	007H
1139+ B929 38 0D        	JR	C,$+15	;B938
1140+ B92B 3E 29        	LD	A,029H
1141+ B92D 12           	LD	(DE),A
1142+ B92E 3D           	DEC	A
1143+ B92F 77           	LD	(HL),A
1144+ B930 13           	INC	DE
1145+ B931 13           	INC	DE
1146+ B932 CD 87 E8     	CALL	E887
1147+ B935 CD 96 C3     	CALL	0C396H
1148+ B938 3A D5 F2     	LD	A,(0F2D5H)
1149+ B93B CB 4F        	BIT	1,A
1150+ B93D CA 67 C2     	JP	Z,VB.LAZR
1151+ B940 CB 57        	BIT	2,A
1152+ B942 20 11        	JR	NZ,$+19	;B955
1153+ B944 3E 0D        	LD	A,00DH
1154+ B946 01 63 00     	LD	BC,00063H
1155+ B949 21 40 B1     	LD	HL,0B140H
1156+ B94C 11 4C 00     	LD	DE,0004CH
1157+ B94F CD 6E CA     	CALL	0CA6EH
1158+ B952 B7           	OR	A
1159+ B953 20 60        	JR	NZ,$+98	;B9B5
1160+ B955 21 6E B3     	LD	HL,0B36EH
1161+ B958 11 EA F3     	LD	DE,0F3EAH
1162+ B95B 3A 64 F2     	LD	A,(V1.xI)
1163+ B95E 12           	LD	(DE),A
1164+ B95F 13           	INC	DE
1165+ B960 01 05 00     	LD	BC,00005H
1166+ B963 ED B0        	LDIR
1167+ B965 01 63 F2     	LD	BC,V1.IMi
1168+ B968 0A           	LD	A,(BC)
1169+ B969 CD 9D C3     	CALL	0C39DH
1170+ B96C 13           	INC	DE
1171+ B96D 13           	INC	DE
1172+ B96E 0B           	DEC	BC
1173+ B96F CD 95 C3     	CALL	0C395H
1174+ B972 0B           	DEC	BC
1175+ B973 0B           	DEC	BC
1176+ B974 26 07        	LD	H,007H
1177+ B976 0B           	DEC	BC
1178+ B977 13           	INC	DE
1179+ B978 CD 95 C3     	CALL	0C395H
1180+ B97B 0B           	DEC	BC
1181+ B97C              	; CALL	0C315H	; OLD !!!
1182+ B97C CD 95 C3     	CALL	0C395H	; NEU !!!
1183+ B97F 25           	DEC	H
1184+ B980 20 F4        	JR	NZ,$-10	;B976
1185+ B982 13           	INC	DE
1186+ B983 EB           	EX	DE,HL
1187+ B984 0A           	LD	A,(BC)
1188+ B985 0E 98        	LD	C,098H
1189+ B987 36 30        	LD	(HL),030H
1190+ B989 07           	RLCA
1191+ B98A              	; JR	NZ,$+04	;B98E	; OLD !!!
1192+ B98A 30 02        	JR	NC,$+04	;B98E
1193+ B98C 36 31        	LD	(HL),031H
1194+ B98E 23           	INC	HL
1195+ B98F 23           	INC	HL
1196+ B990 23           	INC	HL
1197+ B991 CB 21        	SLA	C
1198+ B993 38 F2        	JR	C,$-12	;B987
1199+ B995 07           	RLCA
1200+ B996 20 EF        	JR	NZ,$-15	;B987
1201+ B998 21 C9 F3     	LD	HL,0F3C9H
1202+ B99B 11 36 F3     	LD	DE,0F336H
1203+ B99E 01 60 00     	LD	BC,00060H
1204+ B9A1 D5           	PUSH	DE
1205+ B9A2 ED B0        	LDIR
1206+ B9A4 3E 0A        	LD	A,00AH
1207+ B9A6 12           	LD	(DE),A
1208+ B9A7 E1           	POP	HL
1209+ B9A8 0E 61        	LD	C,061H
1210+ B9AA 3E 0D        	LD	A,00DH
1211+ B9AC 11 4C 00     	LD	DE,004CH
1212+ B9AF CD 6E CA     	CALL	0CA6EH
1213+ B9B2 B7           	OR	A
1214+ B9B3 28 08        	JR	Z,$+10	;B9BD
1215+ B9B5 3E 02        	LD	A,002H
1216+ B9B7 32 6B F2     	LD	(ARET),A
1217+ B9BA C3 67 C2     	JP	VB.LAZR
1218+ B9BD 21 D5 F2     	LD	HL,0F2D5H
1219+ B9C0 CB D6        	SET	2,(HL)
1220+ B9C2 18 F6        	JR	$-08	;B9BA
1221+ B9C4 21 41 B1     	LD	HL,0B141H
1222+ B9C7 E5           	PUSH	HL
1223+ B9C8 01 20 0B     	LD	BC,00B20H
1224+ B9CB 11 20 00     	LD	DE,00020H
1225+ B9CE CD 85 C1     	CALL	0C185H
1226+ B9D1 E1           	POP	HL
1227+ B9D2 06 04        	LD	B,004H
1228+ B9D4 1E 0D        	LD	E,00DH
1229+ B9D6 CD 85 C1     	CALL	0C185H
1230+ B9D9 21 6B F4     	LD	HL,0F46BH
1231+ B9DC 06 0D        	LD	B,00DH
1232+ B9DE CD 01 BA     	CALL	0BA01H
1233+ B9E1 3E 04        	LD	A,004H
1234+ B9E3 32 DB F3     	LD	(0F3DBH),A
1235+ B9E6 06 09        	LD	B,009H
1236+ B9E8 3A 6A F4     	LD	A,(0F46AH)
1237+ B9EB 3D           	DEC	A
1238+ B9EC C4 01 BA     	CALL	NZ,0BA01H
1239+ B9EF 20 FA        	JR	NZ,$-04	;B9EB
1240+ B9F1 3E 20        	LD	A,020H
1241+ B9F3 32 DB F3     	LD	(0F3DBH),A
1242+ B9F6 3A D5 F2     	LD	A,(0F2D5H)
1243+ B9F9 E6 09        	AND	009H
1244+ B9FB C2 0C C3     	JP	NZ,0C30CH
1245+ B9FE C3 CD B7     	JP	0B7CDH
1246+ BA01              ;
1247+ BA01              BA01:
1248+ BA01 F5           	PUSH	AF
1249+ BA02 C5           	PUSH	BC
1250+ BA03 5E           	LD	E,(HL)
1251+ BA04 23           	INC	HL
1252+ BA05 56           	LD	D,(HL)
1253+ BA06 ED 53 C2 F3  	LD	(0F3C2H),DE
1254+ BA0A 23           	INC	HL
1255+ BA0B 11 B8 F3     	LD	DE,0F3B8H
1256+ BA0E 01 04 00     	LD	BC,00004H
1257+ BA11 ED B0        	LDIR
1258+ BA13 E5           	PUSH	HL
1259+ BA14 06 12        	LD	B,012H
1260+ BA16 CD 82 B5     	CALL	0B582H
1261+ BA19 E1           	POP	HL
1262+ BA1A C1           	POP	BC
1263+ BA1B E5           	PUSH	HL
1264+ BA1C 11 20 00     	LD	DE,00020H
1265+ BA1F 21 C9 F3     	LD	HL,0F3C9H
1266+ BA22 CD 85 C1     	CALL	0C185H
1267+ BA25 05           	DEC	B
1268+ BA26 05           	DEC	B
1269+ BA27 E1           	POP	HL
1270+ BA28 F1           	POP	AF
1271+ BA29 C9           	RET
1272+ BA2A              ;
1273+ BA2A              ;    PAGE
1274+ BA2A              BA2A:
1275+ BA2A 22 F2 22     	LD	(022F2H),HL		;PN SD   BRK
1276+ BA2D F2 22 F2     	JP	P,0F222H
1277+ BA30 25           	DEC	H
1278+ BA31 F2 22 F2     	JP	P,0F222H
1279+ BA34 26 F2        	LD	H,0F2H
1280+ BA36 21 E5 F2     	LD	HL,0F2E5H
1281+ BA39 11 15 F3     	LD	DE,0F315H
1282+ BA3C 01 20 00     	LD	BC,00020H
1283+ BA3F C5           	PUSH	BC
1284+ BA40 D5           	PUSH	DE
1285+ BA41 E5           	PUSH	HL
1286+ BA42 ED B0        	LDIR
1287+ BA44 0E 04        	LD	C,004H
1288+ BA46 3A 35 F3     	LD	A,(0F335H)
1289+ BA49 D1           	POP	DE
1290+ BA4A D5           	PUSH	DE
1291+ BA4B C5           	PUSH	BC
1292+ BA4C 21 05 F3     	LD	HL,0F305H
1293+ BA4F 0E 08        	LD	C,008H
1294+ BA51 0F           	RRCA
1295+ BA52 30 02        	JR	NC,$+04	;BA56
1296+ BA54 62           	LD	H,D
1297+ BA55 6B           	LD	L,E
1298+ BA56 ED B0        	LDIR
1299+ BA58 C1           	POP	BC
1300+ BA59 0D           	DEC	C
1301+ BA5A 20 EF        	JR	NZ,$-15	;BA4B
1302+ BA5C 0F           	RRCA
1303+ BA5D 30 0A        	JR	NC,$+12	;BA69
1304+ BA5F 21 0D F3     	LD	HL,0F30DH
1305+ BA62 11 FD F2     	LD	DE,0F2FDH
1306+ BA65 0E 08        	LD	C,008H
1307+ BA67 ED B0        	LDIR
1308+ BA69 E1           	POP	HL
1309+ BA6A E5           	PUSH	HL
1310+ BA6B 0E F4        	LD	C,0F4H
1311+ BA6D 06 00        	LD	B,000H
1312+ BA6F 16 00        	LD	D,000H
1313+ BA71 C5           	PUSH	BC
1314+ BA72 E5           	PUSH	HL
1315+ BA73 0E 04        	LD	C,004H
1316+ BA75 7E           	LD	A,(HL)
1317+ BA76 F5           	PUSH	AF
1318+ BA77 23           	INC	HL
1319+ BA78 A6           	AND	(HL)
1320+ BA79 E6 0F        	AND	00FH
1321+ BA7B 5F           	LD	E,A
1322+ BA7C 78           	LD	A,B
1323+ BA7D A6           	AND	(HL)
1324+ BA7E E6 0F        	AND	00FH
1325+ BA80 BB           	CP	E
1326+ BA81 20 02        	JR	NZ,$+04	;BA85
1327+ BA83 CB E2        	SET	4,D
1328+ BA85 F1           	POP	AF
1329+ BA86 A6           	AND	(HL)
1330+ BA87 E6 F0        	AND	0F0H
1331+ BA89 5F           	LD	E,A
1332+ BA8A 78           	LD	A,B
1333+ BA8B A6           	AND	(HL)
1334+ BA8C E6 F0        	AND	0F0H
1335+ BA8E BB           	CP	E
1336+ BA8F 20 02        	JR	NZ,$+04	;BA93
1337+ BA91 CB C2        	SET	0,D
1338+ BA93 CB 0A        	RRC	D
1339+ BA95 C5           	PUSH	BC
1340+ BA96 01 07 00     	LD	BC,00007H
1341+ BA99 09           	ADD	HL,BC
1342+ BA9A C1           	POP	BC
1343+ BA9B 0D           	DEC	C
1344+ BA9C 20 D7        	JR	NZ,$-39	;BA75
1345+ BA9E E1           	POP	HL
1346+ BA9F C1           	POP	BC
1347+ BAA0 7A           	LD	A,D
1348+ BAA1              	; OUT	(C),A	; OLD !!!
1349+ BAA1 00           	NOP
1350+ BAA2 00           	NOP
1351+ BAA3 78           	LD	A,B
1352+ BAA4 C6 11        	ADD	A,011H
1353+ BAA6 47           	LD	B,A
1354+ BAA7 30 C6        	JR	NC,$-56	;BA6F
1355+ BAA9 23           	INC	HL
1356+ BAAA 23           	INC	HL
1357+ BAAB 79           	LD	A,C
1358+ BAAC C6 01        	ADD	A,001H
1359+ BAAE 4F           	LD	C,A
1360+ BAAF FE F8        	CP	0F8H
1361+ BAB1 20 BA        	JR	NZ,$-68	;BA6D
1362+ BAB3 D1           	POP	DE
1363+ BAB4 E1           	POP	HL
1364+ BAB5 C1           	POP	BC
1365+ BAB6 ED B0        	LDIR
1366+ BAB8 C9           	RET
1367+ BAB9              ;
1368+ BAB9              ;    PAGE
1369+ BAB9              ;	===>
1370+ BAB9              BRK:
1371+ BAB9              BAB9:
1372+ BAB9 CD D3 C1     	CALL	0C1D3H		;"BRK   "
1373+ BABC CD 89 C3     	CALL	0C389H
1374+ BABF 01 20 04     	LD	BC,00420H
1375+ BAC2 21 97 F2     	LD	HL,0F297H
1376+ BAC5 3E 31        	LD	A,031H
1377+ BAC7 11 3D F3     	LD	DE,0F33DH
1378+ BACA 12           	LD	(DE),A
1379+ BACB F5           	PUSH	AF
1380+ BACC C5           	PUSH	BC
1381+ BACD 3E 2E        	LD	A,02EH
1382+ BACF 13           	INC	DE
1383+ BAD0 12           	LD	(DE),A
1384+ BAD1 46           	LD	B,(HL)
1385+ BAD2 23           	INC	HL
1386+ BAD3 4E           	LD	C,(HL)
1387+ BAD4 23           	INC	HL
1388+ BAD5 7E           	LD	A,(HL)
1389+ BAD6 23           	INC	HL
1390+ BAD7 FE FF        	CP	0FFH
1391+ BAD9 28 1E        	JR	Z,$+32	;BAF9
1392+ BADB F5           	PUSH	AF
1393+ BADC 11 41 F3     	LD	DE,0F341H
1394+ BADF 78           	LD	A,B
1395+ BAE0 CD 96 C3     	CALL	0C396H
1396+ BAE3 79           	LD	A,C
1397+ BAE4 CD A8 C3     	CALL	0C3A8H
1398+ BAE7 03           	INC	BC
1399+ BAE8 13           	INC	DE
1400+ BAE9 13           	INC	DE
1401+ BAEA F1           	POP	AF
1402+ BAEB 12           	LD	(DE),A
1403+ BAEC 11 4B F3     	LD	DE,0F34BH
1404+ BAEF FE 40        	CP	040H
1405+ BAF1 38 06        	JR	C,$+08	;BAF9
1406+ BAF3 CD 87 E8     	CALL	E887
1407+ BAF6 CD A8 C3     	CALL	0C3A8H
1408+ BAF9 23           	INC	HL
1409+ BAFA C1           	POP	BC
1410+ BAFB E5           	PUSH	HL
1411+ BAFC CD 6C C1     	CALL	0C16CH
1412+ BAFF E1           	POP	HL
1413+ BB00 F1           	POP	AF
1414+ BB01 3C           	INC	A
1415+ BB02 FE 37        	CP	037H
1416+ BB04 38 C1        	JR	C,$-61	;BAC7
1417+ BB06 01 27 0B     	LD	BC,00B27H
1418+ BB09 21 A3 B1     	LD	HL,0B1A3H
1419+ BB0C 11 11 00     	LD	DE,00011H
1420+ BB0F CD 85 C1     	CALL	0C185H
1421+ BB12 01 25 0D     	LD	BC,00D25H
1422+ BB15 CD 10 C7     	CALL	0C710H
1423+ BB18 21 58 B0     	LD	HL,0B058H
1424+ BB1B CD FC C6     	CALL	0C6FCH
1425+ BB1E FD 21 2A BA  	LD	IY,0BA2AH
1426+ BB22 AF           	XOR	A
1427+ BB23 CD 21 C7     	CALL	0C721H
1428+ BB26 FE 1F        	CP	01FH
1429+ BB28 CA F4 BC     	JP	Z,0BCF4H
1430+ BB2B FE 1E        	CP	01EH
1431+ BB2D F5           	PUSH	AF
1432+ BB2E 3A 22 F2     	LD	A,(0F222H)
1433+ BB31 FE 20        	CP	020H
1434+ BB33 20 24        	JR	NZ,$+38	;BB59
1435+ BB35 21 97 F2     	LD	HL,0F297H
1436+ BB38 F1           	POP	AF
1437+ BB39 20 0A        	JR	NZ,$+12	;BB45
1438+ BB3B 06 18        	LD	B,018H
1439+ BB3D 36 FF        	LD	(HL),0FFH
1440+ BB3F 23           	INC	HL
1441+ BB40 10 FB        	DJNZ	$-03	;BB3D
1442+ BB42 C3 B9 BA     	JP	0BAB9H
1443+ BB45              ;
1444+ BB45              ;    PAGE
1445+ BB45              BB45:
1446+ BB45 F5           	PUSH	AF
1447+ BB46 01 00 06     	LD	BC,00600H
1448+ BB49 0C           	INC	C
1449+ BB4A 23           	INC	HL
1450+ BB4B 23           	INC	HL
1451+ BB4C 7E           	LD	A,(HL)
1452+ BB4D FE FF        	CP	0FFH
1453+ BB4F 79           	LD	A,C
1454+ BB50 CA B3 BB     	JP	Z,0BBB3H
1455+ BB53 23           	INC	HL
1456+ BB54 23           	INC	HL
1457+ BB55 10 F2        	DJNZ	$-12	;BB49
1458+ BB57 18 15        	JR	$+23	;BB6E
1459+ BB59 FE 31        	CP	031H
1460+ BB5B 38 11        	JR	C,$+19	;BB6E
1461+ BB5D FE 37        	CP	037H
1462+ BB5F 38 4D        	JR	C,$+79	;BBAE
1463+ BB61 FE 41        	CP	041H
1464+ BB63 38 09        	JR	C,$+11	;BB6E
1465+ BB65 FE 45        	CP	045H
1466+ BB67 DA 1E BC     	JP	C,0BC1EH
1467+ BB6A FE 53        	CP	053H
1468+ BB6C 28 03        	JR	Z,$+05	;BB71
1469+ BB6E F1           	POP	AF
1470+ BB6F 18 AD        	JR	$-81	;BB1E
1471+ BB71 F1           	POP	AF
1472+ BB72 28 AA        	JR	Z,$-84	;BB1E
1473+ BB74 21 AD F0     	LD	HL,0F0ADH
1474+ BB77 CD FC C6     	CALL	0C6FCH
1475+ BB7A FD 21 2E BA  	LD	IY,0BA2EH
1476+ BB7E CD B3 C7     	CALL	0C7B3H
1477+ BB81 CA F4 BC     	JP	Z,0BCF4H
1478+ BB84 AF           	XOR	A
1479+ BB85 06 04        	LD	B,004H
1480+ BB87 21 22 F2     	LD	HL,0F222H
1481+ BB8A 11 40 04     	LD	DE,00440H
1482+ BB8D 0E 80        	LD	C,080H
1483+ BB8F F5           	PUSH	AF
1484+ BB90 7E           	LD	A,(HL)
1485+ BB91 1C           	INC	E
1486+ BB92 CB 01        	RLC	C
1487+ BB94 BB           	CP	E
1488+ BB95 28 0C        	JR	Z,$+14	;BBA3
1489+ BB97 15           	DEC	D
1490+ BB98 20 F7        	JR	NZ,$-07	;BB91
1491+ BB9A FE 20        	CP	020H
1492+ BB9C 0E 00        	LD	C,000H
1493+ BB9E 28 03        	JR	Z,$+05	;BBA3
1494+ BBA0 F1           	POP	AF
1495+ BBA1 18 D7        	JR	$-39	;BB7A
1496+ BBA3 F1           	POP	AF
1497+ BBA4 B1           	OR	C
1498+ BBA5 23           	INC	HL
1499+ BBA6 10 E2        	DJNZ	$-28	;BB8A
1500+ BBA8 32 35 F3     	LD	(0F335H),A
1501+ BBAB C3 B9 BA     	JP	0BAB9H
1502+ BBAE 3A 22 F2     	LD	A,(0F222H)
1503+ BBB1 E6 07        	AND	007H
1504+ BBB3 21 93 F2     	LD	HL,0F293H
1505+ BBB6 01 04 00     	LD	BC,00004H
1506+ BBB9 09           	ADD	HL,BC
1507+ BBBA 3D           	DEC	A
1508+ BBBB 20 FC        	JR	NZ,$-02	;BBB9
1509+ BBBD 41           	LD	B,C
1510+ BBBE F1           	POP	AF
1511+ BBBF CA 3D BB     	JP	Z,0BB3DH
1512+ BBC2 01 2B 0D     	LD	BC,00D2BH
1513+ BBC5 CD 10 C7     	CALL	0C710H
1514+ BBC8 FD 21 32 BA  	LD	IY,0BA32H
1515+ BBCC CD 75 C8     	CALL	0C875H
1516+ BBCF CA F4 BC     	JP	Z,0BCF4H
1517+ BBD2              BBD2:
1518+ BBD2 D5           	PUSH	DE
1519+ BBD3 01 32 0D     	LD	BC,00D32H
1520+ BBD6 CD 10 C7     	CALL	0C710H
1521+ BBD9 FD 21 2A BA  	LD	IY,0BA2AH
1522+ BBDD CD B3 C7     	CALL	0C7B3H
1523+ BBE0 CA F4 BC     	JP	Z,0BCF4H
1524+ BBE3 3A 22 F2     	LD	A,(0F222H)
1525+ BBE6 FE 30        	CP	030H
1526+ BBE8 38 E9        	JR	C,$-21	;BBD3
1527+ BBEA FE 34        	CP	034H
1528+ BBEC D1           	POP	DE
1529+ BBED 4F           	LD	C,A
1530+ BBEE 38 26        	JR	C,BC16	;$+40
1531+ BBF0 FE 52        	CP	052H
1532+ BBF2 28 22        	JR	Z,BC16	;$+36
1533+ BBF4 FE 54        	CP	054H
1534+ BBF6 28 04        	JR	Z,BBFC	;$+06
1535+ BBF8 FE 42        	CP	042H
1536+ BBFA 20 D6        	JR	NZ,BBD2	;$-40
1537+ BBFC              BBFC:
1538+ BBFC EB           	EX	DE,HL
1539+ BBFD CD 81 E8     	CALL	E881
1540+ BC00              ;
1541+ BC00              BC00:
1542+ BC00 47           	LD	B,A
1543+ BC01 2F           	CPL
1544+ BC02 CD C9 EF     	CALL	0EFC9H
1545+ BC05 CD CF EF     	CALL	0EFCFH
1546+ BC08 CD 7B E8     	CALL	E87B
1547+ BC0B EB           	EX	DE,HL
1548+ BC0C 28 08        	JR	Z,$+10	;BC16
1549+ BC0E 3E 06        	LD	A,006H
1550+ BC10 CD A7 C8     	CALL	0C8A7H
1551+ BC13 C3 12 BB     	JP	0BB12H
1552+ BC16              ;
1553+ BC16              BC16:
1554+ BC16 72           	LD	(HL),D
1555+ BC17 23           	INC	HL
1556+ BC18 73           	LD	(HL),E
1557+ BC19 23           	INC	HL
1558+ BC1A 71           	LD	(HL),C
1559+ BC1B C3 B9 BA     	JP	0BAB9H
1560+ BC1E F1           	POP	AF
1561+ BC1F CA 1E BB     	JP	Z,0BB1EH
1562+ BC22 CD 89 C3     	CALL	0C389H
1563+ BC25 21 E8 B3     	LD	HL,0B3E8H
1564+ BC28 11 3F F3     	LD	DE,0F33FH
1565+ BC2B 01 0C 00     	LD	BC,0000CH
1566+ BC2E ED B0        	LDIR
1567+ BC30 3A 22 F2     	LD	A,(0F222H)
1568+ BC33 12           	LD	(DE),A
1569+ BC34 F5           	PUSH	AF
1570+ BC35 01 20 04     	LD	BC,00420H
1571+ BC38 CD 69 C1     	CALL	0C169H
1572+ BC3B 21 1A F1     	LD	HL,0F11AH
1573+ BC3E 01 08 00     	LD	BC,00008H
1574+ BC41 ED B0        	LDIR
1575+ BC43 01 2E 06     	LD	BC,0062EH
1576+ BC46 CD 6C C1     	CALL	0C16CH
1577+ BC49 21 E3 F2     	LD	HL,0F2E3H
1578+ BC4C 01 08 00     	LD	BC,00008H
1579+ BC4F F1           	POP	AF
1580+ BC50 E6 07        	AND	007H
1581+ BC52 09           	ADD	HL,BC
1582+ BC53 3D           	DEC	A
1583+ BC54 20 FC        	JR	NZ,$-02	;BC52
1584+ BC56 7E           	LD	A,(HL)
1585+ BC57 EE FB        	XOR	0FBH
1586+ BC59 77           	LD	(HL),A
1587+ BC5A 11 2A F4     	LD	DE,0F42AH
1588+ BC5D 3E 04        	LD	A,004H
1589+ BC5F F5           	PUSH	AF
1590+ BC60 01 58 08     	LD	BC,00858H
1591+ BC63 3E 30        	LD	A,030H
1592+ BC65 CB 06        	RLC	(HL)
1593+ BC67 30 01        	JR	NC,$+03	;BC6A
1594+ BC69 3C           	INC	A
1595+ BC6A 23           	INC	HL
1596+ BC6B CB 06        	RLC	(HL)
1597+ BC6D 38 01        	JR	C,$+03	;BC70
1598+ BC6F 79           	LD	A,C
1599+ BC70 2B           	DEC	HL
1600+ BC71 12           	LD	(DE),A
1601+ BC72 13           	INC	DE
1602+ BC73 10 EE        	DJNZ	$-16	;BC63
1603+ BC75 F1           	POP	AF
1604+ BC76 3D           	DEC	A
1605+ BC77 28 04        	JR	Z,$+06	;BC7D
1606+ BC79 2B           	DEC	HL
1607+ BC7A 2B           	DEC	HL
1608+ BC7B 18 E2        	JR	$-28	;BC5F
1609+ BC7D E5           	PUSH	HL
1610+ BC7E 01 00 00     	LD	BC,00000H
1611+ BC81 21 2A F4     	LD	HL,0F42AH
1612+ BC84 09           	ADD	HL,BC
1613+ BC85 7E           	LD	A,(HL)
1614+ BC86 EE 80        	XOR	080H
1615+ BC88 77           	LD	(HL),A
1616+ BC89 C5           	PUSH	BC
1617+ BC8A 01 20 07     	LD	BC,00720H
1618+ BC8D 21 06 F1     	LD	HL,0F106H
1619+ BC90 11 2A F4     	LD	DE,0F42AH
1620+ BC93 C5           	PUSH	BC
1621+ BC94 D5           	PUSH	DE
1622+ BC95 11 3D F3     	LD	DE,0F33DH
1623+ BC98 01 05 00     	LD	BC,00005H
1624+ BC9B ED B0        	LDIR
1625+ BC9D EB           	EX	DE,HL
1626+ BC9E E1           	POP	HL
1627+ BC9F D5           	PUSH	DE
1628+ BCA0 11 46 F3     	LD	DE,0F346H
1629+ BCA3 01 08 00     	LD	BC,00008H
1630+ BCA6 ED B0        	LDIR
1631+ BCA8 EB           	EX	DE,HL
1632+ BCA9 E1           	POP	HL
1633+ BCAA C1           	POP	BC
1634+ BCAB CD 6C C1     	CALL	0C16CH
1635+ BCAE 78           	LD	A,B
1636+ BCAF FE 0B        	CP	00BH
1637+ BCB1 38 E0        	JR	C,$-30	;BC93
1638+ BCB3 CD 1B C8     	CALL	X0.TSCL0	;0C81BH
1639+ BCB6 FE 1F        	CP	01FH
1640+ BCB8 20 7F        	JR	NZ,$+129
1641+ BCBA C1           	POP	BC
1642+ BCBB E1           	POP	HL
1643+ BCBC F5           	PUSH	AF
1644+ BCBD 11 4A F4     	LD	DE,0F44AH
1645+ BCC0 0E 04        	LD	C,004H
1646+ BCC2 E5           	PUSH	HL
1647+ BCC3 EB           	EX	DE,HL
1648+ BCC4 06 08        	LD	B,008H
1649+ BCC6 11 00 00     	LD	DE,00000H
1650+ BCC9 2B           	DEC	HL
1651+ BCCA 7E           	LD	A,(HL)
1652+ BCCB E6 7F        	AND	07FH
1653+ BCCD FE 58        	CP	058H
1654+ BCCF 28 06        	JR	Z,$+08	;BCD7
1655+ BCD1 FE 30        	CP	030H
1656+ BCD3 28 01        	JR	Z,$+03	;BCD6
1657+ BCD5 14           	INC	D
1658+ BCD6 1C           	INC	E
1659+ BCD7 CB 0A        	RRC	D
1660+ BCD9 CB 0B        	RRC	E
1661+ BCDB 10 EC        	DJNZ	$-18	;BCC9
1662+ BCDD 42           	LD	B,D
1663+ BCDE 7B           	LD	A,E
1664+ BCDF EB           	EX	DE,HL
1665+ BCE0 E1           	POP	HL
1666+ BCE1 70           	LD	(HL),B
1667+ BCE2 23           	INC	HL
1668+ BCE3 77           	LD	(HL),A
1669+ BCE4 23           	INC	HL
1670+ BCE5 0D           	DEC	C
1671+ BCE6 20 DA        	JR	NZ,$-36	;BCC2
1672+ BCE8 2B           	DEC	HL
1673+ BCE9 2B           	DEC	HL
1674+ BCEA 7E           	LD	A,(HL)
1675+ BCEB EE FB        	XOR	0FBH
1676+ BCED 77           	LD	(HL),A
1677+ BCEE F1           	POP	AF
1678+ BCEF FE 1F        	CP	01FH
1679+ BCF1 C2 B9 BA     	JP	NZ,0BAB9H
1680+ BCF4 21 99 F2     	LD	HL,0F299H
1681+ BCF7 06 06        	LD	B,006H
1682+ BCF9 7E           	LD	A,(HL)
1683+ BCFA 23           	INC	HL
1684+ BCFB 23           	INC	HL
1685+ BCFC 23           	INC	HL
1686+ BCFD 23           	INC	HL
1687+ BCFE FE 34        	CP	034H
1688+ BD00 30 04        	JR	NC,$+06	;BD06
1689+ BD02 CB 4F        	BIT	1,A
1690+ BD04 20 03        	JR	NZ,$+05	;BD09
1691+ BD06 AF           	XOR	A
1692+ BD07 10 F0        	DJNZ	$-14	;BCF9
1693+ BD09 21 C6 F3     	LD	HL,0F3C6H
1694+ BD0C CB 46        	BIT	0,(HL)
1695+ BD0E 1E 4C        	LD	E,04CH
1696+ BD10 20 16        	JR	NZ,$+24	;BD28
1697+ BD12 B7           	OR	A
1698+ BD13 28 10        	JR	Z,$+18	;BD25
1699+ BD15 E5           	PUSH	HL
1700+ BD16 3E 03        	LD	A,003H
1701+ BD18 21 59 C1     	LD	HL,0C159H
1702+ BD1B CD 6E CA     	CALL	0CA6EH
1703+ BD1E E1           	POP	HL
1704+ BD1F B7           	OR	A
1705+ BD20 C2 B9 BA     	JP	NZ,0BAB9H
1706+ BD23 CB C6        	SET	0,(HL)
1707+ BD25 C3 67 C2     	JP	VB.LAZR
1708+ BD28 B7           	OR	A
1709+ BD29 20 FA        	JR	NZ,$-04	;BD25
1710+ BD2B CB 86        	RES	0,(HL)
1711+ BD2D 3E 05        	LD	A,005H
1712+ BD2F 21 D5 F2     	LD	HL,0F2D5H
1713+ BD32 CB 8E        	RES	1,(HL)
1714+ BD34 CD 6E CA     	CALL	0CA6EH
1715+ BD37 18 EC        	JR	$-18	;BD25
1716+ BD39 FE 1D        	CP	01DH
1717+ BD3B CA BA BC     	JP	Z,0BCBAH
1718+ BD3E 21 2A F4     	LD	HL,0F42AH
1719+ BD41 11 F8 20     	LD	DE,020F8H
1720+ BD44 FE 19        	CP	019H
1721+ BD46 28 31        	JR	Z,$+51	;BD79
1722+ BD48 1E FF        	LD	E,0FFH
1723+ BD4A FE 08        	CP	008H
1724+ BD4C 28 2B        	JR	Z,$+45	;BD79
1725+ BD4E 1E 08        	LD	E,008H
1726+ BD50 FE 1A        	CP	01AH
1727+ BD52 28 25        	JR	Z,$+39	;BD79
1728+ BD54 1E 01        	LD	E,001H
1729+ BD56 FE 18        	CP	018H
1730+ BD58 28 1F        	JR	Z,$+33	;BD79
1731+ BD5A FE 30        	CP	030H
1732+ BD5C 28 09        	JR	Z,$+11	;BD67
1733+ BD5E FE 31        	CP	031H
1734+ BD60 28 05        	JR	Z,$+07	;BD67
1735+ BD62 FE 58        	CP	058H
1736+ BD64 C2 B3 BC     	JP	NZ,0BCB3H
1737+ BD67 C1           	POP	BC
1738+ BD68 09           	ADD	HL,BC
1739+ BD69 77           	LD	(HL),A
1740+ BD6A 79           	LD	A,C
1741+ BD6B CB 7B        	BIT	7,E
1742+ BD6D 28 01        	JR	Z,$+03	;BD70
1743+ BD6F 82           	ADD	A,D
1744+ BD70 83           	ADD	A,E
1745+ BD71 BA           	CP	D
1746+ BD72 38 01        	JR	C,$+03	;BD75
1747+ BD74 92           	SUB	D
1748+ BD75 4F           	LD	C,A
1749+ BD76 C3 81 BC     	JP	0BC81H
1750+ BD79 C1           	POP	BC
1751+ BD7A 09           	ADD	HL,BC
1752+ BD7B 7E           	LD	A,(HL)
1753+ BD7C EE 80        	XOR	080H
1754+ BD7E 18 E9        	JR	$-21	;BD69
1755+ BD80              ;
1756+ BD80              ;    PAGE
1757+ BD80              BD80:
1758+ BD80 06 40        	LD	B,040H		;PN SO   DEF
1759+ BD82 3E 20        	LD	A,020H
1760+ BD84 C3 5F C1     	JP	0C15FH
1761+ BD87              ;
1762+ BD87              DEF:
1763+ BD87              BD87:
1764+ BD87              ;	===>
1765+ BD87 3E 1F        	LD	A,01FH		;"DEF   "
1766+ BD89 CD 2E C8     	CALL	X0.AN1	;0C82EH
1767+ BD8C CD 80 BD     	CALL	0BD80H
1768+ BD8F 21 B4 B1     	LD	HL,0B1B4H
1769+ BD92 11 43 F3     	LD	DE,0F343H
1770+ BD95 0E 06        	LD	C,006H
1771+ BD97 ED B0        	LDIR
1772+ BD99 11 63 F3     	LD	DE,0F363H
1773+ BD9C 0E 06        	LD	C,006H
1774+ BD9E ED B0        	LDIR
1775+ BDA0 06 04        	LD	B,004H
1776+ BDA2 CD 6C C1     	CALL	0C16CH
1777+ BDA5 11 D6 F2     	LD	DE,0F2D6H
1778+ BDA8 21 AC B0     	LD	HL,0B0ACH
1779+ BDAB 06 07        	LD	B,007H
1780+ BDAD 3E A0        	LD	A,0A0H
1781+ BDAF E5           	PUSH	HL
1782+ BDB0 D5           	PUSH	DE
1783+ BDB1 C5           	PUSH	BC
1784+ BDB2 4E           	LD	C,(HL)
1785+ BDB3 F5           	PUSH	AF
1786+ BDB4 CD 80 BD     	CALL	0BD80H
1787+ BDB7 F1           	POP	AF
1788+ BDB8 21 39 F3     	LD	HL,0F339H
1789+ BDBB 71           	LD	(HL),C
1790+ BDBC 23           	INC	HL
1791+ BDBD F5           	PUSH	AF
1792+ BDBE 23           	INC	HL
1793+ BDBF 06 08        	LD	B,008H
1794+ BDC1 13           	INC	DE
1795+ BDC2 13           	INC	DE
1796+ BDC3 13           	INC	DE
1797+ BDC4 1A           	LD	A,(DE)
1798+ BDC5 23           	INC	HL
1799+ BDC6 23           	INC	HL
1800+ BDC7 36 30        	LD	(HL),030H
1801+ BDC9 07           	RLCA
1802+ BDCA 30 02        	JR	NC,$+04	;BDCE
1803+ BDCC 36 31        	LD	(HL),031H
1804+ BDCE 10 F6        	DJNZ	$-08	;BDC6
1805+ BDD0 F1           	POP	AF
1806+ BDD1 CB 27        	SLA	A
1807+ BDD3 38 E8        	JR	C,$-22	;BDBD
1808+ BDD5 21 59 F3     	LD	HL,0F359H
1809+ BDD8 20 E1        	JR	NZ,$-29	;BDBB
1810+ BDDA C1           	POP	BC
1811+ BDDB D1           	POP	DE
1812+ BDDC CD 6C C1     	CALL	0C16CH
1813+ BDDF E1           	POP	HL
1814+ BDE0 23           	INC	HL
1815+ BDE1 13           	INC	DE
1816+ BDE2 04           	INC	B
1817+ BDE3 78           	LD	A,B
1818+ BDE4 FE 0B        	CP	00BH
1819+ BDE6 3E 80        	LD	A,080H
1820+ BDE8 28 C5        	JR	Z,$-57	;BDAF
1821+ BDEA 78           	LD	A,B
1822+ BDEB FE 0D        	CP	00DH
1823+ BDED 38 BE        	JR	C,$-64	;BDAD
1824+ BDEF 21 56 B0     	LD	HL,0B056H
1825+ BDF2 CD FC C6     	CALL	0C6FCH
1826+ BDF5 FD 21 52 B0  	LD	IY,0B052H
1827+ BDF9 CD B3 C7     	CALL	0C7B3H
1828+ BDFC 20 31        	JR	NZ,$+51	;BE2F
1829+ BDFE 3E 02        	LD	A,002H
1830+ BE00 01 FB 00     	LD	BC,000FBH
1831+ BE03 21 E5 F2     	LD	HL,0F2E5H
1832+ BE06 F5           	PUSH	AF
1833+ BE07 2B           	DEC	HL
1834+ BE08 56           	LD	D,(HL)
1835+ BE09 2B           	DEC	HL
1836+ BE0A 5E           	LD	E,(HL)
1837+ BE0B 2B           	DEC	HL
1838+ BE0C CB 0A        	RRC	D
1839+ BE0E 17           	RLA
1840+ BE0F CB 0B        	RRC	E
1841+ BE11 17           	RLA
1842+ BE12 CB 0E        	RRC	(HL)
1843+ BE14 17           	RLA
1844+ BE15 E6 07        	AND	007H
1845+ BE17              	; OUT	(C),A	; OLD !!!
1846+ BE17 00           	NOP
1847+ BE18 00           	NOP
1848+ BE19 04           	INC	B
1849+ BE1A 78           	LD	A,B
1850+ BE1B FE 08        	CP	008H
1851+ BE1D 38 ED        	JR	C,$-17	;BE0C
1852+ BE1F 28 E6        	JR	Z,$-24	;BE07
1853+ BE21 FE 10        	CP	010H
1854+ BE23 38 E7        	JR	C,$-23	;BE0C
1855+ BE25 0D           	DEC	C
1856+ BE26 06 00        	LD	B,000H
1857+ BE28 F1           	POP	AF
1858+ BE29 3D           	DEC	A
1859+ BE2A 20 DA        	JR	NZ,$-36	;BE06
1860+ BE2C C3 67 C2     	JP	VB.LAZR
1861+ BE2F 01 03 00     	LD	BC,00003H
1862+ BE32 2A 43 F2     	LD	HL,(0F243H)
1863+ BE35 11 DB F2     	LD	DE,0F2DBH
1864+ BE38 7D           	LD	A,L
1865+ BE39 FE 4D        	CP	04DH
1866+ BE3B 28 0F        	JR	Z,$+17	;BE4C
1867+ BE3D 11 E0 F2     	LD	DE,0F2E0H
1868+ BE40 0B           	DEC	BC
1869+ BE41 FE 49        	CP	049H
1870+ BE43 28 07        	JR	Z,$+09	;BE4C
1871+ BE45 3E 03        	LD	A,003H
1872+ BE47 CD A7 C8     	CALL	0C8A7H
1873+ BE4A 18 A3        	JR	$-91	;BDEF
1874+ BE4C 7C           	LD	A,H
1875+ BE4D 21 AC B0     	LD	HL,0B0ACH
1876+ BE50 ED B1        	CPIR
1877+ BE52 20 F1        	JR	NZ,$-13	;BE45
1878+ BE54 EB           	EX	DE,HL
1879+ BE55 ED 42        	SBC	HL,BC
1880+ BE57 E5           	PUSH	HL
1881+ BE58 21 00 F1     	LD	HL,0F100H
1882+ BE5B CD FC C6     	CALL	0C6FCH
1883+ BE5E CD 71 C8     	CALL	0C871H
1884+ BE61 28 9B        	JR	Z,$-99	;BDFE
1885+ BE63 E1           	POP	HL
1886+ BE64 72           	LD	(HL),D
1887+ BE65 23           	INC	HL
1888+ BE66 23           	INC	HL
1889+ BE67 23           	INC	HL
1890+ BE68 73           	LD	(HL),E
1891+ BE69 C3 8C BD     	JP	0BD8CH
1892+ BE6C              ;
1893+ BE6C              ;    PAGE
1894+ BE6C              BE6C:
1895+ BE6C 78           	LD	A,B		;PN XD   Register korr.
1896+ BE6D FE 03        	CP	003H
1897+ BE6F 30 07        	JR	NC,$+09	;BE78
1898+ BE71 3A 43 F2     	LD	A,(0F243H)
1899+ BE74 77           	LD	(HL),A
1900+ BE75 C3 67 C2     	JP	VB.LAZR
1901+ BE78 FE 06        	CP	006H
1902+ BE7A 30 07        	JR	NC,$+09	;BE83
1903+ BE7C 3A 45 F2     	LD	A,(0F245H)
1904+ BE7F E6 03        	AND	003H
1905+ BE81 18 F1        	JR	$-13	;BE74
1906+ BE83 E5           	PUSH	HL
1907+ BE84 21 AC F0     	LD	HL,0F0ACH
1908+ BE87 CD FC C6     	CALL	0C6FCH
1909+ BE8A E1           	POP	HL
1910+ BE8B CD C9 C7     	CALL	0C7C9H
1911+ BE8E 78           	LD	A,B
1912+ BE8F FE 0A        	CP	00AH
1913+ BE91 30 1F        	JR	NC,$+33	;BEB2
1914+ BE93 7A           	LD	A,D
1915+ BE94 B7           	OR	A
1916+ BE95 20 14        	JR	NZ,$+22	;BEAB
1917+ BE97 7B           	LD	A,E
1918+ BE98 FE 02        	CP	002H
1919+ BE9A 30 0F        	JR	NC,$+17	;BEAB
1920+ BE9C ED 44        	NEG
1921+ BE9E A5           	AND	L
1922+ BE9F 57           	LD	D,A
1923+ BEA0 7D           	LD	A,L
1924+ BEA1 2F           	CPL
1925+ BEA2 21 52 F2     	LD	HL,0F252H
1926+ BEA5 A6           	AND	(HL)
1927+ BEA6 B2           	OR	D
1928+ BEA7 77           	LD	(HL),A
1929+ BEA8 C3 67 C2     	JP	VB.LAZR
1930+ BEAB 3E 02        	LD	A,002H
1931+ BEAD CD A7 C8     	CALL	0C8A7H
1932+ BEB0 18 D9        	JR	$-37	;BE8B
1933+ BEB2 FE 13        	CP	013H
1934+ BEB4 30 07        	JR	NC,$+09	;BEBD
1935+ BEB6 7A           	LD	A,D
1936+ BEB7 B7           	OR	A
1937+ BEB8 20 F1        	JR	NZ,$-13	;BEAB
1938+ BEBA 73           	LD	(HL),E
1939+ BEBB 18 B8        	JR	$-70	;BE75
1940+ BEBD 73           	LD	(HL),E
1941+ BEBE 23           	INC	HL
1942+ BEBF 72           	LD	(HL),D
1943+ BEC0 18 B3        	JR	$-75	;BE75
1944+ BEC2              ;
1945+ BEC2              ;    PAGE
1946+ BEC2              ;	===>
1947+ BEC2              EXCH:
1948+ BEC2              BEC2:
1949+ BEC2 21 4A F2     	LD	HL,0F24AH		;"EXCH  "   PN XH
1950+ BEC5 11 52 F2     	LD	DE,0F252H
1951+ BEC8 06 08        	LD	B,008H
1952+ BECA 1A           	LD	A,(DE)
1953+ BECB 4E           	LD	C,(HL)
1954+ BECC EB           	EX	DE,HL
1955+ BECD 12           	LD	(DE),A
1956+ BECE 71           	LD	(HL),C
1957+ BECF EB           	EX	DE,HL
1958+ BED0 13           	INC	DE
1959+ BED1 23           	INC	HL
1960+ BED2 10 F6        	DJNZ	$-08	;BECA
1961+ BED4 18 0E        	JR	$+16	;BEE4
1962+ BED6              ;	===>
1963+ BED6              ERASE:
1964+ BED6              BED6:
1965+ BED6 21 00 00     	LD	HL,00000H		;"ERASE "
1966+ BED9 36 7F        	LD	(HL),07FH
1967+ BEDB 11 01 00     	LD	DE,00001H
1968+ BEDE ED 4B 11 F0  	LD	BC,(CO.EORAM)	;0F011H
1969+ BEE2 ED B0        	LDIR
1970+ BEE4 C3 67 C2     	JP	VB.LAZR
1971+ BEE7              ;
1972+ BEE7              ;    PAGE
1973+ BEE7              ;	===>
1974+ BEE7              MOVE:
1975+ BEE7              BEE7:
1976+ BEE7 01 25 06     	LD	BC,00625H		;"MOVE  "   PN XG
1977+ BEEA 21 C3 F0     	LD	HL,0F0C3H
1978+ BEED 3E 03        	LD	A,003H
1979+ BEEF F5           	PUSH	AF
1980+ BEF0 C5           	PUSH	BC
1981+ BEF1 11 00 00     	LD	DE,00000H
1982+ BEF4 CD 85 C1     	CALL	0C185H
1983+ BEF7 01 0A 00     	LD	BC,0000AH
1984+ BEFA 09           	ADD	HL,BC
1985+ BEFB CD C9 C7     	CALL	0C7C9H
1986+ BEFE C1           	POP	BC
1987+ BEFF F1           	POP	AF
1988+ BF00 D5           	PUSH	DE
1989+ BF01 04           	INC	B
1990+ BF02 3D           	DEC	A
1991+ BF03 20 EA        	JR	NZ,$-20	;BEEF
1992+ BF05 C5           	PUSH	BC
1993+ BF06 CD FF C3     	CALL	0C3FFH
1994+ BF09 CD 3B C8     	CALL	X0.J	;0C83BH
1995+ BF0C 1E 00        	LD	E,000H
1996+ BF0E 20 01        	JR	NZ,$+03	;BF11
1997+ BF10 1C           	INC	E
1998+ BF11 C1           	POP	BC
1999+ BF12 D5           	PUSH	DE
2000+ BF13 04           	INC	B
2001+ BF14 21 EB F0     	LD	HL,0F0EBH
2002+ BF17 CD FF C3     	CALL	0C3FFH
2003+ BF1A CD 3B C8     	CALL	X0.J
2004+ BF1D D1           	POP	DE
2005+ BF1E F3           	DI
2006+ BF1F D9           	EXX
2007+ BF20 1E 00        	LD	E,000H
2008+ BF22 20 01        	JR	NZ,$+03	;BF25
2009+ BF24 1C           	INC	E
2010+ BF25 D9           	EXX
2011+ BF26 C1           	POP	BC
2012+ BF27 D9           	EXX
2013+ BF28 E1           	POP	HL
2014+ BF29 E5           	PUSH	HL
2015+ BF2A D9           	EXX
2016+ BF2B E1           	POP	HL
2017+ BF2C 7B           	LD	A,E
2018+ BF2D D1           	POP	DE
2019+ BF2E B7           	OR	A
2020+ BF2F ED 52        	SBC	HL,DE
2021+ BF31 38 03        	JR	C,$+05	;BF36
2022+ BF33 ED 42        	SBC	HL,BC
2023+ BF35 3F           	CCF
2024+ BF36 F5           	PUSH	AF
2025+ BF37 62           	LD	H,D
2026+ BF38 6B           	LD	L,E
2027+ BF39 5F           	LD	E,A
2028+ BF3A 38 08        	JR	C,$+10	;BF44
2029+ BF3C 09           	ADD	HL,BC
2030+ BF3D 2B           	DEC	HL
2031+ BF3E C5           	PUSH	BC
2032+ BF3F D9           	EXX
2033+ BF40 C1           	POP	BC
2034+ BF41 09           	ADD	HL,BC
2035+ BF42 2B           	DEC	HL
2036+ BF43 D9           	EXX
2037+ BF44 78           	LD	A,B
2038+ BF45 B1           	OR	C
2039+ BF46 28 2C        	JR	Z,$+46	;BF74
2040+ BF48 CB 43        	BIT	0,E
2041+ BF4A 28 02        	JR	Z,$+04	;BF4E
2042+ BF4C              	; OUT	(0FCH),A	; OLD !!!
2043+ BF4C 00           	NOP
2044+ BF4D 00           	NOP
2045+ BF4E 7E           	LD	A,(HL)
2046+ BF4F D9           	EXX
2047+ BF50 CB 43        	BIT	0,E
2048+ BF52 20 02        	JR	NZ,$+04	;BF56
2049+ BF54              	; OUT	(0FCH),A	; OLD !!!
2050+ BF54 00           	NOP
2051+ BF55 00           	NOP
2052+ BF56 77           	LD	(HL),A
2053+ BF57 CB 43        	BIT	0,E
2054+ BF59 20 02        	JR	NZ,$+04	;BF5D
2055+ BF5B              	; OUT	(0FCH),A	; OLD !!!
2056+ BF5B 00           	NOP
2057+ BF5C 00           	NOP
2058+ BF5D BE           	CP	(HL)
2059+ BF5E 20 0F        	JR	NZ,$+17	;BF6F
2060+ BF60 F1           	POP	AF
2061+ BF61 30 07        	JR	NC,$+09	;BF6A
2062+ BF63 23           	INC	HL
2063+ BF64 D9           	EXX
2064+ BF65 23           	INC	HL
2065+ BF66 0B           	DEC	BC
2066+ BF67 F5           	PUSH	AF
2067+ BF68 18 DA        	JR	$-36	;BF44
2068+ BF6A 2B           	DEC	HL
2069+ BF6B D9           	EXX
2070+ BF6C 2B           	DEC	HL
2071+ BF6D 18 F7        	JR	$-07	;BF66
2072+ BF6F 3E 06        	LD	A,006H
2073+ BF71 CD 96 C8     	CALL	0C896H
2074+ BF74 C3 67 C2     	JP	VB.LAZR
2075+ BF77              ;
2076+ BF77              ;    PAGE
2077+ BF77              MEM:
2078+ BF77              BF77:
2079+ BF77              ;	===>
2080+ BF77 21 65 F2     	LD	HL,0F265H		;"MEM   "   PN XF
2081+ BF7A CB 8E        	RES	1,(HL)
2082+ BF7C 01 06 0D     	LD	BC,00D06H
2083+ BF7F CD FC C3     	CALL	0C3FCH
2084+ BF82 CD C9 C7     	CALL	0C7C9H
2085+ BF85 CD 5B C1     	CALL	0C15BH
2086+ BF88 01 06 0D     	LD	BC,00D06H
2087+ BF8B CD 6C C1     	CALL	0C16CH
2088+ BF8E EB           	EX	DE,HL
2089+ BF8F 11 00 00     	LD	DE,00000H
2090+ BF92 D5           	PUSH	DE
2091+ BF93 E5           	PUSH	HL
2092+ BF94 B7           	OR	A
2093+ BF95 ED 52        	SBC	HL,DE
2094+ BF97 1C           	INC	E
2095+ BF98 01 29 04     	LD	BC,00429H
2096+ BF9B C5           	PUSH	BC
2097+ BF9C 4B           	LD	C,E
2098+ BF9D 06 08        	LD	B,008H
2099+ BF9F 11 36 F3     	LD	DE,0F336H
2100+ BFA2 CD 81 E8     	CALL	E881
2101+ BFA5 E5           	PUSH	HL
2102+ BFA6 21 65 F2     	LD	HL,0F265H
2103+ BFA9 CB 4E        	BIT	1,(HL)
2104+ BFAB E1           	POP	HL
2105+ BFAC 28 10        	JR	Z,$+18	;BFBE
2106+ BFAE FE 20        	CP	020H
2107+ BFB0 38 0C        	JR	C,$+14	;BFBE
2108+ BFB2 FE 7F        	CP	07FH
2109+ BFB4 30 08        	JR	NC,$+10	;BFBE
2110+ BFB6 12           	LD	(DE),A
2111+ BFB7 3E 20        	LD	A,020H
2112+ BFB9 13           	INC	DE
2113+ BFBA 12           	LD	(DE),A
2114+ BFBB 13           	INC	DE
2115+ BFBC 18 03        	JR	$+05	;BFC1
2116+ BFBE CD 96 C3     	CALL	0C396H
2117+ BFC1 0D           	DEC	C
2118+ BFC2 20 0C        	JR	NZ,$+14	;BFD0
2119+ BFC4 1B           	DEC	DE
2120+ BFC5 1A           	LD	A,(DE)
2121+ BFC6 EE 80        	XOR	080H
2122+ BFC8 12           	LD	(DE),A
2123+ BFC9 1B           	DEC	DE
2124+ BFCA 1A           	LD	A,(DE)
2125+ BFCB EE 80        	XOR	080H
2126+ BFCD 12           	LD	(DE),A
2127+ BFCE 13           	INC	DE
2128+ BFCF 13           	INC	DE
2129+ BFD0 23           	INC	HL
2130+ BFD1 13           	INC	DE
2131+ BFD2 10 CE        	DJNZ	$-48	;BFA2
2132+ BFD4 59           	LD	E,C
2133+ BFD5 C1           	POP	BC
2134+ BFD6 CD 6C C1     	CALL	0C16CH
2135+ BFD9 78           	LD	A,B
2136+ BFDA FE 0C        	CP	00CH
2137+ BFDC 38 BD        	JR	C,$-65	;BF9B
2138+ BFDE 01 20 05     	LD	BC,00520H
2139+ BFE1 21 B3 F0     	LD	HL,0F0B3H
2140+ BFE4 CD 85 C1     	CALL	0C185H
2141+ BFE7 21 BB F0     	LD	HL,0F0BBH
2142+ BFEA CD 85 C1     	CALL	0C185H
2143+ BFED E1           	POP	HL
2144+ BFEE E5           	PUSH	HL
2145+ BFEF CD AC C8     	CALL	0C8ACH
2146+ BFF2 0C           	INC	C
2147+ BFF3 21 22 F2     	LD	HL,0F222H
2148+ BFF6 11 06 00     	LD	DE,00006H
2149+ BFF9 CD 85 C1     	CALL	0C185H
2150+ BFFC E1           	POP	HL
2151+ BFFD E5           	PUSH	HL
2152+ BFFE CD E4 C8     	CALL	0C8E4H
2153+ C001 0C           	INC	C
2154+ C002 21 22 F2     	LD	HL,0F222H
2155+ C005 1B           	DEC	DE
2156+ C006 CD 85 C1     	CALL	0C185H
2157+ C009 01 23 09     	LD	BC,00923H
2158+ C00C CD 10 C7     	CALL	0C710H
2159+ C00F 21 65 F2     	LD	HL,0F265H
2160+ C012 3E 48        	LD	A,048H
2161+ C014 CB 4E        	BIT	1,(HL)
2162+ C016 28 02        	JR	Z,$+04	;C01A
2163+ C018 3E 22        	LD	A,022H
2164+ C01A CD 2E C8     	CALL	X0.AN1
2165+ C01D CD 1B C8     	CALL	X0.TSCL0
2166+ C020 FE 20        	CP	020H
2167+ C022 38 34        	JR	C,$+54	;C058
2168+ C024 FE 22        	CP	022H
2169+ C026 21 65 F2     	LD	HL,0F265H
2170+ C029 20 09        	JR	NZ,$+11	;C034
2171+ C02B 7E           	LD	A,(HL)
2172+ C02C EE 02        	XOR	002H
2173+ C02E 77           	LD	(HL),A
2174+ C02F 01 00 00     	LD	BC,00000H
2175+ C032 18 58        	JR	$+90	;C08C
2176+ C034 CB 4E        	BIT	1,(HL)
2177+ C036 20 16        	JR	NZ,$+24	;C04E
2178+ C038 21 22 F2     	LD	HL,0F222H
2179+ C03B 77           	LD	(HL),A
2180+ C03C 23           	INC	HL
2181+ C03D CD 1B C8     	CALL	X0.TSCL0
2182+ C040 77           	LD	(HL),A
2183+ C041 CD 21 CA     	CALL	0CA21H
2184+ C044 28 07        	JR	Z,$+09	;C04D
2185+ C046 3E 02        	LD	A,002H
2186+ C048 CD A7 C8     	CALL	0C8A7H
2187+ C04B 18 D0        	JR	$-46	;C01D
2188+ C04D 7A           	LD	A,D
2189+ C04E E1           	POP	HL
2190+ C04F CD C9 EF     	CALL	0EFC9H
2191+ C052 E5           	PUSH	HL
2192+ C053 01 01 00     	LD	BC,00001H
2193+ C056 18 34        	JR	$+54	;C08C
2194+ C058 01 01 00     	LD	BC,00001H
2195+ C05B FE 18        	CP	018H
2196+ C05D 28 2D        	JR	Z,$+47	;C08C
2197+ C05F 0E 08        	LD	C,008H
2198+ C061 FE 1A        	CP	01AH
2199+ C063 28 27        	JR	Z,$+41	;C08C
2200+ C065 0E 40        	LD	C,040H
2201+ C067 FE 0A        	CP	00AH
2202+ C069 28 21        	JR	Z,$+35	;C08C
2203+ C06B 01 FF FF     	LD	BC,0FFFFH
2204+ C06E FE 08        	CP	008H
2205+ C070 28 1A        	JR	Z,$+28	;C08C
2206+ C072 0E F8        	LD	C,0F8H
2207+ C074 FE 19        	CP	019H
2208+ C076 28 14        	JR	Z,$+22	;C08C
2209+ C078 0E C0        	LD	C,0C0H
2210+ C07A FE 0C        	CP	00CH
2211+ C07C 28 0E        	JR	Z,$+16	;C08C
2212+ C07E FE 1F        	CP	01FH
2213+ C080 CA 67 C2     	JP	Z,VB.LAZR
2214+ C083 FE 1D        	CP	01DH
2215+ C085 20 96        	JR	NZ,$-104	;C01D
2216+ C087 E1           	POP	HL
2217+ C088 D1           	POP	DE
2218+ C089 C3 77 BF     	JP	0BF77H
2219+ C08C              ;
2220+ C08C              C08C:
2221+ C08C E1           	POP	HL
2222+ C08D D1           	POP	DE
2223+ C08E 09           	ADD	HL,BC
2224+ C08F EB           	EX	DE,HL
2225+ C090 09           	ADD	HL,BC
2226+ C091 7C           	LD	A,H
2227+ C092 B7           	OR	A
2228+ C093 7D           	LD	A,L
2229+ C094 20 06        	JR	NZ,$+08	;C09C
2230+ C096 FE 40        	CP	040H
2231+ C098 38 0E        	JR	C,$+16	;C0A8
2232+ C09A 05           	DEC	B
2233+ C09B 05           	DEC	B
2234+ C09C 04           	INC	B
2235+ C09D 79           	LD	A,C
2236+ C09E ED 44        	NEG
2237+ C0A0 E6 F8        	AND	0F8H
2238+ C0A2 20 02        	JR	NZ,$+04	;C0A6
2239+ C0A4 3E 08        	LD	A,008H
2240+ C0A6 4F           	LD	C,A
2241+ C0A7 09           	ADD	HL,BC
2242+ C0A8 EB           	EX	DE,HL
2243+ C0A9 C3 92 BF     	JP	0BF92H
2244+ C0AC              ;
2245+ C0AC              ;    PAGE
2246+ C0AC              ;	===>
2247+ C0AC              IOCO:
2248+ C0AC              C0AC:
2249+ C0AC 01 24 04     	LD	BC,00424H		;"IOCO  "   PN XI
2250+ C0AF C5           	PUSH	BC
2251+ C0B0 CD 10 C7     	CALL	0C710H
2252+ C0B3 3E 10        	LD	A,010H
2253+ C0B5 CD 2E C8     	CALL	X0.AN1
2254+ C0B8 FD 21 FA F1  	LD	IY,0F1FAH
2255+ C0BC CD C2 C7     	CALL	0C7C2H
2256+ C0BF 3A 43 F2     	LD	A,(0F243H)
2257+ C0C2 21 F5 F0     	LD	HL,0F0F5H
2258+ C0C5 1E DB        	LD	E,0DBH
2259+ C0C7 FE 49        	CP	049H
2260+ C0C9 28 10        	JR	Z,$+18	;C0DB
2261+ C0CB 21 FA F0     	LD	HL,0F0FAH
2262+ C0CE 1E D3        	LD	E,0D3H
2263+ C0D0 FE 4F        	CP	04FH
2264+ C0D2 28 07        	JR	Z,$+09	;C0DB
2265+ C0D4 3E 03        	LD	A,003H
2266+ C0D6 CD A7 C8     	CALL	0C8A7H
2267+ C0D9 18 E1        	JR	$-29	;C0BC
2268+ C0DB D5           	PUSH	DE
2269+ C0DC CD FC C6     	CALL	0C6FCH
2270+ C0DF FD 21 FE F1  	LD	IY,0F1FEH
2271+ C0E3 CD CD C7     	CALL	0C7CDH
2272+ C0E6 7A           	LD	A,D
2273+ C0E7 B7           	OR	A
2274+ C0E8 28 07        	JR	Z,$+09	;C0F1
2275+ C0EA 3E 02        	LD	A,002H
2276+ C0EC CD A7 C8     	CALL	0C8A7H
2277+ C0EF 18 EE        	JR	$-16	;C0DF
2278+ C0F1 7B           	LD	A,E
2279+ C0F2 D1           	POP	DE
2280+ C0F3 57           	LD	D,A
2281+ C0F4 D5           	PUSH	DE
2282+ C0F5 21 FF F0     	LD	HL,0F0FFH
2283+ C0F8 CD FC C6     	CALL	0C6FCH
2284+ C0FB 7B           	LD	A,E
2285+ C0FC FE DB        	CP	0DBH
2286+ C0FE 28 13        	JR	Z,$+21	;C113
2287+ C100 FD 21 02 F2  	LD	IY,0F202H
2288+ C104 CD CD C7     	CALL	0C7CDH
2289+ C107 7A           	LD	A,D
2290+ C108 B7           	OR	A
2291+ C109 28 07        	JR	Z,$+09	;C112
2292+ C10B 3E 02        	LD	A,002H
2293+ C10D CD A7 C8     	CALL	0C8A7H
2294+ C110 18 EE        	JR	$-16	;C100
2295+ C112 7B           	LD	A,E
2296+ C113 D1           	POP	DE
2297+ C114 21 D3 FD     	LD	HL,0FDD3H
2298+ C117 22 66 F2     	LD	(0F266H),HL
2299+ C11A ED 53 68 F2  	LD	(0F268H),DE
2300+ C11E F5           	PUSH	AF
2301+ C11F 3E C9        	LD	A,0C9H
2302+ C121 32 6A F2     	LD	(0F26AH),A
2303+ C124 CD 5B C1     	CALL	0C15BH
2304+ C127 F1           	POP	AF
2305+ C128 CD D5 EF     	CALL	0EFD5H
2306+ C12B 4F           	LD	C,A
2307+ C12C 11 36 F3     	LD	DE,0F336H
2308+ C12F D5           	PUSH	DE
2309+ C130 CD A8 C3     	CALL	0C3A8H
2310+ C133 03           	INC	BC
2311+ C134 21 02 F1     	LD	HL,0F102H
2312+ C137 CD B0 C3     	CALL	0C3B0H
2313+ C13A EB           	EX	DE,HL
2314+ C13B 06 08        	LD	B,008H
2315+ C13D 36 30        	LD	(HL),030H
2316+ C13F CB 01        	RLC	C
2317+ C141 30 02        	JR	NC,$+04	;C145
2318+ C143 36 31        	LD	(HL),031H
2319+ C145 23           	INC	HL
2320+ C146 10 F5        	DJNZ	$-09	;C13D
2321+ C148 36 42        	LD	(HL),042H
2322+ C14A E1           	POP	HL
2323+ C14B CD FC C6     	CALL	0C6FCH
2324+ C14E C1           	POP	BC
2325+ C14F 04           	INC	B
2326+ C150 78           	LD	A,B
2327+ C151 FE 0C        	CP	00CH
2328+ C153 DA AF C0     	JP	C,0C0AFH
2329+ C156 C3 AC C0     	JP	0C0ACH
2330+ C159              ;
2331+ C159              ;    PAGE
2332+ C159              C159:
2333+ C159              ;	===>
2334+ C159 41           	LD	B,C		;PN VB   Aufrufschleife
2335+ C15A 00           	NOP
2336+ C15B 3E 20        	LD	A,020H
2337+ C15D 06 20        	LD	B,020H
2338+ C15F 21 36 F3     	LD	HL,0F336H
2339+ C162 77           	LD	(HL),A
2340+ C163 23           	INC	HL
2341+ C164 10 FC        	DJNZ	$-02	;C162
2342+ C166 36 04        	LD	(HL),004H
2343+ C168 C9           	RET
2344+ C169              ;	===>
2345+ C169              C169:
2346+ C169 11 38 F3     	LD	DE,0F338H
2347+ C16C D5           	PUSH	DE
2348+ C16D E5           	PUSH	HL
2349+ C16E 21 36 F3     	LD	HL,0F336H
2350+ C171 11 00 00     	LD	DE,00000H
2351+ C174 C5           	PUSH	BC
2352+ C175 CD 10 C7     	CALL	0C710H
2353+ C178 42           	LD	B,D
2354+ C179 4B           	LD	C,E
2355+ C17A              	; CALL	0B705H	; OLD !!!
2356+ C17A CD 05 C7     	CALL	0C705H	; NEU !!!
2357+ C17D CD 5B C1     	CALL	0C15BH
2358+ C180 C1           	POP	BC
2359+ C181 E1           	POP	HL
2360+ C182 D1           	POP	DE
2361+ C183 04           	INC	B
2362+ C184 C9           	RET
2363+ C185 D5           	PUSH	DE
2364+ C186 E5           	PUSH	HL
2365+ C187 18 EB        	JR	$-19	;C174
2366+ C189              ;	===>
2367+ C189              C189:
2368+ C189 01 02 00     	LD	BC,00002H
2369+ C18C CD 14 C7     	CALL	0C714H
2370+ C18F 3E 1F        	LD	A,01FH
2371+ C191 CD 2E C8     	CALL	X0.AN1
2372+ C194 3E 3D        	LD	A,03DH
2373+ C196 06 86        	LD	B,086H
2374+ C198 CD 5F C1     	CALL	0C15FH
2375+ C19B 3E 20        	LD	A,020H
2376+ C19D 21 40 F2     	LD	HL,0F240H
2377+ C1A0 11 8C F3     	LD	DE,0F38CH
2378+ C1A3 0E 04        	LD	C,004H
2379+ C1A5 ED B8        	LDDR
2380+ C1A7 12           	LD	(DE),A
2381+ C1A8 11 5A F3     	LD	DE,0F35AH
2382+ C1AB 0E 09        	LD	C,009H
2383+ C1AD ED B8        	LDDR
2384+ C1AF 12           	LD	(DE),A
2385+ C1B0 21 30 F0     	LD	HL,0F030H
2386+ C1B3 11 63 F3     	LD	DE,0F363H
2387+ C1B6 0E 18        	LD	C,018H
2388+ C1B8 ED B0        	LDIR
2389+ C1BA 3E 0A        	LD	A,00AH
2390+ C1BC 32 4E F3     	LD	(0F34EH),A
2391+ C1BF 32 8F F3     	LD	(0F38FH),A
2392+ C1C2 21 90 F3     	LD	HL,0F390H
2393+ C1C5 06 14        	LD	B,014H
2394+ C1C7 3E 20        	LD	A,020H
2395+ C1C9 CD 62 C1     	CALL	0C162H
2396+ C1CC 36 3D        	LD	(HL),03DH
2397+ C1CE 0E 14        	LD	C,014H
2398+ C1D0 C3 6C C1     	JP	0C16CH
2399+ C1D3 CD 5B C1     	CALL	0C15BH
2400+ C1D6 21 42 F0     	LD	HL,0F042H
2401+ C1D9 0E 07        	LD	C,007H
2402+ C1DB 3A 6B F2     	LD	A,(ARET)
2403+ C1DE 09           	ADD	HL,BC
2404+ C1DF 0F           	RRCA
2405+ C1E0 30 FC        	JR	NC,$-02	;C1DE
2406+ C1E2 11 38 F3     	LD	DE,0F338H
2407+ C1E5 ED B0        	LDIR
2408+ C1E7 21 50 F3     	LD	HL,0F350H
2409+ C1EA 3A 35 F3     	LD	A,(0F335H)
2410+ C1ED 01 41 04     	LD	BC,00441H
2411+ C1F0 0F           	RRCA
2412+ C1F1 30 01        	JR	NC,$+03	;C1F4
2413+ C1F3 71           	LD	(HL),C
2414+ C1F4 0C           	INC	C
2415+ C1F5 23           	INC	HL
2416+ C1F6 10 F8        	DJNZ	$-06	;C1F0
2417+ C1F8 01 00 04     	LD	BC,00400H
2418+ C1FB C3 6C C1     	JP	0C16CH
2419+ C1FE F5           	PUSH	AF
2420+ C1FF C5           	PUSH	BC
2421+ C200 01 00 0B     	LD	BC,00B00H
2422+ C203 CD 69 C1     	CALL	0C169H
2423+ C206 3E 0B        	LD	A,00BH
2424+ C208 CD 2E C8     	CALL	X0.AN1
2425+ C20B C1           	POP	BC
2426+ C20C F1           	POP	AF
2427+ C20D C9           	RET
2428+ C20E              ;
2429+ C20E              ;    PAGE
2430+ C20E              ;	===>
2431+ C20E              C20E:
2432+ C20E 00           	NOP		;vom Anfangslader
2433+ C20F              	; IN	A,(0FFH)	;Lesen IM TimeOut	; OLD !!!
2434+ C20F 3E F2        	LD	A,0F2H	; NEU !!!
2435+ C211 47           	LD	B,A
2436+ C212 E6 03        	AND	003H
2437+ C214 32 63 F2     	LD	(V1.IMi),A
2438+ C217 CD DB EF     	CALL	0EFDBH
2439+ C21A ED 7B 5E F2  	LD	SP,(0F25EH)
2440+ C21E 28 0A        	JR	Z,$+12	;C22A
2441+ C220 32 6B F2     	LD	(ARET),A
2442+ C223 21 60 F2     	LD	HL,V1.SAVPC
2443+ C226 ED 72        	SBC	HL,SP
2444+ C228 28 02        	JR	Z,$+04	;C22C
2445+ C22A              	; OUT	(0FCH),A	; OLD !!!
2446+ C22A 00           	NOP
2447+ C22B 00           	NOP
2448+ C22C C1           	POP	BC
2449+ C22D 0B           	DEC	BC
2450+ C22E CD E0 EF     	CALL	0EFE0H
2451+ C231 FE 08        	CP	008H
2452+ C233 20 01        	JR	NZ,$+03	;C236
2453+ C235 0B           	DEC	BC
2454+ C236 ED 73 5E F2  	LD	(0F25EH),SP
2455+ C23A ED 43 60 F2  	LD	(V1.SAVPC),BC
2456+ C23E 31 D0 F7     	LD	SP,0F7D0H
2457+ C241 ED 5E        	IM	2
2458+ C243 3E F7        	LD	A,0F7H
2459+ C245 ED 47        	LD	I,A
2460+ C247 FB           	EI
2461+ C248 CD F9 C7     	CALL	0C7F9H
2462+ C24B 21 89 F4     	LD	HL,0F489H
2463+ C24E 11 6C F2     	LD	DE,0F26CH
2464+ C251 01 29 00     	LD	BC,00029H
2465+ C254 ED B0        	LDIR
2466+ C256 CD 1A C7     	CALL	0C71AH
2467+ C259 3A 6B F2     	LD	A,(ARET)
2468+ C25C FE 10        	CP	010H
2469+ C25E CA 39 B8     	JP	Z,0B839H
2470+ C261 CD 24 B5     	CALL	0B524H
2471+ C264 CA C4 B7     	JP	Z,0B7C4H
2472+ C267              ;	===>
2473+ C267 31 D0 F7     	LD	SP,0F7D0H		;VB.LAZR
2474+ C26A CD 1A C7     	CALL	0C71AH
2475+ C26D CD 89 C1     	CALL	0C189H
2476+ C270 01 01 03     	LD	BC,00301H
2477+ C273 CD 14 C7     	CALL	0C714H
2478+ C276 11 38 F3     	LD	DE,0F338H
2479+ C279 21 73 F0     	LD	HL,0F073H
2480+ C27C 01 64 F2     	LD	BC,V1.xI
2481+ C27F 0A           	LD	A,(BC)
2482+ C280 12           	LD	(DE),A
2483+ C281 13           	INC	DE
2484+ C282 CD B0 C3     	CALL	0C3B0H
2485+ C285 CD B0 C3     	CALL	0C3B0H
2486+ C288 0B           	DEC	BC
2487+ C289 0A           	LD	A,(BC)
2488+ C28A CD 9D C3     	CALL	0C39DH
2489+ C28D 13           	INC	DE
2490+ C28E 13           	INC	DE
2491+ C28F CD B0 C3     	CALL	0C3B0H
2492+ C292 CD A6 C3     	CALL	0C3A6H
2493+ C295 11 4C F3     	LD	DE,0F34CH
2494+ C298 CD B0 C3     	CALL	0C3B0H
2495+ C29B CD A3 C3     	CALL	0C3A3H
2496+ C29E CD FE C1     	CALL	0C1FEH
2497+ C2A1 3E DC        	LD	A,0DCH
2498+ C2A3 F5           	PUSH	AF
2499+ C2A4 CD B0 C3     	CALL	0C3B0H
2500+ C2A7 CD A3 C3     	CALL	0C3A3H
2501+ C2AA 13           	INC	DE
2502+ C2AB 13           	INC	DE
2503+ C2AC F1           	POP	AF
2504+ C2AD CB 27        	SLA	A
2505+ C2AF D4 FE C1     	CALL	NC,0C1FEH
2506+ C2B2 20 EF        	JR	NZ,$-15	;C2A3
2507+ C2B4 CD FE C1     	CALL	0C1FEH
2508+ C2B7 CD FE C1     	CALL	0C1FEH
2509+ C2BA CD B0 C3     	CALL	0C3B0H
2510+ C2BD CD A7 C3     	CALL	0C3A7H
2511+ C2C0 11 43 F3     	LD	DE,0F343H
2512+ C2C3 D5           	PUSH	DE
2513+ C2C4 C5           	PUSH	BC
2514+ C2C5 01 10 00     	LD	BC,00010H
2515+ C2C8 ED B0        	LDIR
2516+ C2CA CD FE C1     	CALL	0C1FEH
2517+ C2CD C1           	POP	BC
2518+ C2CE CD B0 C3     	CALL	0C3B0H
2519+ C2D1 CD A7 C3     	CALL	0C3A7H
2520+ C2D4 03           	INC	BC
2521+ C2D5 E1           	POP	HL
2522+ C2D6 0A           	LD	A,(BC)
2523+ C2D7 0E 98        	LD	C,098H
2524+ C2D9 36 30        	LD	(HL),030H
2525+ C2DB 07           	RLCA
2526+ C2DC 30 02        	JR	NC,$+04	;C2E0
2527+ C2DE 36 31        	LD	(HL),031H
2528+ C2E0 23           	INC	HL
2529+ C2E1 23           	INC	HL
2530+ C2E2 23           	INC	HL
2531+ C2E3 CB 21        	SLA	C
2532+ C2E5 38 F2        	JR	C,$-12	;C2D9
2533+ C2E7 07           	RLCA
2534+ C2E8 20 EF        	JR	NZ,$-15	;C2D9
2535+ C2EA 06 0B        	LD	B,00BH
2536+ C2EC CD 6C C1     	CALL	0C16CH
2537+ C2EF 3E 2D        	LD	A,02DH		;'-'
2538+ C2F1 06 40        	LD	B,040H
2539+ C2F3 CD 5F C1     	CALL	0C15FH
2540+ C2F6 06 0E        	LD	B,00EH
2541+ C2F8 CD 6C C1     	CALL	0C16CH
2542+ C2FB CD D3 C1     	CALL	0C1D3H
2543+ C2FE 01 02 03     	LD	BC,00302H		;-|  Fenster festlegen
2544+ C301 CD 14 C7     	CALL	0C714H		;-|
2545+ C304 3A 6B F2     	LD	A,(ARET)
2546+ C307 FE 10        	CP	010H
2547+ C309 CA C4 B9     	JP	Z,0B9C4H
2548+ C30C 21 A7 F0     	LD	HL,0F0A7H		;<--|
2549+ C30F CD FC C6     	CALL	0C6FCH		;   |
2550+ C312 FD 21 E6 F1  	LD	IY,0F1E6H		;   |
2551+ C316 CD B3 C7     	CALL	0C7B3H		;   |	;Programmname eingeben
2552+ C319 28 F1        	JR	Z,$-13		;---|	;C30C
2553+ C31B 21 43 F2     	LD	HL,0F243H
2554+ C31E 01 06 00     	LD	BC,00006H
2555+ C321 CD 44 CA     	CALL	0CA44H
2556+ C324 F3           	DI
2557+ C325 31 3A F1     	LD	SP,0F13AH
2558+ C328 AF           	XOR	A
2559+ C329 C1           	POP	BC
2560+ C32A C6 01        	ADD	A,001H
2561+ C32C E1           	POP	HL
2562+ C32D ED 52        	SBC	HL,DE
2563+ C32F 28 09        	JR	Z,$+11	;C33A
2564+ C331 10 F7        	DJNZ	$-07	;C32A
2565+ C333 FE 29        	CP	029H
2566+ C335 20 F2        	JR	NZ,$-12	;C329
2567+ C337 C3 05 F0     	JP	0F005H
2568+ C33A 31 92 F1     	LD	SP,0F192H
2569+ C33D E1           	POP	HL
2570+ C33E 3D           	DEC	A
2571+ C33F 20 FC        	JR	NZ,$-02	;C33D
2572+ C341 31 D0 F7     	LD	SP,0F7D0H
2573+ C344 FB           	EI
2574+ C345 28 19        	JR	Z,$+27	;C360
2575+ C347 FE 01        	CP	001H
2576+ C349 28 C1        	JR	Z,$-61	;C30C
2577+ C34B 3E 42        	LD	A,042H
2578+ C34D CD 96 C8     	CALL	0C896H
2579+ C350 18 BA        	JR	$-68	;C30C
2580+ C352 3E 02        	LD	A,002H
2581+ C354 1E 53        	LD	E,053H
2582+ C356 0E 04        	LD	C,004H
2583+ C358 21 41 F2     	LD	HL,0F241H
2584+ C35B CD 6E CA     	CALL	0CA6EH
2585+ C35E B7           	OR	A
2586+ C35F C9           	RET
2587+ C360 0D           	DEC	C
2588+ C361 20 0B        	JR	NZ,$+13	;C36E
2589+ C363 3E 20        	LD	A,020H
2590+ C365 32 6B F2     	LD	(ARET),A
2591+ C368 E5           	PUSH	HL
2592+ C369 CD 89 C3     	CALL	0C389H
2593+ C36C E1           	POP	HL
2594+ C36D E9           	JP	(HL)
2595+ C36E 0D           	DEC	C
2596+ C36F 20 05        	JR	NZ,$+07	;C376
2597+ C371 05           	DEC	B
2598+ C372 10 F4        	DJNZ	$-10	;C368
2599+ C374 18 F7        	JR	$-07	;C36D
2600+ C376 0D           	DEC	C
2601+ C377 CA 6C BE     	JP	Z,0BE6CH
2602+ C37A 0D           	DEC	C
2603+ C37B 20 F0        	JR	NZ,$-14	;C36D
2604+ C37D 0E 00        	LD	C,000H
2605+ C37F 1E 53        	LD	E,053H
2606+ C381 CD B8 C3     	CALL	0C3B8H
2607+ C384 22 A0 F1     	LD	(0F1A0H),HL
2608+ C387 18 DA        	JR	$-36	;C363
2609+ C389              ;	-----
2610+ C389 01 20 03     	LD	BC,00320H
2611+ C38C 21 22 F1     	LD	HL,0F122H
2612+ C38F C3 FF C3     	JP	0C3FFH
2613+ C392              ;	-----
2614+ C392 7E           	LD	A,(HL)
2615+ C393 18 01        	JR	$+03		;---|	;C396
2616+ C395 0A           	LD	A,(BC)		;   |
2617+ C396 F5           	PUSH	AF		;<--|
2618+ C397 CD 09 C9     	CALL	0C909H
2619+ C39A 12           	LD	(DE),A
2620+ C39B 13           	INC	DE
2621+ C39C F1           	POP	AF
2622+ C39D CD 0D C9     	CALL	0C90DH
2623+ C3A0 12           	LD	(DE),A		;<--|
2624+ C3A1 13           	INC	DE		;   |
2625+ C3A2 C9           	RET			;   |
2626+ C3A3 CD 95 C3     	CALL	0C395H		;   |
2627+ C3A6 0B           	DEC	BC		;   |
2628+ C3A7 0A           	LD	A,(BC)		;   |
2629+ C3A8 CD 96 C3     	CALL	0C396H		;   |
2630+ C3AB 3E 48        	LD	A,048H		;   |
2631+ C3AD 0B           	DEC	BC		;   |
2632+ C3AE 18 F0        	JR	$-14		;---|	;C3A0
2633+ C3B0              ;	-----
2634+ C3B0 C5           	PUSH	BC
2635+ C3B1 01 03 00     	LD	BC,00003H
2636+ C3B4 ED B0        	LDIR
2637+ C3B6 C1           	POP	BC
2638+ C3B7 C9           	RET
2639+ C3B8              ;	-----
2640+ C3B8 CD DB C3     	CALL	0C3DBH
2641+ C3BB 42           	LD	B,D
2642+ C3BC CD DB C3     	CALL	0C3DBH
2643+ C3BF 62           	LD	H,D
2644+ C3C0 CD DB C3     	CALL	0C3DBH
2645+ C3C3 6A           	LD	L,D
2646+ C3C4 04           	INC	B
2647+ C3C5 10 05        	DJNZ	$+07	;C3CC
2648+ C3C7 3E 04        	LD	A,004H
2649+ C3C9 C3 6E CA     	JP	0CA6EH
2650+ C3CC              ;	-----
2651+ C3CC CD DB C3     	CALL	0C3DBH
2652+ C3CF 0D           	DEC	C
2653+ C3D0 CD E5 EF     	CALL	0EFE5H
2654+ C3D3 00           	NOP
2655+ C3D4 00           	NOP
2656+ C3D5 23           	INC	HL
2657+ C3D6 0C           	INC	C
2658+ C3D7 10 F3        	DJNZ	$-11	;C3CC
2659+ C3D9 18 DD        	JR	$-33	;C3B8
2660+ C3DB              ;	-----
2661+ C3DB AF           	XOR	A
2662+ C3DC C5           	PUSH	BC
2663+ C3DD 4B           	LD	C,E
2664+ C3DE CD 6E CA     	CALL	0CA6EH
2665+ C3E1 59           	LD	E,C
2666+ C3E2 C1           	POP	BC
2667+ C3E3 FE 03        	CP	003H
2668+ C3E5 20 0D        	JR	NZ,$+15	;C3F4
2669+ C3E7 3E 54        	LD	A,054H
2670+ C3E9 CD 96 C8     	CALL	0C896H
2671+ C3EC 3E 04        	LD	A,004H
2672+ C3EE CD 6E CA     	CALL	0CA6EH
2673+ C3F1 C3 67 C2     	JP	VB.LAZR
2674+ C3F4 FE 01        	CP	001H
2675+ C3F6 28 F4        	JR	Z,$-10	;C3EC
2676+ C3F8 C9           	RET
2677+ C3F9              ;	-----
2678+ C3F9 01 07 0D     	LD	BC,00D07H
2679+ C3FC 21 B0 F0     	LD	HL,0F0B0H
2680+ C3FF CD 10 C7     	CALL	0C710H
2681+ C402 C3 FC C6     	JP	0C6FCH
2682+ C405              ;
2683+ C405              ;    PAGE
2684+ C405              ;	===>
2685+ C405              AS:
2686+ C405              C405:
2687+ C405 CD 73 C5     	CALL	0C573H		;"AS    "   PN CE
2688+ C408 CD 6D C5     	CALL	0C56DH
2689+ C40B 21 AB C5     	LD	HL,0C5ABH
2690+ C40E CD 99 C5     	CALL	0C599H
2691+ C411 7A           	LD	A,D
2692+ C412 B7           	OR	A
2693+ C413 20 F3        	JR	NZ,$-11	;C408
2694+ C415 7B           	LD	A,E
2695+ C416 FE 10        	CP	010H
2696+ C418 30 EE        	JR	NC,$-16	;C408
2697+ C41A F6 50        	OR	050H
2698+ C41C 21 D0 F4     	LD	HL,0F4D0H
2699+ C41F 11 06 00     	LD	DE,00006H
2700+ C422 06 0D        	LD	B,00DH
2701+ C424 BE           	CP	(HL)
2702+ C425 28 0A        	JR	Z,$+12	;C431
2703+ C427 19           	ADD	HL,DE
2704+ C428 10 FA        	DJNZ	$-04	;C424
2705+ C42A 3E 50        	LD	A,050H
2706+ C42C CD 94 C5     	CALL	0C594H
2707+ C42F 18 D7        	JR	$-39	;C408
2708+ C431 48           	LD	C,B
2709+ C432 06 00        	LD	B,000H
2710+ C434 21 B1 F4     	LD	HL,0F4B1H
2711+ C437 09           	ADD	HL,BC
2712+ C438 5F           	LD	E,A
2713+ C439 56           	LD	D,(HL)
2714+ C43A D5           	PUSH	DE
2715+ C43B E5           	PUSH	HL
2716+ C43C 3E 53        	LD	A,053H
2717+ C43E CD 64 CC     	CALL	0CC64H
2718+ C441 28 0D        	JR	Z,$+15	;C450
2719+ C443 3E 73        	LD	A,073H
2720+ C445 CD 64 CC     	CALL	0CC64H
2721+ C448 28 06        	JR	Z,$+08	;C450
2722+ C44A AF           	XOR	A
2723+ C44B CD 94 C5     	CALL	0C594H
2724+ C44E 18 40        	JR	$+66	;C490
2725+ C450 2B           	DEC	HL
2726+ C451 C1           	POP	BC
2727+ C452 D1           	POP	DE
2728+ C453 7A           	LD	A,D
2729+ C454 E6 60        	AND	060H
2730+ C456 FE 40        	CP	040H
2731+ C458 20 02        	JR	NZ,$+04	;C45C
2732+ C45A CB EA        	SET	5,D
2733+ C45C 72           	LD	(HL),D
2734+ C45D 3E 53        	LD	A,053H
2735+ C45F 02           	LD	(BC),A
2736+ C460 18 2E        	JR	$+48	;C490
2737+ C462              ;
2738+ C462              ;    PAGE
2739+ C462              ;	===>
2740+ C462              LOAD:
2741+ C462              C462:
2742+ C462 CD 73 C5     	CALL	0C573H		;"LOAD  "
2743+ C465 CD 6D C5     	CALL	0C56DH
2744+ C468 21 CA C5     	LD	HL,0C5CAH
2745+ C46B FD 21 E6 F1  	LD	IY,0F1E6H
2746+ C46F CD A1 C5     	CALL	0C5A1H
2747+ C472 21 DE C5     	LD	HL,0C5DEH
2748+ C475 FD 21 5B C6  	LD	IY,0C65BH
2749+ C479 CD A1 C5     	CALL	0C5A1H
2750+ C47C 3A 66 F2     	LD	A,(0F266H)
2751+ C47F 21 41 F2     	LD	HL,0F241H
2752+ C482 5F           	LD	E,A
2753+ C483 3E 02        	LD	A,002H
2754+ C485 D5           	PUSH	DE
2755+ C486 CD 8B C5     	CALL	0C58BH
2756+ C489 D1           	POP	DE
2757+ C48A B7           	OR	A
2758+ C48B 28 05        	JR	Z,$+07	;C492
2759+ C48D 3D           	DEC	A
2760+ C48E 20 0C        	JR	NZ,$+14	;C49C
2761+ C490 18 6C        	JR	$+110	;C4FE
2762+ C492 0E 01        	LD	C,001H
2763+ C494 CD B8 C3     	CALL	0C3B8H
2764+ C497 22 60 F2     	LD	(V1.SAVPC),HL
2765+ C49A 18 62        	JR	$+100	;C4FE
2766+ C49C 3E 42        	LD	A,042H
2767+ C49E CD 94 C5     	CALL	0C594H
2768+ C4A1 18 C2        	JR	$-60	;C465
2769+ C4A3              ;    PAGE
2770+ C4A3              ;	===>
2771+ C4A3              SAVE:
2772+ C4A3              C4A3:
2773+ C4A3 CD 73 C5     	CALL	0C573H		;"SAVE  "
2774+ C4A6 CD 6D C5     	CALL	0C56DH
2775+ C4A9 21 F1 C5     	LD	HL,0C5F1H
2776+ C4AC FD 21 E6 F1  	LD	IY,0F1E6H
2777+ C4B0 CD A1 C5     	CALL	0C5A1H
2778+ C4B3 21 06 C6     	LD	HL,0C606H
2779+ C4B6 FD 21 5B C6  	LD	IY,0C65BH
2780+ C4BA CD A1 C5     	CALL	0C5A1H
2781+ C4BD 3A 66 F2     	LD	A,(0F266H)
2782+ C4C0 5F           	LD	E,A
2783+ C4C1 3E 03        	LD	A,003H
2784+ C4C3 21 41 F2     	LD	HL,0F241H
2785+ C4C6 CD 8B C5     	CALL	0C58BH
2786+ C4C9 3D           	DEC	A
2787+ C4CA 28 32        	JR	Z,$+52	;C4FE
2788+ C4CC 3C           	INC	A
2789+ C4CD C2 65 C5     	JP	NZ,0C565H
2790+ C4D0 00           	NOP
2791+ C4D1 21 19 C6     	LD	HL,0C619H
2792+ C4D4 CD 99 C5     	CALL	0C599H
2793+ C4D7 D5           	PUSH	DE
2794+ C4D8 21 2B C6     	LD	HL,0C62BH
2795+ C4DB CD 99 C5     	CALL	0C599H
2796+ C4DE D5           	PUSH	DE
2797+ C4DF 21 35 C6     	LD	HL,0C635H
2798+ C4E2 CD 8E C5     	CALL	0C58EH
2799+ C4E5 F5           	PUSH	AF
2800+ C4E6 28 0A        	JR	Z,$+12	;C4F2
2801+ C4E8 21 48 C6     	LD	HL,0C648H
2802+ C4EB CD 99 C5     	CALL	0C599H
2803+ C4EE ED 53 22 F2  	LD	(0F222H),DE
2804+ C4F2 F1           	POP	AF
2805+ C4F3 E1           	POP	HL
2806+ C4F4 D1           	POP	DE
2807+ C4F5 F5           	PUSH	AF
2808+ C4F6 E5           	PUSH	HL
2809+ C4F7 AF           	XOR	A
2810+ C4F8 ED 52        	SBC	HL,DE
2811+ C4FA 38 5F        	JR	C,$+97	;C55B
2812+ C4FC 18 02        	JR	$+04	;C500
2813+ C4FE 18 47        	JR	$+73	;C547
2814+ C500 06 7C        	LD	B,07CH
2815+ C502 7C           	LD	A,H
2816+ C503 B7           	OR	A
2817+ C504 20 06        	JR	NZ,$+08	;C50C
2818+ C506 7D           	LD	A,L
2819+ C507 FE 7C        	CP	07CH
2820+ C509 30 01        	JR	NC,$+03	;C50C
2821+ C50B 45           	LD	B,L
2822+ C50C 04           	INC	B
2823+ C50D EB           	EX	DE,HL
2824+ C50E 78           	LD	A,B
2825+ C50F CD 49 C5     	CALL	0C549H
2826+ C512 7C           	LD	A,H
2827+ C513 CD 49 C5     	CALL	0C549H
2828+ C516 7D           	LD	A,L
2829+ C517 CD 49 C5     	CALL	0C549H
2830+ C51A CD 81 E8     	CALL	E881
2831+ C51D CD 49 C5     	CALL	0C549H
2832+ C520 23           	INC	HL
2833+ C521 10 F7        	DJNZ	$-07	;C51A
2834+ C523 EB           	EX	DE,HL
2835+ C524 E1           	POP	HL
2836+ C525 E5           	PUSH	HL
2837+ C526 AF           	XOR	A
2838+ C527 ED 52        	SBC	HL,DE
2839+ C529 30 D5        	JR	NC,$-41	;C500
2840+ C52B E1           	POP	HL
2841+ C52C F1           	POP	AF
2842+ C52D 28 A2        	JR	Z,$-92	;C4D1
2843+ C52F AF           	XOR	A
2844+ C530 CD 49 C5     	CALL	0C549H
2845+ C533 2A 22 F2     	LD	HL,(0F222H)
2846+ C536 7C           	LD	A,H
2847+ C537 CD 49 C5     	CALL	0C549H
2848+ C53A 7D           	LD	A,L
2849+ C53B CD 49 C5     	CALL	0C549H
2850+ C53E 3A 66 F2     	LD	A,(0F266H)
2851+ C541 5F           	LD	E,A
2852+ C542 3E 05        	LD	A,005H
2853+ C544 CD 8B C5     	CALL	0C58BH
2854+ C547 18 5F        	JR	$+97	;C5A8
2855+ C549 D5           	PUSH	DE
2856+ C54A 57           	LD	D,A
2857+ C54B 3A 66 F2     	LD	A,(0F266H)
2858+ C54E 5F           	LD	E,A
2859+ C54F 3E 01        	LD	A,001H
2860+ C551 CD 8B C5     	CALL	0C58BH
2861+ C554 D1           	POP	DE
2862+ C555 FE 01        	CP	001H
2863+ C557 C0           	RET	NZ
2864+ C558 C3 7B EF     	JP	0EF7BH
2865+ C55B 3E 02        	LD	A,002H
2866+ C55D E1           	POP	HL
2867+ C55E E1           	POP	HL
2868+ C55F CD A7 C8     	CALL	0C8A7H
2869+ C562 C3 D1 C4     	JP	0C4D1H
2870+ C565 3E 43        	LD	A,043H
2871+ C567 CD 94 C5     	CALL	0C594H
2872+ C56A C3 A3 C4     	JP	0C4A3H
2873+ C56D 01 1F 03     	LD	BC,0031FH
2874+ C570 C3 8C C3     	JP	0C38CH
2875+ C573 3E 03        	LD	A,003H
2876+ C575 21 20 C8     	LD	HL,0C820H
2877+ C578 CD 89 C5     	CALL	0C589H
2878+ C57B 3E 08        	LD	A,008H
2879+ C57D 21 5F C6     	LD	HL,0C65FH
2880+ C580 18 07        	JR	$+09	;C589
2881+ C582 3E 0D        	LD	A,00DH
2882+ C584 01 FF FF     	LD	BC,0FFFFH
2883+ C587 16 03        	LD	D,003H
2884+ C589 1E 44        	LD	E,044H
2885+ C58B C3 6E CA     	JP	0CA6EH
2886+ C58E CD 82 C5     	CALL	0C582H
2887+ C591 C3 3B C8     	JP	X0.J
2888+ C594              ;
2889+ C594              C594:
2890+ C594 CD 96 C8     	CALL	0C896H
2891+ C597 18 0E        	JR	$+16	;C5A7
2892+ C599 CD 82 C5     	CALL	0C582H
2893+ C59C CD 71 C8     	CALL	0C871H
2894+ C59F 18 B6        	JR	$-72	;C557
2895+ C5A1 CD 82 C5     	CALL	0C582H
2896+ C5A4 CD B3 C7     	CALL	0C7B3H
2897+ C5A7 C0           	RET	NZ
2898+ C5A8 C3 67 C2     	JP	VB.LAZR
2899+ C5AB              ;
2900+ C5AB              ;    PAGE
2901+ C5AB              ;	-----
2902+ C5AB              C5AB:
2903+ C5AB 1A           	DB	01AH
2904+ C5AC 0A           	DB	00AH
2905+ C5AD 1A           	DB	01AH
2906+ C5AE 09           	DB	009H
2907+ C5AF 09           	DB	009H
2908+ C5B0 08           	DB	008H
2909+ C5B1 08           	DB	008H
2910+ C5B2 08           	DB	008H
2911+ C5B3 44 45 56 49  	DB	"DEVICE: S"
2911+ C5B7 43 45 3A 20
2911+ C5BB 53
2912+ C5BC 1A           	DB	01AH
2913+ C5BD 0D           	DB	00DH
2914+ C5BE 09           	DB	009H
2915+ C5BF 09           	DB	009H
2916+ C5C0 08           	DB	008H
2917+ C5C1 08           	DB	008H
2918+ C5C2 44 52 49 56  	DB	"DRIVE: "
2918+ C5C6 45 3A 20
2919+ C5C9 03           	DB	003H
2920+ C5CA 1A           	DB	01AH
2921+ C5CB 0A           	DB	00AH
2922+ C5CC 1A           	DB	01AH
2923+ C5CD 09           	DB	009H
2924+ C5CE 20 20 20 20  	DB	"    FILE NAME: "
2924+ C5D2 46 49 4C 45
2924+ C5D6 20 4E 41 4D
2924+ C5DA 45 3A 20
2925+ C5DD 03           	DB	003H
2926+ C5DE 1A           	DB	01AH
2927+ C5DF 0D           	DB	00DH
2928+ C5E0 09           	DB	009H
2929+ C5E1 20 20 46 52  	DB	"  FROM DEVICE: "
2929+ C5E5 4F 4D 20 44
2929+ C5E9 45 56 49 43
2929+ C5ED 45 3A 20
2930+ C5F0 03           	DB	003H
2931+ C5F1 0C           	DB	00CH
2932+ C5F2 1A           	DB	01AH
2933+ C5F3 1A           	DB	01AH
2934+ C5F4 1A           	DB	01AH
2935+ C5F5 09           	DB	009H
2936+ C5F6 20 20 20 20  	DB	"    FILE NAME: "
2936+ C5FA 46 49 4C 45
2936+ C5FE 20 4E 41 4D
2936+ C602 45 3A 20
2937+ C605 03           	DB	003H
2938+ C606 1A           	DB	01AH
2939+ C607 0D           	DB	00DH
2940+ C608 09           	DB	009H
2941+ C609 20 20 20 20  	DB	"    TO DEVICE: "
2941+ C60D 54 4F 20 44
2941+ C611 45 56 49 43
2941+ C615 45 3A 20
2942+ C618 03           	DB	003H
2943+ C619 0C           	DB	00CH
2944+ C61A 1A           	DB	01AH
2945+ C61B 1A           	DB	01AH
2946+ C61C 1A           	DB	01AH
2947+ C61D 1A           	DB	01AH
2948+ C61E 1A           	DB	01AH
2949+ C61F 09           	DB	009H
2950+ C620 09           	DB	009H
2951+ C621 08           	DB	008H
2952+ C622 08           	DB	008H
2953+ C623 42 45 47 49  	DB	"BEGIN: "
2953+ C627 4E 3A 20
2954+ C62A 03           	DB	003H
2955+ C62B 1A           	DB	01AH
2956+ C62C 0D           	DB	00DH
2957+ C62D 09           	DB	009H
2958+ C62E 09           	DB	009H
2959+ C62F 45 4E 44 3A  	DB	"END: "
2959+ C633 20
2960+ C634 03           	DB	003H
2961+ C635 1A           	DB	01AH
2962+ C636 0D           	DB	00DH
2963+ C637 09           	DB	009H
2964+ C638 20 20 20 20  	DB	"     CONTINUE: "
2964+ C63C 20 43 4F 4E
2964+ C640 54 49 4E 55
2964+ C644 45 3A 20
2965+ C647 03           	DB	003H
2966+ C648 1A           	DB	01AH
2967+ C649 0D           	DB	00DH
2968+ C64A 09           	DB	009H
2969+ C64B 53 54 41 52  	DB	"START"
2969+ C64F 54
2970+ C650 2E           	DB	02EH
2971+ C651 41 44 44 52  	DB	"ADDRESS: "
2971+ C655 45 53 53 3A
2971+ C659 20
2972+ C65A 03           	DB	003H
2973+ C65B              ;
2974+ C65B 66           	DB	066H
2975+ C65C F2           	DB	0F2H
2976+ C65D 66           	DB	066H
2977+ C65E F2           	DB	0F2H
2978+ C65F 02           	DB	002H
2979+ C660 1F           	DB	01FH
2980+ C661 29           	DB	029H
2981+ C662              ;
2982+ C662              ;    PAGE
2983+ C662              ;	===>
2984+ C662              GOTO:
2985+ C662              C662:
2986+ C662 CD F9 C3     	CALL	0C3F9H		;"GOTO  "   PN XK
2987+ C665 CD C9 C7     	CALL	0C7C9H
2988+ C668 ED 53 60 F2  	LD	(V1.SAVPC),DE
2989+ C66C 01 F0 04     	LD	BC,004F0H
2990+ C66F 3E 47        	LD	A,047H
2991+ C671 16 00        	LD	D,000H
2992+ C673              	; OUT	(C),A	; OLD !!
2993+ C673 00           	NOP
2994+ C674 00           	NOP
2995+ C675              	; OUT	(C),D	; OLD !!
2996+ C675 00           	NOP
2997+ C676 00           	NOP
2998+ C677 0C           	INC	C
2999+ C678 10 F9        	DJNZ	$-05	;C673
3000+ C67A              ;	-----
3001+ C67A              ;	===>
3002+ C67A              GO:
3003+ C67A              C67A:
3004+ C67A 3E 1F        	LD	A,01FH		;"GO    "
3005+ C67C CD 2E C8     	CALL	X0.AN1
3006+ C67F 3E 02        	LD	A,002H
3007+ C681 32 6B F2     	LD	(ARET),A
3008+ C684 AF           	XOR	A
3009+ C685 32 6A F4     	LD	(0F46AH),A
3010+ C688 21 9A F2     	LD	HL,0F29AH
3011+ C68B 11 04 00     	LD	DE,00004H
3012+ C68E 06 07        	LD	B,007H
3013+ C690 36 7F        	LD	(HL),07FH
3014+ C692 19           	ADD	HL,DE
3015+ C693 10 FB        	DJNZ	$-03	;C690
3016+ C695 CD 24 B5     	CALL	0B524H
3017+ C698 CD 36 BA     	CALL	0BA36H
3018+ C69B F3           	DI
3019+ C69C 3A 63 F2     	LD	A,(V1.IMi)
3020+ C69F FE 01        	CP	001H
3021+ C6A1 28 06        	JR	Z,$+08	;C6A9
3022+ C6A3 30 08        	JR	NC,$+10	;C6AD
3023+ C6A5 ED 46        	IM	0
3024+ C6A7 18 06        	JR	$+08	;C6AF
3025+ C6A9 ED 56        	IM	1
3026+ C6AB 18 02        	JR	$+04	;C6AF
3027+ C6AD ED 5E        	IM	2
3028+ C6AF 21 6C F2     	LD	HL,0F26CH
3029+ C6B2 11 89 F4     	LD	DE,0F489H
3030+ C6B5 01 29 00     	LD	BC,00029H
3031+ C6B8 ED B0        	LDIR
3032+ C6BA 3A 62 F2     	LD	A,(V1.IREG)
3033+ C6BD ED 47        	LD	I,A
3034+ C6BF 3A 64 F2     	LD	A,(V1.xI)
3035+ C6C2 FE 45        	CP	045H
3036+ C6C4 3E F3        	LD	A,0F3H
3037+ C6C6 20 02        	JR	NZ,$+04	;C6CA
3038+ C6C8 3E FB        	LD	A,0FBH
3039+ C6CA 32 22 F2     	LD	(0F222H),A
3040+ C6CD 31 4A F2     	LD	SP,0F24AH
3041+ C6D0 F1           	POP	AF
3042+ C6D1 E1           	POP	HL
3043+ C6D2 D1           	POP	DE
3044+ C6D3 C1           	POP	BC
3045+ C6D4 D9           	EXX
3046+ C6D5 08           	EX	AF,AF'
3047+ C6D6 2A 60 F2     	LD	HL,(V1.SAVPC)
3048+ C6D9 22 26 F2     	LD	(0F226H),HL
3049+ C6DC 21 D3 FE     	LD	HL,0FED3H
3050+ C6DF 22 23 F2     	LD	(0F223H),HL
3051+ C6E2 3E C3        	LD	A,0C3H
3052+ C6E4 32 25 F2     	LD	(0F225H),A
3053+ C6E7 3E 01        	LD	A,001H
3054+ C6E9              	; OUT	(083H),A	; CTC auf ZRE	; OLD !!
3055+ C6E9 00           	NOP
3056+ C6EA 00           	NOP
3057+ C6EB F1           	POP	AF
3058+ C6EC E1           	POP	HL
3059+ C6ED D1           	POP	DE
3060+ C6EE C1           	POP	BC
3061+ C6EF FD E1        	POP	IY
3062+ C6F1 DD E1        	POP	IX
3063+ C6F3 ED 7B 5E F2  	LD	SP,(0F25EH)
3064+ C6F7              	; OUT	(0F8H),A	; OLD !!!
3065+ C6F7 00           	NOP
3066+ C6F8 00           	NOP
3067+ C6F9 C3 22 F2     	JP	0F222H
3068+ C6FC              ;
3069+ C6FC              ;    PAGE
3070+ C6FC              C6FC:
3071+ C6FC C5           	PUSH	BC		;PN X0
3072+ C6FD 01 00 00     	LD	BC,00000H
3073+ C700 CD 05 C7     	CALL	0C705H
3074+ C703 C1           	POP	BC
3075+ C704 C9           	RET
3076+ C705              ;	-----
3077+ C705 3E 0D        	LD	A,00DH
3078+ C707 D5           	PUSH	DE
3079+ C708 11 44 04     	LD	DE,00444H
3080+ C70B CD 6E CA     	CALL	0CA6EH
3081+ C70E D1           	POP	DE
3082+ C70F C9           	RET
3083+ C710 3E 0B        	LD	A,00BH
3084+ C712 18 F3        	JR	$-11	;C707
3085+ C714 3E 0A        	LD	A,00AH
3086+ C716 18 EF        	JR	$-15	;C707
3087+ C718 41           	LD	B,C
3088+ C719 00           	NOP
3089+ C71A 3E 03        	LD	A,003H
3090+ C71C 21 18 C7     	LD	HL,0C718H
3091+ C71F 18 E6        	JR	$-24	;C707
3092+ C721              ;
3093+ C721              ;    PAGE
3094+ C721              ;	-----
3095+ C721              C721:
3096+ C721 C5           	PUSH	BC		;X0.EIN   Eingabeprogr. (Tast./Bildsch.)
3097+ C722 D5           	PUSH	DE
3098+ C723 E5           	PUSH	HL
3099+ C724 FD 5E 00     	LD	E,(IY+00)
3100+ C727 FD 56 01     	LD	D,(IY+01)
3101+ C72A FD 4E 02     	LD	C,(IY+02)
3102+ C72D FD 46 03     	LD	B,(IY+03)
3103+ C730 03           	INC	BC
3104+ C731 6B           	LD	L,E
3105+ C732 62           	LD	H,D
3106+ C733 3C           	INC	A
3107+ C734 28 0F        	JR	Z,$+17	;C745
3108+ C736 69           	LD	L,C
3109+ C737 60           	LD	H,B
3110+ C738 36 20        	LD	(HL),020H
3111+ C73A B7           	OR	A
3112+ C73B ED 52        	SBC	HL,DE
3113+ C73D 28 04        	JR	Z,$+06	;C743
3114+ C73F 19           	ADD	HL,DE
3115+ C740 2B           	DEC	HL
3116+ C741 18 F5        	JR	$-09	;C738
3117+ C743 3D           	DEC	A
3118+ C744 19           	ADD	HL,DE
3119+ C745 B7           	OR	A
3120+ C746 28 02        	JR	Z,$+04	;C74A
3121+ C748 77           	LD	(HL),A
3122+ C749 23           	INC	HL
3123+ C74A CB FE        	SET	7,(HL)
3124+ C74C CD D2 C7     	CALL	0C7D2H
3125+ C74F CB BE        	RES	7,(HL)
3126+ C751 CD 1B C8     	CALL	X0.TSCL0
3127+ C754 C5           	PUSH	BC
3128+ C755 D5           	PUSH	DE
3129+ C756 E5           	PUSH	HL
3130+ C757 FE 20        	CP	020H
3131+ C759 30 41        	JR	NC,$+67	;C79C
3132+ C75B FE 08        	CP	008H
3133+ C75D 20 08        	JR	NZ,$+10	;C767
3134+ C75F ED 52        	SBC	HL,DE
3135+ C761 28 23        	JR	Z,$+37	;C786
3136+ C763 E1           	POP	HL
3137+ C764 2B           	DEC	HL
3138+ C765 18 20        	JR	$+34	;C787
3139+ C767 FE 18        	CP	018H
3140+ C769 20 08        	JR	NZ,$+10	;C773
3141+ C76B ED 42        	SBC	HL,BC
3142+ C76D 28 17        	JR	Z,$+25	;C786
3143+ C76F E1           	POP	HL
3144+ C770 23           	INC	HL
3145+ C771 18 14        	JR	$+22	;C787
3146+ C773 FE 1D        	CP	01DH
3147+ C775 20 0F        	JR	NZ,$+17	;C786
3148+ C777 59           	LD	E,C
3149+ C778 50           	LD	D,B
3150+ C779 EB           	EX	DE,HL
3151+ C77A ED 52        	SBC	HL,DE
3152+ C77C 28 08        	JR	Z,$+10	;C786
3153+ C77E 4D           	LD	C,L
3154+ C77F 44           	LD	B,H
3155+ C780 EB           	EX	DE,HL
3156+ C781 54           	LD	D,H
3157+ C782 5D           	LD	E,L
3158+ C783 23           	INC	HL
3159+ C784 ED B0        	LDIR
3160+ C786 E1           	POP	HL
3161+ C787 D1           	POP	DE
3162+ C788 C1           	POP	BC
3163+ C789 FE 1E        	CP	01EH
3164+ C78B 28 08        	JR	Z,$+10	;C795
3165+ C78D FE 1F        	CP	01FH
3166+ C78F 28 04        	JR	Z,$+06	;C795
3167+ C791 FE 1A        	CP	01AH
3168+ C793 20 B5        	JR	NZ,$-73	;C74A
3169+ C795 CD D2 C7     	CALL	0C7D2H
3170+ C798 E1           	POP	HL
3171+ C799 D1           	POP	DE
3172+ C79A C1           	POP	BC
3173+ C79B C9           	RET
3174+ C79C FE 80        	CP	080H
3175+ C79E 30 B1        	JR	NC,$-77	;C751
3176+ C7A0 77           	LD	(HL),A
3177+ C7A1 B7           	OR	A
3178+ C7A2 ED 42        	SBC	HL,BC
3179+ C7A4 20 C9        	JR	NZ,$-53	;C76F
3180+ C7A6 CD D2 C7     	CALL	0C7D2H
3181+ C7A9 3E 05        	LD	A,005H
3182+ C7AB CD A7 C8     	CALL	0C8A7H
3183+ C7AE E1           	POP	HL
3184+ C7AF 36 20        	LD	(HL),020H
3185+ C7B1 18 D4        	JR	$-42	;C787
3186+ C7B3              ;	-----
3187+ C7B3 AF           	XOR	A
3188+ C7B4 CD 21 C7     	CALL	0C721H
3189+ C7B7 FE 1E        	CP	01EH
3190+ C7B9 28 F8        	JR	Z,$-06	;C7B3
3191+ C7BB FE 1F        	CP	01FH
3192+ C7BD C9           	RET
3193+ C7BE 3E FF        	LD	A,0FFH
3194+ C7C0 18 F2        	JR	$-12	;C7B4
3195+ C7C2              ;	-----
3196+ C7C2 CD B3 C7     	CALL	0C7B3H
3197+ C7C5 CA 67 C2     	JP	Z,VB.LAZR
3198+ C7C8 C9           	RET
3199+ C7C9              ;
3200+ C7C9 FD 21 EA F1  	LD	IY,0F1EAH
3201+ C7CD CD 75 C8     	CALL	0C875H
3202+ C7D0 18 F3        	JR	$-11	;C7C5
3203+ C7D2              ;	-----
3204+ C7D2 F5           	PUSH	AF
3205+ C7D3 E5           	PUSH	HL
3206+ C7D4 D5           	PUSH	DE
3207+ C7D5 C5           	PUSH	BC
3208+ C7D6 CD 10 C7     	CALL	0C710H
3209+ C7D9 C5           	PUSH	BC
3210+ C7DA CD 10 C7     	CALL	0C710H
3211+ C7DD 3E 13        	LD	A,013H
3212+ C7DF CD 2E C8     	CALL	X0.AN1
3213+ C7E2 C1           	POP	BC
3214+ C7E3 E1           	POP	HL
3215+ C7E4 E5           	PUSH	HL
3216+ C7E5 C5           	PUSH	BC
3217+ C7E6 B7           	OR	A
3218+ C7E7 ED 52        	SBC	HL,DE
3219+ C7E9 23           	INC	HL
3220+ C7EA 4D           	LD	C,L
3221+ C7EB 44           	LD	B,H
3222+ C7EC EB           	EX	DE,HL
3223+ C7ED CD 22 C8     	CALL	X0.ANZG	;0C822H
3224+ C7F0 C1           	POP	BC
3225+ C7F1 CD 10 C7     	CALL	0C710H
3226+ C7F4 C1           	POP	BC
3227+ C7F5 D1           	POP	DE
3228+ C7F6 E1           	POP	HL
3229+ C7F7 F1           	POP	AF
3230+ C7F8 C9           	RET
3231+ C7F9              ;	-----
3232+ C7F9 D5           	PUSH	DE
3233+ C7FA E5           	PUSH	HL
3234+ C7FB 3E 02        	LD	A,002H
3235+ C7FD 1E 4B        	LD	E,04BH
3236+ C7FF 21 20 C8     	LD	HL,0C820H
3237+ C802 CD 6E CA     	CALL	0CA6EH
3238+ C805 E1           	POP	HL
3239+ C806 D1           	POP	DE
3240+ C807 C9           	RET
3241+ C808              ;	-----
3242+ C808              C808:
3243+ C808 FB           	EI		;X0.TSCL	Zeichen von Tast. in den Puffer
3244+ C809 3E 00        	LD	A,000H
3245+ C80B D5           	PUSH	DE
3246+ C80C 1E 4B        	LD	E,04BH
3247+ C80E CD 6E CA     	CALL	0CA6EH
3248+ C811 3A 18 F8     	LD	A,(0F818H)
3249+ C814 B7           	OR	A
3250+ C815 7A           	LD	A,D
3251+ C816 CC 19 F8     	CALL	Z,0F819H
3252+ C819 D1           	POP	DE
3253+ C81A C9           	RET
3254+ C81B              ;
3255+ C81B              C81B:
3256+ C81B CD F9 C7     	CALL	0C7F9H		;X0.TSCL0	mit Loeschen Puffer
3257+ C81E 18 E8        	JR	$-22	;8808
3258+ C820              ;	-----
3259+ C820 41           	LD	B,C
3260+ C821 00           	NOP
3261+ C822              ;	-----
3262+ C822              C822:
3263+ C822 D5           	PUSH	DE		;X0.ANZG	Speicherinhalt anzeigen
3264+ C823 11 44 00     	LD	DE,00044H
3265+ C826 3E 0D        	LD	A,00DH
3266+ C828 CD 6E CA     	CALL	0CA6EH
3267+ C82B D1           	POP	DE
3268+ C82C 09           	ADD	HL,BC
3269+ C82D C9           	RET
3270+ C82E              ;	-----
3271+ C82E              C82E:
3272+ C82E F5           	PUSH	AF		;X0.AN1	Zeichen auf akt. Pos. auf BS; Pos.+1
3273+ C82F D5           	PUSH	DE
3274+ C830 57           	LD	D,A
3275+ C831 1E 44        	LD	E,044H
3276+ C833 3E 01        	LD	A,001H
3277+ C835 CD 6E CA     	CALL	0CA6EH
3278+ C838 D1           	POP	DE
3279+ C839 F1           	POP	AF
3280+ C83A C9           	RET
3281+ C83B              ;	-----
3282+ C83B              C83B:
3283+ C83B E5           	PUSH	HL		;X0.J	Anzeige / Abfrage Y/N mit Cursor
3284+ C83C C5           	PUSH	BC
3285+ C83D CD 10 C7     	CALL	0C710H
3286+ C840 26 D9        	LD	H,0D9H
3287+ C842 C5           	PUSH	BC
3288+ C843 CD 10 C7     	CALL	0C710H
3289+ C846 C1           	POP	BC
3290+ C847 7C           	LD	A,H
3291+ C848 CD 2E C8     	CALL	X0.AN1
3292+ C84B CD 1B C8     	CALL	X0.TSCL0
3293+ C84E FE 59        	CP	059H
3294+ C850 28 EE        	JR	Z,$-16	;8840
3295+ C852 FE 4E        	CP	04EH
3296+ C854 28 17        	JR	Z,$+25	;886D
3297+ C856 FE 1A        	CP	01AH
3298+ C858 20 F1        	JR	NZ,$-13	;884B
3299+ C85A CD 10 C7     	CALL	0C710H
3300+ C85D 3E 11        	LD	A,011H
3301+ C85F CD 2E C8     	CALL	X0.AN1
3302+ C862 7C           	LD	A,H
3303+ C863 C1           	POP	BC
3304+ C864 E1           	POP	HL
3305+ C865 FE D9        	CP	0D9H
3306+ C867 C9           	RET
3307+ C868              ;	-----
3308+ C868 E5           	PUSH	HL		;X0.N
3309+ C869 C5           	PUSH	BC
3310+ C86A CD 10 C7     	CALL	0C710H
3311+ C86D 26 CE        	LD	H,0CEH
3312+ C86F 18 D1        	JR	$-45	;8842
3313+ C871              ;	-----
3314+ C871 FD 21 EA F1  	LD	IY,0F1EAH		;X0.ADR	Adresseingabe
3315+ C875 E5           	PUSH	HL
3316+ C876 C5           	PUSH	BC
3317+ C877 21 22 F2     	LD	HL,0F222H
3318+ C87A 06 12        	LD	B,012H
3319+ C87C 36 20        	LD	(HL),020H
3320+ C87E 23           	INC	HL
3321+ C87F 10 FB        	DJNZ	$-03	;887C
3322+ C881 C1           	POP	BC
3323+ C882 E1           	POP	HL
3324+ C883 CD B3 C7     	CALL	0C7B3H
3325+ C886 C8           	RET	Z
3326+ C887 CD 1C C9     	CALL	0C91CH
3327+ C88A 3E 1A        	LD	A,01AH
3328+ C88C CA BB C7     	JP	Z,0C7BBH
3329+ C88F 3E 02        	LD	A,002H
3330+ C891 CD A7 C8     	CALL	0C8A7H
3331+ C894 18 DF        	JR	$-31	;8875
3332+ C896              ;	-----
3333+ C896 D5           	PUSH	DE		;X0.FEEXT	Fehleranzeige auf Bildschirm
3334+ C897 1E 2B        	LD	E,02BH		;	+++ ERROR xx
3335+ C899 57           	LD	D,A		;	+xxxxxxxxxxx
3336+ C89A 3E 0F        	LD	A,00FH
3337+ C89C CD 6E CA     	CALL	0CA6EH
3338+ C89F D1           	POP	DE
3339+ C8A0 B7           	OR	A
3340+ C8A1 3E 1F        	LD	A,01FH
3341+ C8A3 C0           	RET	NZ
3342+ C8A4 3E 1D        	LD	A,01DH
3343+ C8A6 C9           	RET
3344+ C8A7              ;	-----
3345+ C8A7 D5           	PUSH	DE		;X0.FEEIN
3346+ C8A8 1E 2A        	LD	E,02AH		;	+++ ERROR xx
3347+ C8AA 18 ED        	JR	$-17		;	+xxxxxxxxxxx	;8899
3348+ C8AC              ;	EJEC
3349+ C8AC              ;	-----
3350+ C8AC E5           	PUSH	HL		;VU.DUADE	PN VU	dual => dezimal
3351+ C8AD D5           	PUSH	DE
3352+ C8AE C5           	PUSH	BC
3353+ C8AF F5           	PUSH	AF
3354+ C8B0 01 22 F2     	LD	BC,0F222H
3355+ C8B3 11 10 27     	LD	DE,02710H
3356+ C8B6 CD D7 C8     	CALL	0C8D7H
3357+ C8B9 11 E8 03     	LD	DE,003E8H
3358+ C8BC CD D7 C8     	CALL	0C8D7H
3359+ C8BF 11 64 00     	LD	DE,00064H
3360+ C8C2 CD D7 C8     	CALL	0C8D7H
3361+ C8C5 11 0A 00     	LD	DE,0000AH
3362+ C8C8 CD D7 C8     	CALL	0C8D7H
3363+ C8CB 7D           	LD	A,L
3364+ C8CC CD DF C8     	CALL	0C8DFH
3365+ C8CF 3E 44        	LD	A,044H
3366+ C8D1 02           	LD	(BC),A
3367+ C8D2 F1           	POP	AF
3368+ C8D3 C1           	POP	BC
3369+ C8D4 D1           	POP	DE
3370+ C8D5 E1           	POP	HL
3371+ C8D6 C9           	RET
3372+ C8D7 AF           	XOR	A
3373+ C8D8 3C           	INC	A
3374+ C8D9 ED 52        	SBC	HL,DE
3375+ C8DB 30 FB        	JR	NC,$-03	;88D8
3376+ C8DD 3D           	DEC	A
3377+ C8DE 19           	ADD	HL,DE
3378+ C8DF F6 30        	OR	030H
3379+ C8E1 02           	LD	(BC),A
3380+ C8E2 03           	INC	BC
3381+ C8E3 C9           	RET
3382+ C8E4              ;	-----
3383+ C8E4 E5           	PUSH	HL		;VU.DLHEX	dual => hex
3384+ C8E5 C5           	PUSH	BC
3385+ C8E6 F5           	PUSH	AF
3386+ C8E7 01 22 F2     	LD	BC,0F222H
3387+ C8EA 7C           	LD	A,H
3388+ C8EB CD F9 C8     	CALL	0C8F9H
3389+ C8EE 7D           	LD	A,L
3390+ C8EF CD F9 C8     	CALL	0C8F9H
3391+ C8F2 3E 48        	LD	A,048H
3392+ C8F4 02           	LD	(BC),A
3393+ C8F5 F1           	POP	AF
3394+ C8F6 C1           	POP	BC
3395+ C8F7 E1           	POP	HL
3396+ C8F8 C9           	RET
3397+ C8F9 F5           	PUSH	AF
3398+ C8FA CD 09 C9     	CALL	0C909H
3399+ C8FD C3 5C ED     	JP	0ED5CH
3400+ C900 C3 ED EF     	JP	0EFEDH
3401+ C903 C3 F3 EF     	JP	0EFF3H
3402+ C906 18 F8        	JR	$-06	;8900
3403+ C908 7E           	LD	A,(HL)
3404+ C909 0F           	RRCA
3405+ C90A 0F           	RRCA
3406+ C90B 0F           	RRCA
3407+ C90C 0F           	RRCA
3408+ C90D E6 0F        	AND	00FH
3409+ C90F C6 30        	ADD	A,030H
3410+ C911 FE 3A        	CP	03AH
3411+ C913 D8           	RET	C
3412+ C914 C6 07        	ADD	A,007H
3413+ C916 C9           	RET
3414+ C917 18 EA        	JR	$-20	;8903
3415+ C919 7E           	LD	A,(HL)
3416+ C91A 18 F1        	JR	$-13	;890D
3417+ C91C              ;	-----
3418+ C91C E5           	PUSH	HL		;VU.UMWDL	dual,oktal,dezimal,hex => dual
3419+ C91D C5           	PUSH	BC
3420+ C91E F5           	PUSH	AF
3421+ C91F CD 27 C9     	CALL	0C927H
3422+ C922 C1           	POP	BC
3423+ C923 78           	LD	A,B
3424+ C924 C1           	POP	BC
3425+ C925 E1           	POP	HL
3426+ C926 C9           	RET
3427+ C927 3E 20        	LD	A,020H
3428+ C929 21 33 F2     	LD	HL,0F233H
3429+ C92C 01 13 00     	LD	BC,00013H
3430+ C92F ED A9        	CPD
3431+ C931 E2 36 C9     	JP	PO,0C936H
3432+ C934 28 F9        	JR	Z,$-05	;892F
3433+ C936 23           	INC	HL
3434+ C937 7E           	LD	A,(HL)
3435+ C938 FE 42        	CP	042H
3436+ C93A 2B           	DEC	HL
3437+ C93B 28 49        	JR	Z,$+75	;8986
3438+ C93D FE 4F        	CP	04FH
3439+ C93F 28 21        	JR	Z,$+35	;8962
3440+ C941 FE 51        	CP	051H
3441+ C943 28 1D        	JR	Z,$+31	;8962
3442+ C945 FE 48        	CP	048H
3443+ C947 28 0F        	JR	Z,$+17	;8958
3444+ C949 FE 44        	CP	044H
3445+ C94B 28 01        	JR	Z,$+03	;894E
3446+ C94D 23           	INC	HL
3447+ C94E 11 05 00     	LD	DE,00005H
3448+ C951 CD 6B C9     	CALL	0C96BH
3449+ C954 CA DD C9     	JP	Z,0C9DDH
3450+ C957 C9           	RET
3451+ C958 11 04 00     	LD	DE,00004H
3452+ C95B CD 6B C9     	CALL	0C96BH
3453+ C95E CA 1B CA     	JP	Z,0CA1BH
3454+ C961 C9           	RET
3455+ C962 11 06 00     	LD	DE,00006H
3456+ C965 CD 6B C9     	CALL	0C96BH
3457+ C968 28 34        	JR	Z,$+54	;899E
3458+ C96A C9           	RET
3459+ C96B E5           	PUSH	HL
3460+ C96C B7           	OR	A
3461+ C96D ED 52        	SBC	HL,DE
3462+ C96F E5           	PUSH	HL
3463+ C970 11 11 F2     	LD	DE,0F211H
3464+ C973 ED 52        	SBC	HL,DE
3465+ C975 44           	LD	B,H
3466+ C976 4D           	LD	C,L
3467+ C977 E1           	POP	HL
3468+ C978 3E 30        	LD	A,030H
3469+ C97A ED A9        	CPD
3470+ C97C E2 83 C9     	JP	PO,0C983H
3471+ C97F 28 F9        	JR	Z,$-05	;897A
3472+ C981 E1           	POP	HL
3473+ C982 C9           	RET
3474+ C983 AF           	XOR	A
3475+ C984 E1           	POP	HL
3476+ C985 C9           	RET
3477+ C986 CD 8B C9     	CALL	0C98BH
3478+ C989 C0           	RET	NZ
3479+ C98A 5A           	LD	E,D
3480+ C98B 16 00        	LD	D,000H
3481+ C98D 06 08        	LD	B,008H
3482+ C98F 7E           	LD	A,(HL)
3483+ C990 2B           	DEC	HL
3484+ C991 D6 30        	SUB	030H
3485+ C993 28 03        	JR	Z,$+05	;8998
3486+ C995 3D           	DEC	A
3487+ C996 C0           	RET	NZ
3488+ C997 14           	INC	D
3489+ C998 CB 0A        	RRC	D
3490+ C99A 05           	DEC	B
3491+ C99B 20 F2        	JR	NZ,$-12	;898F
3492+ C99D C9           	RET
3493+ C99E              ;
3494+ C99E 11 00 00     	LD	DE,00000H
3495+ C9A1 CD D3 C9     	CALL	0C9D3H
3496+ C9A4 CD D0 C9     	CALL	0C9D0H
3497+ C9A7 07           	RLCA
3498+ C9A8 07           	RLCA
3499+ C9A9 07           	RLCA
3500+ C9AA CD D0 C9     	CALL	0C9D0H
3501+ C9AD 0F           	RRCA
3502+ C9AE 0F           	RRCA
3503+ C9AF CB 47        	BIT	0,A
3504+ C9B1 28 02        	JR	Z,$+04	;89B5
3505+ C9B3 14           	INC	D
3506+ C9B4 3D           	DEC	A
3507+ C9B5 CD D0 C9     	CALL	0C9D0H
3508+ C9B8 07           	RLCA
3509+ C9B9 B2           	OR	D
3510+ C9BA 57           	LD	D,A
3511+ C9BB CD D2 C9     	CALL	0C9D2H
3512+ C9BE 07           	RLCA
3513+ C9BF 07           	RLCA
3514+ C9C0 07           	RLCA
3515+ C9C1 07           	RLCA
3516+ C9C2 B2           	OR	D
3517+ C9C3 57           	LD	D,A
3518+ C9C4 CD D2 C9     	CALL	0C9D2H
3519+ C9C7 FE 02        	CP	002H
3520+ C9C9 30 4D        	JR	NC,$+79	;8A18
3521+ C9CB 0F           	RRCA
3522+ C9CC B2           	OR	D
3523+ C9CD 57           	LD	D,A
3524+ C9CE AF           	XOR	A
3525+ C9CF C9           	RET
3526+ C9D0 B3           	OR	E
3527+ C9D1 5F           	LD	E,A
3528+ C9D2 2B           	DEC	HL
3529+ C9D3 7E           	LD	A,(HL)
3530+ C9D4 D6 30        	SUB	030H
3531+ C9D6 38 3F        	JR	C,$+65	;8A17
3532+ C9D8 FE 08        	CP	008H
3533+ C9DA 30 3B        	JR	NC,$+61	;8A17
3534+ C9DC C9           	RET
3535+ C9DD EB           	EX	DE,HL
3536+ C9DE 21 00 00     	LD	HL,00000H
3537+ C9E1 44           	LD	B,H
3538+ C9E2 0E 01        	LD	C,001H
3539+ C9E4 CD 05 CA     	CALL	0CA05H
3540+ C9E7 01 0A 00     	LD	BC,0000AH
3541+ C9EA 1B           	DEC	DE
3542+ C9EB CD 05 CA     	CALL	0CA05H
3543+ C9EE 01 64 00     	LD	BC,00064H
3544+ C9F1 1B           	DEC	DE
3545+ C9F2 CD 05 CA     	CALL	0CA05H
3546+ C9F5 01 E8 03     	LD	BC,003E8H
3547+ C9F8 1B           	DEC	DE
3548+ C9F9 CD 05 CA     	CALL	0CA05H
3549+ C9FC 01 10 27     	LD	BC,02710H
3550+ C9FF 1B           	DEC	DE
3551+ CA00 CD 05 CA     	CALL	0CA05H
3552+ CA03 EB           	EX	DE,HL
3553+ CA04 C9           	RET
3554+ CA05 1A           	LD	A,(DE)
3555+ CA06 D6 30        	SUB	030H
3556+ CA08 38 0D        	JR	C,$+15	;8A17
3557+ CA0A FE 0A        	CP	00AH
3558+ CA0C 30 09        	JR	NC,$+11	;8A17
3559+ CA0E B7           	OR	A
3560+ CA0F C8           	RET	Z
3561+ CA10 09           	ADD	HL,BC
3562+ CA11 38 04        	JR	C,$+06	;8A17
3563+ CA13 3D           	DEC	A
3564+ CA14 20 FA        	JR	NZ,$-04	;8A10
3565+ CA16 C9           	RET
3566+ CA17 E1           	POP	HL
3567+ CA18 AF           	XOR	A
3568+ CA19 3C           	INC	A
3569+ CA1A C9           	RET
3570+ CA1B CD 21 CA     	CALL	0CA21H
3571+ CA1E C0           	RET	NZ
3572+ CA1F 5A           	LD	E,D
3573+ CA20 2B           	DEC	HL
3574+ CA21 CD 31 CA     	CALL	0CA31H
3575+ CA24 57           	LD	D,A
3576+ CA25 2B           	DEC	HL
3577+ CA26 CD 31 CA     	CALL	0CA31H
3578+ CA29 07           	RLCA
3579+ CA2A 07           	RLCA
3580+ CA2B 07           	RLCA
3581+ CA2C 07           	RLCA
3582+ CA2D B2           	OR	D
3583+ CA2E 57           	LD	D,A
3584+ CA2F AF           	XOR	A
3585+ CA30 C9           	RET
3586+ CA31 7E           	LD	A,(HL)
3587+ CA32 E6 3F        	AND	03FH
3588+ CA34 3D           	DEC	A
3589+ CA35 FE 06        	CP	006H
3590+ CA37 38 08        	JR	C,$+10	;8A41
3591+ CA39 D6 2F        	SUB	02FH
3592+ CA3B 38 DA        	JR	C,$-36	;8A17
3593+ CA3D D6 0A        	SUB	00AH
3594+ CA3F 30 D6        	JR	NC,$-40	;8A17
3595+ CA41 C6 0A        	ADD	A,00AH
3596+ CA43 C9           	RET
3597+ CA44              ;
3598+ CA44              ;    PAGE
3599+ CA44              ;	-----
3600+ CA44              CA44:
3601+ CA44 16 FF        	LD	D,0FFH		;VP.EDC	Pruefziffernberechnung CRC	PN VP
3602+ CA46 5A           	LD	E,D
3603+ CA47 7E           	LD	A,(HL)
3604+ CA48 AA           	XOR	D
3605+ CA49 57           	LD	D,A
3606+ CA4A 0F           	RRCA
3607+ CA4B 0F           	RRCA
3608+ CA4C 0F           	RRCA
3609+ CA4D 0F           	RRCA
3610+ CA4E E6 0F        	AND	00FH
3611+ CA50 AA           	XOR	D
3612+ CA51 57           	LD	D,A
3613+ CA52 0F           	RRCA
3614+ CA53 0F           	RRCA
3615+ CA54 0F           	RRCA
3616+ CA55 F5           	PUSH	AF
3617+ CA56 E6 1F        	AND	01FH
3618+ CA58 AB           	XOR	E
3619+ CA59 5F           	LD	E,A
3620+ CA5A F1           	POP	AF
3621+ CA5B F5           	PUSH	AF
3622+ CA5C 0F           	RRCA
3623+ CA5D E6 F0        	AND	0F0H
3624+ CA5F AB           	XOR	E
3625+ CA60 5F           	LD	E,A
3626+ CA61 F1           	POP	AF
3627+ CA62 E6 E0        	AND	0E0H
3628+ CA64 AA           	XOR	D
3629+ CA65 53           	LD	D,E
3630+ CA66 5F           	LD	E,A
3631+ CA67 23           	INC	HL
3632+ CA68 0B           	DEC	BC
3633+ CA69 78           	LD	A,B
3634+ CA6A B1           	OR	C
3635+ CA6B 20 DA        	JR	NZ,$-36	;8A47
3636+ CA6D C9           	RET
3637+ CA6E              ;
3638+ CA6E              ;    PAGE
3639+ CA6E              ;***************************************************************
3640+ CA6E              ;*     CX.HAND     GRUNDHANDLER          0CA6EH                *
3641+ CA6E              ;***************************************************************
3642+ CA6E              CA6E:
3643+ CA6E E5           	PUSH	HL		;PN CX
3644+ CA6F C5           	PUSH	BC
3645+ CA70 F5           	PUSH	AF
3646+ CA71 32 29 F5     	LD	(0F529H),A
3647+ CA74 FE 0F        	CP	00FH
3648+ CA76 28 57        	JR	Z,$+89	;8ACF
3649+ CA78 FE 02        	CP	002H
3650+ CA7A CA 26 CB     	JP	Z,0CB26H
3651+ CA7D FE 03        	CP	003H
3652+ CA7F 28 58        	JR	Z,$+90	;8AD9
3653+ CA81 FE 04        	CP	004H
3654+ CA83 28 40        	JR	Z,$+66	;8AC5
3655+ CA85 FE 05        	CP	005H
3656+ CA87 28 31        	JR	Z,$+51	;8ABA
3657+ CA89 7B           	LD	A,E
3658+ CA8A FE 46        	CP	046H
3659+ CA8C 20 03        	JR	NZ,$+05	;8A91
3660+ CA8E 3A 27 F5     	LD	A,(0F527H)
3661+ CA91 CD 4C CC     	CALL	0CC4CH
3662+ CA94 20 06        	JR	NZ,$+08	;8A9C
3663+ CA96 60           	LD	H,B
3664+ CA97 69           	LD	L,C
3665+ CA98 F1           	POP	AF
3666+ CA99 C1           	POP	BC
3667+ CA9A E3           	EX	(SP),HL
3668+ CA9B C9           	RET
3669+ CA9C F1           	POP	AF
3670+ CA9D C1           	POP	BC
3671+ CA9E E1           	POP	HL
3672+ CA9F 3E 00        	LD	A,000H
3673+ CAA1 C9           	RET
3674+ CAA2              ;
3675+ CAA2 E5           	PUSH	HL
3676+ CAA3 C5           	PUSH	BC
3677+ CAA4 21 1A F5     	LD	HL,0F51AH
3678+ CAA7 3A 2A F5     	LD	A,(0F52AH)
3679+ CAAA 06 00        	LD	B,000H
3680+ CAAC 4F           	LD	C,A
3681+ CAAD 09           	ADD	HL,BC
3682+ CAAE 22 37 F5     	LD	(0F537H),HL
3683+ CAB1 7E           	LD	A,(HL)
3684+ CAB2 E6 03        	AND	003H
3685+ CAB4 FE 03        	CP	003H
3686+ CAB6 7E           	LD	A,(HL)
3687+ CAB7 C1           	POP	BC
3688+ CAB8 E1           	POP	HL
3689+ CAB9 C9           	RET
3690+ CABA              ;
3691+ CABA 7B           	LD	A,E
3692+ CABB CD 4C CC     	CALL	0CC4CH
3693+ CABE 20 DC        	JR	NZ,$-34	;8A9C
3694+ CAC0 CD A2 CA     	CALL	0CAA2H
3695+ CAC3 18 D1        	JR	$-45	;8A96
3696+ CAC5 7B           	LD	A,E
3697+ CAC6 FE 46        	CP	046H
3698+ CAC8 20 F1        	JR	NZ,$-13	;8ABB
3699+ CACA 3A 27 F5     	LD	A,(0F527H)
3700+ CACD 18 EC        	JR	$-18	;8ABB
3701+ CACF F1           	POP	AF
3702+ CAD0 AF           	XOR	A
3703+ CAD1 F5           	PUSH	AF
3704+ CAD2 D5           	PUSH	DE
3705+ CAD3 CD 8B CC     	CALL	0CC8BH
3706+ CAD6 D1           	POP	DE
3707+ CAD7 18 38        	JR	$+58	;8B11
3708+ CAD9 CD FF CC     	CALL	0CCFFH
3709+ CADC 7B           	LD	A,E
3710+ CADD CD 4C CC     	CALL	0CC4CH
3711+ CAE0 20 26        	JR	NZ,$+40	;8B08
3712+ CAE2 CD A2 CA     	CALL	0CAA2H
3713+ CAE5 20 10        	JR	NZ,$+18	;8AF7
3714+ CAE7 CB 57        	BIT	2,A
3715+ CAE9 28 0C        	JR	Z,$+14	;8AF7
3716+ CAEB 3E 16        	LD	A,016H
3717+ CAED CD 7E CC     	CALL	0CC7EH
3718+ CAF0 F1           	POP	AF
3719+ CAF1 C1           	POP	BC
3720+ CAF2 E1           	POP	HL
3721+ CAF3 3E 01        	LD	A,001H
3722+ CAF5 BF           	CP	A
3723+ CAF6 C9           	RET
3724+ CAF7              ;
3725+ CAF7 23           	INC	HL
3726+ CAF8 23           	INC	HL
3727+ CAF9 23           	INC	HL
3728+ CAFA 23           	INC	HL
3729+ CAFB 5E           	LD	E,(HL)
3730+ CAFC 7B           	LD	A,E
3731+ CAFD B7           	OR	A
3732+ CAFE 28 1B        	JR	Z,$+29	;8B1B
3733+ CB00 CD 4D D9     	CALL	0D94DH
3734+ CB03 30 16        	JR	NC,$+24	;8B1B
3735+ CB05 C3 96 CA     	JP	0CA96H
3736+ CB08 F1           	POP	AF
3737+ CB09 3E 00        	LD	A,000H
3738+ CB0B F5           	PUSH	AF
3739+ CB0C 3E 10        	LD	A,010H
3740+ CB0E CD 7E CC     	CALL	0CC7EH
3741+ CB11 E3           	EX	(SP),HL
3742+ CB12 20 02        	JR	NZ,$+04	;8B16
3743+ CB14 26 01        	LD	H,001H
3744+ CB16 E3           	EX	(SP),HL
3745+ CB17 F1           	POP	AF
3746+ CB18 C1           	POP	BC
3747+ CB19 E1           	POP	HL
3748+ CB1A C9           	RET
3749+ CB1B              ;
3750+ CB1B F1           	POP	AF
3751+ CB1C 3E 01        	LD	A,001H
3752+ CB1E F5           	PUSH	AF
3753+ CB1F 3E 50        	LD	A,050H
3754+ CB21 CD 6D CC     	CALL	0CC6DH
3755+ CB24 18 EB        	JR	$-19	;8B11
3756+ CB26 CD FF CC     	CALL	0CCFFH
3757+ CB29 E5           	PUSH	HL
3758+ CB2A 21 65 F2     	LD	HL,0F265H
3759+ CB2D CB 9E        	RES	3,(HL)
3760+ CB2F E1           	POP	HL
3761+ CB30 7B           	LD	A,E
3762+ CB31 FE 46        	CP	046H
3763+ CB33 32 28 F5     	LD	(0F528H),A
3764+ CB36 20 0C        	JR	NZ,$+14	;8B44
3765+ CB38 E5           	PUSH	HL
3766+ CB39 21 65 F2     	LD	HL,0F265H
3767+ CB3C CB DE        	SET	3,(HL)
3768+ CB3E E1           	POP	HL
3769+ CB3F 3E FF        	LD	A,0FFH
3770+ CB41 32 27 F5     	LD	(0F527H),A
3771+ CB44 23           	INC	HL
3772+ CB45 CB 46        	BIT	0,(HL)
3773+ CB47 28 1E        	JR	Z,$+32	;8B67
3774+ CB49 23           	INC	HL
3775+ CB4A 7E           	LD	A,(HL)
3776+ CB4B FE 20        	CP	020H
3777+ CB4D 20 18        	JR	NZ,$+26	;8B67
3778+ CB4F 01 04 00     	LD	BC,00004H
3779+ CB52 09           	ADD	HL,BC
3780+ CB53 7E           	LD	A,(HL)
3781+ CB54 FE 20        	CP	020H
3782+ CB56 20 0F        	JR	NZ,$+17	;8B67
3783+ CB58 23           	INC	HL
3784+ CB59 7E           	LD	A,(HL)
3785+ CB5A FE 20        	CP	020H
3786+ CB5C 20 09        	JR	NZ,$+11	;8B67
3787+ CB5E 36 30        	LD	(HL),030H
3788+ CB60 2B           	DEC	HL
3789+ CB61 36 30        	LD	(HL),030H
3790+ CB63 F1           	POP	AF
3791+ CB64 3E FF        	LD	A,0FFH
3792+ CB66 F5           	PUSH	AF
3793+ CB67 21 65 F2     	LD	HL,0F265H
3794+ CB6A CB 5E        	BIT	3,(HL)
3795+ CB6C 20 17        	JR	NZ,$+25	;8B85
3796+ CB6E 7B           	LD	A,E
3797+ CB6F CD 4C CC     	CALL	0CC4CH
3798+ CB72 20 94        	JR	NZ,$-106	;8B08
3799+ CB74 CD A2 CA     	CALL	0CAA2H
3800+ CB77 20 04        	JR	NZ,$+06	;8B7D
3801+ CB79 CB 5F        	BIT	3,A
3802+ CB7B 20 03        	JR	NZ,$+05	;8B80
3803+ CB7D C3 F8 CA     	JP	0CAF8H
3804+ CB80              ;
3805+ CB80 3E 15        	LD	A,015H
3806+ CB82 C3 ED CA     	JP	0CAEDH
3807+ CB85              ;
3808+ CB85 21 BF F4     	LD	HL,0F4BFH
3809+ CB88 01 0D 00     	LD	BC,0000DH
3810+ CB8B 3E 58        	LD	A,058H
3811+ CB8D ED B1        	CPIR
3812+ CB8F 20 3C        	JR	NZ,$+62	;8BCD
3813+ CB91 B7           	OR	A
3814+ CB92 01 0E 00     	LD	BC,0000EH
3815+ CB95 ED 42        	SBC	HL,BC
3816+ CB97 7E           	LD	A,(HL)
3817+ CB98 32 28 F5     	LD	(0F528H),A
3818+ CB9B F5           	PUSH	AF
3819+ CB9C E6 60        	AND	060H
3820+ CB9E FE 40        	CP	040H
3821+ CBA0 28 13        	JR	Z,$+21	;8BB5
3822+ CBA2 F1           	POP	AF
3823+ CBA3 F1           	POP	AF
3824+ CBA4 C1           	POP	BC
3825+ CBA5 C5           	PUSH	BC
3826+ CBA6 F5           	PUSH	AF
3827+ CBA7 3A 28 F5     	LD	A,(0F528H)
3828+ CBAA CD 64 CC     	CALL	0CC64H
3829+ CBAD C5           	PUSH	BC
3830+ CBAE 01 0D 00     	LD	BC,0000DH
3831+ CBB1 09           	ADD	HL,BC
3832+ CBB2 C1           	POP	BC
3833+ CBB3 18 D6        	JR	$-40	;8B8B
3834+ CBB5 F1           	POP	AF
3835+ CBB6 5F           	LD	E,A
3836+ CBB7 CD 4C CC     	CALL	0CC4CH
3837+ CBBA C2 08 CB     	JP	NZ,0CB08H
3838+ CBBD CD A2 CA     	CALL	0CAA2H
3839+ CBC0 20 BB        	JR	NZ,$-67	;8B7D
3840+ CBC2 CB 5F        	BIT	3,A
3841+ CBC4 00           	NOP
3842+ CBC5 00           	NOP
3843+ CBC6 28 B5        	JR	Z,$-73	;8B7D
3844+ CBC8 01 E7 CB     	LD	BC,0CBE7H
3845+ CBCB 18 B0        	JR	$-78	;8B7D
3846+ CBCD              ;
3847+ CBCD 3A 27 F5     	LD	A,(0F527H)
3848+ CBD0 FE FF        	CP	0FFH
3849+ CBD2 28 09        	JR	Z,$+11	;8BDD
3850+ CBD4 5F           	LD	E,A
3851+ CBD5 F1           	POP	AF
3852+ CBD6 3E 02        	LD	A,002H
3853+ CBD8 C1           	POP	BC
3854+ CBD9 E1           	POP	HL
3855+ CBDA C3 6E CA     	JP	0CA6EH
3856+ CBDD 21 65 F2     	LD	HL,0F265H
3857+ CBE0 CB 9E        	RES	3,(HL)
3858+ CBE2 F1           	POP	AF
3859+ CBE3 3E 02        	LD	A,002H
3860+ CBE5 C1           	POP	BC
3861+ CBE6 E1           	POP	HL
3862+ CBE7 FE FE        	CP	0FEH
3863+ CBE9 28 49        	JR	Z,$+75	;8C34
3864+ CBEB FE FF        	CP	0FFH
3865+ CBED 28 4B        	JR	Z,$+77	;8C3A
3866+ CBEF E5           	PUSH	HL
3867+ CBF0 21 65 F2     	LD	HL,0F265H
3868+ CBF3 CB 5E        	BIT	3,(HL)
3869+ CBF5 28 14        	JR	Z,$+22	;8C0B
3870+ CBF7 FE 00        	CP	000H
3871+ CBF9 28 06        	JR	Z,$+08	;8C01
3872+ CBFB FE 01        	CP	001H
3873+ CBFD 20 A6        	JR	NZ,$-88	;8BA5
3874+ CBFF 18 08        	JR	$+10	;8C09
3875+ CC01 3A 28 F5     	LD	A,(0F528H)
3876+ CC04 32 27 F5     	LD	(0F527H),A
3877+ CC07 3E 00        	LD	A,000H
3878+ CC09 CB 9E        	RES	3,(HL)
3879+ CC0B F5           	PUSH	AF
3880+ CC0C B7           	OR	A
3881+ CC0D 20 16        	JR	NZ,$+24	;8C25
3882+ CC0F 2A 37 F5     	LD	HL,(0F537H)
3883+ CC12 3A 29 F5     	LD	A,(0F529H)
3884+ CC15 FE 02        	CP	002H
3885+ CC17 28 0F        	JR	Z,$+17	;8C28
3886+ CC19 FE 03        	CP	003H
3887+ CC1B 28 0F        	JR	Z,$+17	;8C2C
3888+ CC1D FE 04        	CP	004H
3889+ CC1F 28 0F        	JR	Z,$+17	;8C30
3890+ CC21 00           	NOP
3891+ CC22 C3 C0 EF     	JP	0EFC0H
3892+ CC25              ;
3893+ CC25 F1           	POP	AF
3894+ CC26 E1           	POP	HL
3895+ CC27 C9           	RET
3896+ CC28 CB D6        	SET	2,(HL)
3897+ CC2A 18 F9        	JR	$-05	;8C2$
3898+ CC2C CB DE        	SET	3,(HL)
3899+ CC2E 18 F5        	JR	$-09	;8C25
3900+ CC30 CB 96        	RES	2,(HL)
3901+ CC32 18 F1        	JR	$-13	;8C25
3902+ CC34 3A 28 F5     	LD	A,(0F528H)
3903+ CC37 32 27 F5     	LD	(0F527H),A
3904+ CC3A E5           	PUSH	HL
3905+ CC3B 21 65 F2     	LD	HL,0F265H
3906+ CC3E CB 5E        	BIT	3,(HL)
3907+ CC40 28 05        	JR	Z,$+07	;8C47
3908+ CC42 3E FF        	LD	A,0FFH
3909+ CC44 C3 A5 CB     	JP	0CBA5H
3910+ CC47 C5           	PUSH	BC
3911+ CC48 F5           	PUSH	AF
3912+ CC49 C3 CD CB     	JP	0CBCDH
3913+ CC4C CD 64 CC     	CALL	0CC64H
3914+ CC4F C0           	RET	NZ
3915+ CC50 79           	LD	A,C
3916+ CC51 32 2A F5     	LD	(0F52AH),A
3917+ CC54 60           	LD	H,B
3918+ CC55 69           	LD	L,C
3919+ CC56 29           	ADD	HL,HL
3920+ CC57 44           	LD	B,H
3921+ CC58 4D           	LD	C,L
3922+ CC59 29           	ADD	HL,HL
3923+ CC5A 09           	ADD	HL,BC
3924+ CC5B 01 CC F4     	LD	BC,0F4CCH
3925+ CC5E 09           	ADD	HL,BC
3926+ CC5F 4E           	LD	C,(HL)
3927+ CC60 23           	INC	HL
3928+ CC61 46           	LD	B,(HL)
3929+ CC62 BF           	CP	A
3930+ CC63 C9           	RET
3931+ CC64              ;
3932+ CC64 21 B2 F4     	LD	HL,0F4B2H
3933+ CC67 01 0D 00     	LD	BC,0000DH
3934+ CC6A ED B1        	CPIR
3935+ CC6C C9           	RET
3936+ CC6D              ;
3937+ CC6D E5           	PUSH	HL
3938+ CC6E CD E9 CC     	CALL	0CCE9H
3939+ CC71 CB FE        	SET	7,(HL)
3940+ CC73 E3           	EX	(SP),HL
3941+ CC74 CD 7E CC     	CALL	0CC7EH
3942+ CC77 E3           	EX	(SP),HL
3943+ CC78 F5           	PUSH	AF
3944+ CC79 CB BE        	RES	7,(HL)
3945+ CC7B F1           	POP	AF
3946+ CC7C E1           	POP	HL
3947+ CC7D C9           	RET
3948+ CC7E              ;
3949+ CC7E E5           	PUSH	HL
3950+ CC7F C5           	PUSH	BC
3951+ CC80 D5           	PUSH	DE
3952+ CC81 57           	LD	D,A
3953+ CC82 1E 2B        	LD	E,02BH
3954+ CC84 CD 8B CC     	CALL	0CC8BH
3955+ CC87 D1           	POP	DE
3956+ CC88 C1           	POP	BC
3957+ CC89 E1           	POP	HL
3958+ CC8A C9           	RET
3959+ CC8B              ;
3960+ CC8B E5           	PUSH	HL
3961+ CC8C 2A 15 F0     	LD	HL,(0F015H)
3962+ CC8F ED 4B 17 F0  	LD	BC,(0F017H)
3963+ CC93 09           	ADD	HL,BC
3964+ CC94 01 0E 00     	LD	BC,0000EH
3965+ CC97 ED 42        	SBC	HL,BC
3966+ CC99 E3           	EX	(SP),HL
3967+ CC9A 14           	INC	D
3968+ CC9B 28 17        	JR	Z,$+25	;8CB4
3969+ CC9D 15           	DEC	D
3970+ CC9E 21 2B F5     	LD	HL,0F52BH
3971+ CCA1 E5           	PUSH	HL
3972+ CCA2 73           	LD	(HL),E
3973+ CCA3 23           	INC	HL
3974+ CCA4 73           	LD	(HL),E
3975+ CCA5 21 34 F5     	LD	HL,0F534H
3976+ CCA8 7A           	LD	A,D
3977+ CCA9 CD 09 C9     	CALL	0C909H
3978+ CCAC 77           	LD	(HL),A
3979+ CCAD 23           	INC	HL
3980+ CCAE 7A           	LD	A,D
3981+ CCAF CD 0D C9     	CALL	0C90DH
3982+ CCB2 77           	LD	(HL),A
3983+ CCB3 E1           	POP	HL
3984+ CCB4 7B           	LD	A,E
3985+ CCB5 4B           	LD	C,E
3986+ CCB6 D1           	POP	DE
3987+ CCB7 D5           	PUSH	DE
3988+ CCB8 12           	LD	(DE),A
3989+ CCB9 13           	INC	DE
3990+ CCBA C5           	PUSH	BC
3991+ CCBB 01 0C 00     	LD	BC,0000CH
3992+ CCBE ED B0        	LDIR
3993+ CCC0              	; POP	BC	; OLD !!!
3994+ CCC0              	; LD	E,04BH	; OLD !!!
3995+ CCC0 C3 08 B5     	JP	0B508H	; NEU !!!
3996+ CCC3
3997+ CCC3 3A 2A F5     	LD	A,(0F52AH)
3998+ CCC6 F5           	PUSH	AF
3999+ CCC7 3E 10        	LD	A,010H
4000+ CCC9 CD 6E CA     	CALL	0CA6EH
4001+ CCCC F1           	POP	AF
4002+ CCCD 32 2A F5     	LD	(0F52AH),A
4003+ CCD0 7A           	LD	A,D
4004+ CCD1 FE 1D        	CP	01DH
4005+ CCD3 28 0A        	JR	Z,$+12	;8CDF
4006+ CCD5 FE 1F        	CP	01FH
4007+ CCD7 20 E8        	JR	NZ,$-22	;0CC1
4008+ CCD9 79           	LD	A,C
4009+ CCDA D6 2B        	SUB	02BH
4010+ CCDC 20 E3        	JR	NZ,$-27	;8CC1
4011+ CCDE 3C           	INC	A
4012+ CCDF 3D           	DEC	A
4013+ CCE0 E1           	POP	HL
4014+ CCE1 06 0E        	LD	B,00EH
4015+ CCE3 36 20        	LD	(HL),020H
4016+ CCE5 23           	INC	HL
4017+ CCE6 10 FB        	DJNZ	$-03	;8CE3
4018+ CCE8 C9           	RET
4019+ CCE9              ;
4020+ CCE9 C5           	PUSH	BC
4021+ CCEA F5           	PUSH	AF
4022+ CCEB 3A 2A F5     	LD	A,(0F52AH)
4023+ CCEE ED 44        	NEG
4024+ CCF0 C6 0D        	ADD	A,00DH
4025+ CCF2 47           	LD	B,A
4026+ CCF3 2A 15 F0     	LD	HL,(0F015H)
4027+ CCF6 2B           	DEC	HL
4028+ CCF7 23           	INC	HL
4029+ CCF8 23           	INC	HL
4030+ CCF9 23           	INC	HL
4031+ CCFA 10 FB        	DJNZ	$-03	;8CF7
4032+ CCFC F1           	POP	AF
4033+ CCFD C1           	POP	BC
4034+ CCFE C9           	RET
4035+ CCFF              ;
4036+ CCFF E5           	PUSH	HL
4037+ CD00 D5           	PUSH	DE
4038+ CD01 C5           	PUSH	BC
4039+ CD02 F5           	PUSH	AF
4040+ CD03 2A 15 F0     	LD	HL,(0F015H)
4041+ CD06 06 0D        	LD	B,00DH
4042+ CD08 11 B2 F4     	LD	DE,0F4B2H
4043+ CD0B 1A           	LD	A,(DE)
4044+ CD0C 23           	INC	HL
4045+ CD0D 23           	INC	HL
4046+ CD0E E6 60        	AND	060H
4047+ CD10 FE 40        	CP	040H
4048+ CD12 3E 2E        	LD	A,02EH
4049+ CD14 20 01        	JR	NZ,$+03	;8D17
4050+ CD16 1A           	LD	A,(DE)
4051+ CD17 77           	LD	(HL),A
4052+ CD18 23           	INC	HL
4053+ CD19 13           	INC	DE
4054+ CD1A 10 EF        	DJNZ	$-15	;8D0B
4055+ CD1C F1           	POP	AF
4056+ CD1D C1           	POP	BC
4057+ CD1E D1           	POP	DE
4058+ CD1F E1           	POP	HL
4059+ CD20 C9           	RET
4060+ CD21              ;
4061+ CD21 C5           	PUSH	BC
4062+ CD22 E5           	PUSH	HL
4063+ CD23 C5           	PUSH	BC
4064+ CD24 4B           	LD	C,E
4065+ CD25 D1           	POP	DE
4066+ CD26 13           	INC	DE
4067+ CD27 1A           	LD	A,(DE)
4068+ CD28 0C           	INC	C
4069+ CD29 13           	INC	DE
4070+ CD2A 21 3C CD     	LD	HL,0CD3CH
4071+ CD2D 1F           	RRA
4072+ CD2E 23           	INC	HL
4073+ CD2F 0D           	DEC	C
4074+ CD30 28 08        	JR	Z,$+10	;8D3A
4075+ CD32 30 F9        	JR	NC,$-05	;8D2D
4076+ CD34 46           	LD	B,(HL)
4077+ CD35 13           	INC	DE
4078+ CD36 10 FD        	DJNZ	$-01	;8D35
4079+ CD38 18 F3        	JR	$-11	;8D2D
4080+ CD3A E1           	POP	HL
4081+ CD3B C1           	POP	BC
4082+ CD3C C9           	RET
4083+ CD3D              ;
4084+ CD3D 06 01        	LD	B,001H
4085+ CD3F 06 03        	LD	B,003H
4086+ CD41 05           	DEC	B
4087+ CD42 02           	LD	(BC),A
4088+ CD43 02           	LD	(BC),A
4089+ CD44 E5           	PUSH	HL
4090+ CD45 C5           	PUSH	BC
4091+ CD46 21 93 CD     	LD	HL,0CD93H
4092+ CD49 01 06 00     	LD	BC,00006H
4093+ CD4C ED B1        	CPIR
4094+ CD4E 20 3E        	JR	NZ,$+64	;8D8E
4095+ CD50 01 05 00     	LD	BC,00005H
4096+ CD53 09           	ADD	HL,BC
4097+ CD54 04           	INC	B
4098+ CD55 DD CB 00 76  	BIT	6,(IX+00)
4099+ CD59 28 33        	JR	Z,$+53	;8D8E
4100+ CD5B 7E           	LD	A,(HL)
4101+ CD5C DD AE 00     	XOR	(IX+00)
4102+ CD5F 04           	INC	B
4103+ CD60 07           	RLCA
4104+ CD61 38 2B        	JR	C,$+45	;8D8E
4105+ CD63 7E           	LD	A,(HL)
4106+ CD64 C1           	POP	BC
4107+ CD65 E1           	POP	HL
4108+ CD66 CB 4F        	BIT	1,A
4109+ CD68 20 09        	JR	NZ,$+11	;8D73
4110+ CD6A DD E5        	PUSH	IX
4111+ CD6C E1           	POP	HL
4112+ CD6D 01 07 00     	LD	BC,00007H
4113+ CD70 09           	ADD	HL,BC
4114+ CD71 0E 01        	LD	C,001H
4115+ CD73 DD 74 09     	LD	(IX+09),H
4116+ CD76 DD 75 08     	LD	(IX+08),L
4117+ CD79 DD 70 0B     	LD	(IX+11),B
4118+ CD7C DD 71 0A     	LD	(IX+10),C
4119+ CD7F DD 72 07     	LD	(IX+07),D
4120+ CD82 47           	LD	B,A
4121+ CD83 DD 7E 00     	LD	A,(IX+00)
4122+ CD86 E6 FC        	AND	0FCH
4123+ CD88 B0           	OR	B
4124+ CD89 DD 77 00     	LD	(IX+00),A
4125+ CD8C 37           	SCF
4126+ CD8D C9           	RET
4127+ CD8E AF           	XOR	A
4128+ CD8F 80           	ADD	A,B
4129+ CD90 C1           	POP	BC
4130+ CD91 E1           	POP	HL
4131+ CD92 C9           	RET
4132+ CD93              ;
4133+ CD93 00           	NOP
4134+ CD94 01 06 0C     	LD	BC,00C06H
4135+ CD97 0D           	DEC	C
4136+ CD98 0E 00        	LD	C,000H
4137+ CD9A 80           	ADD	A,B
4138+ CD9B 01 02 82     	LD	BC,08202H
4139+ CD9E 03           	INC	BC
4140+ CD9F CD F6 CD     	CALL	0CDF6H
4141+ CDA2 CD 0E CE     	CALL	0CE0EH
4142+ CDA5 20 13        	JR	NZ,$+21	;8DBA
4143+ CDA7 CD 28 CE     	CALL	0CE28H
4144+ CDAA CD 53 CE     	CALL	0CE53H
4145+ CDAD EB           	EX	DE,HL
4146+ CDAE CD 61 CE     	CALL	0CE61H
4147+ CDB1 7C           	LD	A,H
4148+ CDB2 AA           	XOR	D
4149+ CDB3 67           	LD	H,A
4150+ CDB4 7D           	LD	A,L
4151+ CDB5 AB           	XOR	E
4152+ CDB6 6F           	LD	L,A
4153+ CDB7 C3 5A CE     	JP	0CE5AH
4154+ CDBA              ;
4155+ CDBA              CDBA:
4156+ CDBA DD CB 00 7E  	BIT	7,(IX+00)
4157+ CDBE 28 01        	JR	Z,$+03	;8DC1
4158+ CDC0 EB           	EX	DE,HL
4159+ CDC1 DD CB 00 46  	BIT	0,(IX+00)
4160+ CDC5 28 01        	JR	Z,$+03	;8DC8
4161+ CDC7 2B           	DEC	HL
4162+ CDC8 7E           	LD	A,(HL)
4163+ CDC9 ED A0        	LDI
4164+ CDCB DD CB 00 46  	BIT	0,(IX+00)
4165+ CDCF 28 02        	JR	Z,$+04	;8DD3
4166+ CDD1 2B           	DEC	HL
4167+ CDD2 1B           	DEC	DE
4168+ CDD3 DD CB 00 7E  	BIT	7,(IX+00)
4169+ CDD7 28 01        	JR	Z,$+03	;8DDA
4170+ CDD9 EB           	EX	DE,HL
4171+ CDDA F5           	PUSH	AF
4172+ CDDB 78           	LD	A,B
4173+ CDDC B1           	OR	C
4174+ CDDD 28 0D        	JR	Z,$+15	;8DEC
4175+ CDDF F1           	POP	AF
4176+ CDE0 B7           	OR	A
4177+ CDE1 28 BF        	JR	Z,$-63	;8DA2
4178+ CDE3 DD BE 07     	CP	(IX+07)
4179+ CDE6 20 BA        	JR	NZ,$-68	;8DA2
4180+ CDE8 37           	SCF
4181+ CDE9 F5           	PUSH	AF
4182+ CDEA 18 05        	JR	$+07	;8DF1
4183+ CDEC F1           	POP	AF
4184+ CDED F6 01        	OR	001H
4185+ CDEF 37           	SCF
4186+ CDF0 F5           	PUSH	AF
4187+ CDF1 CD 28 CE     	CALL	0CE28H
4188+ CDF4 F1           	POP	AF
4189+ CDF5 C9           	RET
4190+ CDF6 CD 50 CE     	CALL	0CE50H
4191+ CDF9 09           	ADD	HL,BC
4192+ CDFA CD 42 CE     	CALL	0CE42H
4193+ CDFD CD 61 CE     	CALL	0CE61H
4194+ CE00 09           	ADD	HL,BC
4195+ CE01 DD 46 0B     	LD	B,(IX+11)
4196+ CE04 DD 4E 0A     	LD	C,(IX+10)
4197+ CE07 DD 56 09     	LD	D,(IX+09)
4198+ CE0A DD 5E 08     	LD	E,(IX+08)
4199+ CE0D C9           	RET
4200+ CE0E E5           	PUSH	HL
4201+ CE0F D5           	PUSH	DE
4202+ CE10 C5           	PUSH	BC
4203+ CE11 EB           	EX	DE,HL
4204+ CE12 CD 50 CE     	CALL	0CE50H
4205+ CE15 DD CB 00 46  	BIT	0,(IX+00)
4206+ CE19 20 05        	JR	NZ,$+07	;8E20
4207+ CE1B B7           	OR	A
4208+ CE1C ED 52        	SBC	HL,DE
4209+ CE1E 18 04        	JR	$+06	;8E24
4210+ CE20 B7           	OR	A
4211+ CE21 EB           	EX	DE,HL
4212+ CE22 ED 42        	SBC	HL,BC
4213+ CE24 C1           	POP	BC
4214+ CE25 D1           	POP	DE
4215+ CE26 E1           	POP	HL
4216+ CE27 C9           	RET
4217+ CE28              ;
4218+ CE28 DD 70 0B     	LD	(IX+11),B
4219+ CE2B DD 71 0A     	LD	(IX+10),C
4220+ CE2E DD 72 09     	LD	(IX+09),D
4221+ CE31 DD 73 08     	LD	(IX+08),E
4222+ CE34 CD 49 CE     	CALL	0CE49H
4223+ CE37 B7           	OR	A
4224+ CE38 ED 42        	SBC	HL,BC
4225+ CE3A CD 5A CE     	CALL	0CE5AH
4226+ CE3D CD 53 CE     	CALL	0CE53H
4227+ CE40 ED 42        	SBC	HL,BC
4228+ CE42 DD 74 06     	LD	(IX+06),H
4229+ CE45 DD 75 05     	LD	(IX+05),L
4230+ CE48 C9           	RET
4231+ CE49 DD 46 04     	LD	B,(IX+04)
4232+ CE4C DD 4E 03     	LD	C,(IX+03)
4233+ CE4F C9           	RET
4234+ CE50 CD 49 CE     	CALL	0CE49H
4235+ CE53 DD 66 06     	LD	H,(IX+06)
4236+ CE56 DD 6E 05     	LD	L,(IX+05)
4237+ CE59 C9           	RET
4238+ CE5A DD 74 02     	LD	(IX+02),H
4239+ CE5D DD 75 01     	LD	(IX+01),L
4240+ CE60 C9           	RET
4241+ CE61 DD 66 02     	LD	H,(IX+02)
4242+ CE64 DD 6E 01     	LD	L,(IX+01)
4243+ CE67 C9           	RET
4244+ CE68 FD E3        	EX	(SP),IY
4245+ CE6A DD E5        	PUSH	IX
4246+ CE6C E5           	PUSH	HL
4247+ CE6D C5           	PUSH	BC
4248+ CE6E FD E9        	JP	(IY)
4249+ CE70              ;
4250+ CE70              CE70:
4251+ CE70 FD E1        	POP	IY
4252+ CE72 C1           	POP	BC
4253+ CE73 E1           	POP	HL
4254+ CE74 DD E1        	POP	IX
4255+ CE76 FD E3        	EX	(SP),IY
4256+ CE78 C9           	RET
4257+ CE79              ;
4258+ CE79              CE79:
4259+ CE79 44           	LD	B,H
4260+ CE7A 4D           	LD	C,L
4261+ CE7B 1E 01        	LD	E,001H
4262+ CE7D CD 21 CD     	CALL	0CD21H
4263+ CE80 30 03        	JR	NC,$+05	;8E85
4264+ CE82 3E 20        	LD	A,020H
4265+ CE84 12           	LD	(DE),A
4266+ CE85 1E 02        	LD	E,002H
4267+ CE87 CD 21 CD     	CALL	0CD21H
4268+ CE8A DC A1 CE     	CALL	C,CEA1
4269+ CE8D 1E 03        	LD	E,003H
4270+ CE8F CD 21 CD     	CALL	0CD21H
4271+ CE92 DC B1 CE     	CALL	C,CEB1
4272+ CE95 1E 07        	LD	E,007H
4273+ CE97 CD 21 CD     	CALL	0CD21H
4274+ CE9A D0           	RET	NC
4275+ CE9B 3E FF        	LD	A,0FFH
4276+ CE9D 12           	LD	(DE),A
4277+ CE9E 13           	INC	DE
4278+ CE9F 12           	LD	(DE),A
4279+ CEA0 C9           	RET
4280+ CEA1              ;
4281+ CEA1              CEA1:
4282+ CEA1 C5           	PUSH	BC
4283+ CEA2 21 34 F2     	LD	HL,V1.DATUM	;0F234H
4284+ CEA5 01 06 03     	LD	BC,00306H
4285+ CEA8 ED A0        	LDI
4286+ CEAA ED A0        	LDI
4287+ CEAC 23           	INC	HL
4288+ CEAD 10 F9        	DJNZ	$-05	;8EA8
4289+ CEAF C1           	POP	BC
4290+ CEB0 C9           	RET
4291+ CEB1              ;
4292+ CEB1              CEB1:
4293+ CEB1 C5           	PUSH	BC
4294+ CEB2 01 03 00     	LD	BC,00003H
4295+ CEB5 21 3D F2     	LD	HL,V1.SIGN	;0F23DH
4296+ CEB8 ED B0        	LDIR
4297+ CEBA C1           	POP	BC
4298+ CEBB C9           	RET
4299+ CEBC              ;
4300+ CEBC              CEBC:
4301+ CEBC E5           	PUSH	HL
4302+ CEBD 21 CA CE     	LD	HL,CECA
4303+ CEC0 C5           	PUSH	BC
4304+ CEC1 06 00        	LD	B,000H
4305+ CEC3 4E           	LD	C,(HL)
4306+ CEC4 23           	INC	HL
4307+ CEC5 ED B1        	CPIR
4308+ CEC7 C1           	POP	BC
4309+ CEC8 E1           	POP	HL
4310+ CEC9 C9           	RET
4311+ CECA              ;
4312+ CECA              CECA:
4313+ CECA 0A           	DB	00AH
4314+ CECB 4F 4C 50 52  	DB	'OLPRDH++++'
4314+ CECF 44 48 2B 2B
4314+ CED3 2B 2B
4315+ CED5              ;
4316+ CED5              ;    PAGE
4317+ CED5              ;	-----
4318+ CED5              CED5:
4319+ CED5              	; CALL	0CE68H		;PN CC	Tastaturhandler ; OLD !!!
4320+ CED5 C3 20 B4     	JP	B420	; NEU !!!
4321+ CED8 FB           	EI
4322+ CED9 F5           	PUSH	AF
4323+ CEDA AF           	XOR	A
4324+ CEDB 32 0C F8     	LD	(0F80CH),A
4325+ CEDE F1           	POP	AF
4326+ CEDF DD 21 00 F8  	LD	IX,0F800H
4327+ CEE3 FE 02        	CP	002H
4328+ CEE5 28 53        	JR	Z,CF3A	;$+85	;8F3A
4329+ CEE7 FE 04        	CP	004H
4330+ CEE9 28 7F        	JR	Z,$+129	;8F6A
4331+ CEEB FE FF        	CP	0FFH
4332+ CEED 28 7E        	JR	Z,$+128	;8F6D
4333+ CEEF FE 07        	CP	007H
4334+ CEF1 28 39        	JR	Z,$+59	;8F2C
4335+ CEF3 FE 10        	CP	010H
4336+ CEF5 28 27        	JR	Z,CF1E	;$+41	;8F1E
4337+ CEF7 CD 44 CD     	CALL	0CD44H
4338+ CEFA 30 60        	JR	NC,CF5C	;$+98	;8F5C
4339+ CEFC 3A 12 F8     	LD	A,(0F812H)
4340+ CEFF CD A0 D9     	CALL	0D9A0H
4341+ CF02 28 F8        	JR	Z,$-06	;8EFC
4342+ CF04 CD 9F CD     	CALL	0CD9FH
4343+ CF07 30 FB        	JR	NC,$-03	;8F04
4344+ CF09 DD 36 11 00  	LD	(IX+17),000H
4345+ CF0D CD 0E F8     	CALL	0F80EH
4346+ CF10 DD 7E 07     	LD	A,(IX+07)
4347+ CF13 FE 04        	CP	004H
4348+ CF15 3E 03        	LD	A,003H
4349+ CF17 20 4E        	JR	NZ,$+80	;8F67
4350+ CF19 32 0C F8     	LD	(0F80CH),A
4351+ CF1C 18 49        	JR	$+75	;8F67
4352+ CF1E              ;
4353+ CF1E              CF1E:
4354+ CF1E CD 73 CF     	CALL	CF73
4355+ CF21 DD 36 11 08  	LD	(IX+17),008H
4356+ CF25 CD 0E F8     	CALL	0F80EH
4357+ CF28 3E 00        	LD	A,000H
4358+ CF2A 18 CB        	JR	$-51	;8EF7
4359+ CF2C 3A 12 F8     	LD	A,(0F812H)
4360+ CF2F CD A0 D9     	CALL	0D9A0H
4361+ CF32 3E 00        	LD	A,000H
4362+ CF34 20 C1        	JR	NZ,$-61	;8EF7
4363+ CF36 3E 04        	LD	A,004H
4364+ CF38 18 33        	JR	$+53	;8F6D
4365+ CF3A              ;
4366+ CF3A              CF3A:
4367+ CF3A DD 73 12     	LD	(IX+18),E
4368+ CF3D CD 73 CF     	CALL	CF73
4369+ CF40 7E           	LD	A,(HL)
4370+ CF41 CD BC CE     	CALL	CEBC
4371+ CF44 28 1D        	JR	Z,$+31	;8F63
4372+ CF46 CD 79 CE     	CALL	CE79
4373+ CF49 DD 36 00 40  	LD	(IX+00),040H
4374+ CF4D 21 01 00     	LD	HL,00001H
4375+ CF50 22 01 F8     	LD	(0F801H),HL
4376+ CF53 DD 36 11 00  	LD	(IX+17),000H
4377+ CF57 CD 0E F8     	CALL	0F80EH
4378+ CF5A 18 0B        	JR	$+13	;8F67
4379+ CF5C              ;
4380+ CF5C              CF5C:
4381+ CF5C 3E 11        	LD	A,011H
4382+ CF5E CD 6D CC     	CALL	0CC6DH
4383+ CF61 20 07        	JR	NZ,$+09	;8F6A
4384+ CF63 3E 01        	LD	A,001H
4385+ CF65 18 06        	JR	$+08	;8F6D
4386+ CF67 DD 56 07     	LD	D,(IX+07)
4387+ CF6A 3A 0C F8     	LD	A,(0F80CH)
4388+ CF6D CD 70 CE     	CALL	CE70
4389+ CF70 C3 E7 CB     	JP	0CBE7H
4390+ CF73              ;
4391+ CF73              CF73:
4392+ CF73 DD E5        	PUSH	IX
4393+ CF75 3A 12 F8     	LD	A,(0F812H)
4394+ CF78 CD 3E D9     	CALL	0D93EH
4395+ CF7B DD CB 05 86  	RES	0,(IX+05)
4396+ CF7F DD E1        	POP	IX
4397+ CF81 C9           	RET
4398+ CF82              ;
4399+ CF82              ;    PAGE
4400+ CF82              ;	-----
4401+ CF82 C3 91 CF     	JP	0CF91H		;PN SP	Bildschirmhandler
4402+ CF85 C1           	POP	BC
4403+ CF86 D1           	POP	DE
4404+ CF87 5F           	LD	E,A
4405+ CF88 3A AF F4     	LD	A,(0F4AFH)
4406+ CF8B FD E1        	POP	IY
4407+ CF8D E1           	POP	HL
4408+ CF8E              	; JP	0CBE7H	; OLD !!!
4409+ CF8E C3 00 B5     	JP	0B500H
4410+ CF91              ;	-----
4411+ CF91 E5           	PUSH	HL
4412+ CF92 FD E5        	PUSH	IY
4413+ CF94 D5           	PUSH	DE
4414+ CF95 C5           	PUSH	BC
4415+ CF96 FD 21 9A F4  	LD	IY,0F49AH
4416+ CF9A FD 77 13     	LD	(IY+19),A
4417+ CF9D FD 36 15 00  	LD	(IY+21),000H
4418+ CFA1 FE 03        	CP	003H
4419+ CFA3 20 3F        	JR	NZ,$+65	;8FE4
4420+ CFA5 FD 73 14     	LD	(IY+20),E
4421+ CFA8 7E           	LD	A,(HL)
4422+ CFA9 FD 77 16     	LD	(IY+22),A
4423+ CFAC CD BC CE     	CALL	CEBC
4424+ CFAF 20 05        	JR	NZ,$+07	;8FB6
4425+ CFB1 3E 13        	LD	A,013H
4426+ CFB3 CD D6 CF     	CALL	0CFD6H
4427+ CFB6 AF           	XOR	A
4428+ CFB7 32 AC F4     	LD	(0F4ACH),A
4429+ CFBA FD 36 10 44  	LD	(IY+16),044H
4430+ CFBE 21 1C F0     	LD	HL,0F01CH
4431+ CFC1 11 8A F4     	LD	DE,0F48AH
4432+ CFC4 01 14 00     	LD	BC,00014H
4433+ CFC7 ED B0        	LDIR
4434+ CFC9 C1           	POP	BC
4435+ CFCA C5           	PUSH	BC
4436+ CFCB C5           	PUSH	BC
4437+ CFCC ED 4B 9E F4  	LD	BC,(0F49EH)
4438+ CFD0 21 00 00     	LD	HL,00000H
4439+ CFD3 C3 3E D0     	JP	0D03EH
4440+ CFD6              ;
4441+ CFD6 CD 6D CC     	CALL	0CC6DH
4442+ CFD9 FE 1F        	CP	01FH
4443+ CFDB C0           	RET	NZ
4444+ CFDC 3E 01        	LD	A,001H
4445+ CFDE C1           	POP	BC
4446+ CFDF C1           	POP	BC
4447+ CFE0 D1           	POP	DE
4448+ CFE1 C3 8B CF     	JP	0CF8BH
4449+ CFE4 32 AD F4     	LD	(0F4ADH),A
4450+ CFE7 3A AA F4     	LD	A,(0F4AAH)
4451+ CFEA FE 44        	CP	044H
4452+ CFEC 28 05        	JR	Z,$+07	;8FF3
4453+ CFEE 3E 12        	LD	A,012H
4454+ CFF0 CD D6 CF     	CALL	0CFD6H
4455+ CFF3 3A AD F4     	LD	A,(0F4ADH)
4456+ CFF6 FE 08        	CP	008H
4457+ CFF8 20 3C        	JR	NZ,$+62	;9036
4458+ CFFA 11 89 F4     	LD	DE,0F489H
4459+ CFFD EB           	EX	DE,HL
4460+ CFFE ED 4B 9C F4  	LD	BC,(0F49CH)
4461+ D002 3E 10        	LD	A,010H
4462+ D004 B7           	OR	A
4463+ D005 F5           	PUSH	AF
4464+ D006 1A           	LD	A,(DE)
4465+ D007 B7           	OR	A
4466+ D008 28 1A        	JR	Z,$+28	;D024
4467+ D00A 36 00        	LD	(HL),000H
4468+ D00C FE 11        	CP	011H
4469+ D00E 38 02        	JR	C,$+04	;D012
4470+ D010 3E 10        	LD	A,010H
4471+ D012 47           	LD	B,A
4472+ D013 13           	INC	DE
4473+ D014 1A           	LD	A,(DE)
4474+ D015 B9           	CP	C
4475+ D016 30 0C        	JR	NC,$+14	;D024
4476+ D018 BE           	CP	(HL)
4477+ D019 28 09        	JR	Z,$+11	;D024
4478+ D01B 38 07        	JR	C,$+09	;D024
4479+ D01D 23           	INC	HL
4480+ D01E 77           	LD	(HL),A
4481+ D01F F1           	POP	AF
4482+ D020 3D           	DEC	A
4483+ D021 F5           	PUSH	AF
4484+ D022 10 EF        	DJNZ	$-15	;D013
4485+ D024 F1           	POP	AF
4486+ D025 28 06        	JR	Z,$+08	;D02D
4487+ D027 23           	INC	HL
4488+ D028 36 00        	LD	(HL),000H
4489+ D02A 3D           	DEC	A
4490+ D02B 20 FA        	JR	NZ,$-04	;D027
4491+ D02D FD 7E 06     	LD	A,(IY+06)
4492+ D030 FD 96 0F     	SUB	(IY+15)
4493+ D033 C3 85 CF     	JP	0CF85H
4494+ D036 FE 0A        	CP	00AH
4495+ D038 20 50        	JR	NZ,$+82	;D08A
4496+ D03A 2A 9E F4     	LD	HL,(0F49EH)
4497+ D03D E5           	PUSH	HL
4498+ D03E 79           	LD	A,C
4499+ D03F 80           	ADD	A,B
4500+ D040 38 05        	JR	C,$+07	;D047
4501+ D042 FD BE 03     	CP	(IY+03)
4502+ D045 38 02        	JR	C,$+04	;D049
4503+ D047 44           	LD	B,H
4504+ D048 4D           	LD	C,L
4505+ D049 ED 43 9E F4  	LD	(0F49EH),BC
4506+ D04D FD 7E 03     	LD	A,(IY+03)
4507+ D050 91           	SUB	C
4508+ D051 4F           	LD	C,A
4509+ D052 ED 43 A0 F4  	LD	(0F4A0H),BC
4510+ D056 3A AD F4     	LD	A,(0F4ADH)
4511+ D059 D6 03        	SUB	003H
4512+ D05B 20 06        	JR	NZ,$+08	;D063
4513+ D05D 32 A8 F4     	LD	(0F4A8H),A
4514+ D060 FD 70 0F     	LD	(IY+15),B
4515+ D063 FD 5E 02     	LD	E,(IY+02)
4516+ D066 16 00        	LD	D,000H
4517+ D068 2A 9A F4     	LD	HL,(0F49AH)
4518+ D06B 04           	INC	B
4519+ D06C 05           	DEC	B
4520+ D06D 28 03        	JR	Z,$+05	;D072
4521+ D06F 19           	ADD	HL,DE
4522+ D070 18 FA        	JR	$-04	;D06C
4523+ D072 22 A2 F4     	LD	(0F4A2H),HL
4524+ D075 E5           	PUSH	HL
4525+ D076 2A 9A F4     	LD	HL,(0F49AH)
4526+ D079 41           	LD	B,C
4527+ D07A 19           	ADD	HL,DE
4528+ D07B 10 FD        	DJNZ	$-01	;D07A
4529+ D07D 22 A6 F4     	LD	(0F4A6H),HL
4530+ D080 C1           	POP	BC
4531+ D081 B7           	OR	A
4532+ D082 ED 42        	SBC	HL,BC
4533+ D084 22 A4 F4     	LD	(0F4A4H),HL
4534+ D087 E1           	POP	HL
4535+ D088 18 0B        	JR	$+13	;D095
4536+ D08A FE 0B        	CP	00BH
4537+ D08C 20 0F        	JR	NZ,$+17	;D09D
4538+ D08E 2A A8 F4     	LD	HL,(0F4A8H)
4539+ D091 ED 43 A8 F4  	LD	(0F4A8H),BC
4540+ D095 FD 36 12 00  	LD	(IY+18),000H
4541+ D099 C1           	POP	BC
4542+ D09A E5           	PUSH	HL
4543+ D09B 18 90        	JR	$-110	;D02D
4544+ D09D FE 05        	CP	005H
4545+ D09F 20 06        	JR	NZ,$+08	;D0A7
4546+ D0A1 00           	NOP
4547+ D0A2 00           	NOP
4548+ D0A3 00           	NOP
4549+ D0A4 00           	NOP
4550+ D0A5 18 86        	JR	$-120	;D02D
4551+ D0A7              ;
4552+ D0A7 FE 01        	CP	001H
4553+ D0A9 20 0B        	JR	NZ,$+13	;D0B6
4554+ D0AB 21 B1 F4     	LD	HL,0F4B1H
4555+ D0AE 72           	LD	(HL),D
4556+ D0AF 01 01 00     	LD	BC,00001H
4557+ D0B2 3E 00        	LD	A,000H
4558+ D0B4 18 28        	JR	$+42	;D0DE
4559+ D0B6 FE 09        	CP	009H
4560+ D0B8 20 04        	JR	NZ,$+06	;D0BE
4561+ D0BA 16 11        	LD	D,011H
4562+ D0BC 18 ED        	JR	$-17	;D0AB
4563+ D0BE FE 0D        	CP	00DH
4564+ D0C0 28 08        	JR	Z,$+10	;D0CA
4565+ D0C2 3E 11        	LD	A,011H
4566+ D0C4 CD D6 CF     	CALL	0CFD6H
4567+ D0C7 C3 2D D0     	JP	0D02DH
4568+ D0CA 7A           	LD	A,D
4569+ D0CB B7           	OR	A
4570+ D0CC 28 10        	JR	Z,$+18	;D0DE
4571+ D0CE E5           	PUSH	HL
4572+ D0CF C5           	PUSH	BC
4573+ D0D0 ED B1        	CPIR
4574+ D0D2 E1           	POP	HL
4575+ D0D3 3E 00        	LD	A,000H
4576+ D0D5 20 04        	JR	NZ,$+06	;D0DB
4577+ D0D7 ED 42        	SBC	HL,BC
4578+ D0D9 3E 05        	LD	A,005H
4579+ D0DB 44           	LD	B,H
4580+ D0DC 4D           	LD	C,L
4581+ D0DD E1           	POP	HL
4582+ D0DE FD 77 15     	LD	(IY+21),A
4583+ D0E1 E5           	PUSH	HL
4584+ D0E2 C5           	PUSH	BC
4585+ D0E3 ED 4B A8 F4  	LD	BC,(0F4A8H)
4586+ D0E7 2A A0 F4     	LD	HL,(0F4A0H)
4587+ D0EA 78           	LD	A,B
4588+ D0EB BD           	CP	L
4589+ D0EC 30 09        	JR	NC,$+11	;D0F7
4590+ D0EE BC           	CP	H
4591+ D0EF 38 06        	JR	C,$+08	;D0F7
4592+ D0F1 79           	LD	A,C
4593+ D0F2 FD BE 02     	CP	(IY+02)
4594+ D0F5 38 03        	JR	C,$+05	;D0FA
4595+ D0F7 44           	LD	B,H
4596+ D0F8 0E 00        	LD	C,000H
4597+ D0FA ED 43 A8 F4  	LD	(0F4A8H),BC
4598+ D0FE 2A 9A F4     	LD	HL,(0F49AH)
4599+ D101 59           	LD	E,C
4600+ D102 16 00        	LD	D,000H
4601+ D104 19           	ADD	HL,DE
4602+ D105 FD 5E 02     	LD	E,(IY+02)
4603+ D108 04           	INC	B
4604+ D109 05           	DEC	B
4605+ D10A 28 03        	JR	Z,$+05	;D10F
4606+ D10C 19           	ADD	HL,DE
4607+ D10D 10 FD        	DJNZ	$-01	;D10C
4608+ D10F C1           	POP	BC
4609+ D110 D1           	POP	DE
4610+ D111 1A           	LD	A,(DE)
4611+ D112 C5           	PUSH	BC
4612+ D113 D5           	PUSH	DE
4613+ D114 ED 5B 9C F4  	LD	DE,(0F49CH)
4614+ D118 ED 4B A0 F4  	LD	BC,(0F4A0H)
4615+ D11C FD CB 12 46  	BIT	0,(IY+18)
4616+ D120 C2 02 D3     	JP	NZ,0D302H
4617+ D123 F5           	PUSH	AF
4618+ D124 E6 7F        	AND	07FH
4619+ D126 FE 80        	CP	080H
4620+ D128 30 58        	JR	NC,$+90	;D182
4621+ D12A FE 20        	CP	020H
4622+ D12C 38 54        	JR	C,$+86	;D182
4623+ D12E F1           	POP	AF
4624+ D12F 77           	LD	(HL),A
4625+ D130 23           	INC	HL
4626+ D131 FD 34 0E     	INC	(IY+14)
4627+ D134 FD 7E 0E     	LD	A,(IY+14)
4628+ D137 BB           	CP	E
4629+ D138 30 0B        	JR	NC,$+13	;D145
4630+ D13A D1           	POP	DE
4631+ D13B C1           	POP	BC
4632+ D13C 13           	INC	DE
4633+ D13D 0B           	DEC	BC
4634+ D13E 78           	LD	A,B
4635+ D13F B1           	OR	C
4636+ D140 20 CF        	JR	NZ,$-47	;D111
4637+ D142 C3 2D D0     	JP	0D02DH
4638+ D145 FD 36 0E 00  	LD	(IY+14),000H
4639+ D149 FD 34 0F     	INC	(IY+15)
4640+ D14C FD 7E 0F     	LD	A,(IY+15)
4641+ D14F B9           	CP	C
4642+ D150 38 06        	JR	C,$+08	;D158
4643+ D152 FD 70 0F     	LD	(IY+15),B
4644+ D155 2A A2 F4     	LD	HL,(0F4A2H)
4645+ D158 FD CB 12 4E  	BIT	1,(IY+18)
4646+ D15C 20 06        	JR	NZ,$+08	;D164
4647+ D15E FD 36 12 01  	LD	(IY+18),001H
4648+ D162 18 D6        	JR	$-40	;D13A
4649+ D164 FD CB 12 DE  	SET	3,(IY+18)
4650+ D168 FD CB 12 66  	BIT	4,(IY+18)
4651+ D16C FD CB 12 A6  	RES	4,(IY+18)
4652+ D170 20 C8        	JR	NZ,$-54	;D13A
4653+ D172 FD CB 12 56  	BIT	2,(IY+18)
4654+ D176 28 C2        	JR	Z,$-60	;D13A
4655+ D178 43           	LD	B,E
4656+ D179 E5           	PUSH	HL
4657+ D17A 36 20        	LD	(HL),020H
4658+ D17C 23           	INC	HL
4659+ D17D 10 FB        	DJNZ	$-03	;D17A
4660+ D17F E1           	POP	HL
4661+ D180 18 B8        	JR	$-70	;D13A
4662+ D182              ;
4663+ D182 F1           	POP	AF
4664+ D183 FD CB 12 5E  	BIT	3,(IY+18)
4665+ D187 20 25        	JR	NZ,$+39	;D1AE
4666+ D189 FE 09        	CP	009H
4667+ D18B 20 21        	JR	NZ,$+35	;D1AE
4668+ D18D 11 89 F4     	LD	DE,0F489H
4669+ D190 06 10        	LD	B,010H
4670+ D192 13           	INC	DE
4671+ D193 1A           	LD	A,(DE)
4672+ D194 FD BE 0E     	CP	(IY+14)
4673+ D197 38 02        	JR	C,$+04	;D19B
4674+ D199 20 04        	JR	NZ,$+06	;D19F
4675+ D19B 10 F5        	DJNZ	$-09	;D192
4676+ D19D 18 9B        	JR	$-99	;D13A
4677+ D19F 1A           	LD	A,(DE)
4678+ D1A0 FD 96 0E     	SUB	(IY+14)
4679+ D1A3 4F           	LD	C,A
4680+ D1A4 06 00        	LD	B,000H
4681+ D1A6 09           	ADD	HL,BC
4682+ D1A7 1A           	LD	A,(DE)
4683+ D1A8 FD 77 0E     	LD	(IY+14),A
4684+ D1AB C3 3A D1     	JP	0D13AH
4685+ D1AE FE 08        	CP	008H
4686+ D1B0 20 28        	JR	NZ,$+42	;D1DA
4687+ D1B2 3A A8 F4     	LD	A,(0F4A8H)
4688+ D1B5 B7           	OR	A
4689+ D1B6 20 1C        	JR	NZ,$+30	;D1D4
4690+ D1B8 FD CB 12 4E  	BIT	1,(IY+18)
4691+ D1BC 28 ED        	JR	Z,$-17	;D1AB
4692+ D1BE FD CB 12 E6  	SET	4,(IY+18)
4693+ D1C2 FD 73 0E     	LD	(IY+14),E
4694+ D1C5 FD 7E 0F     	LD	A,(IY+15)
4695+ D1C8 B8           	CP	B
4696+ D1C9 20 06        	JR	NZ,$+08	;D1D1
4697+ D1CB FD 71 0F     	LD	(IY+15),C
4698+ D1CE 2A A6 F4     	LD	HL,(0F4A6H)
4699+ D1D1 FD 35 0F     	DEC	(IY+15)
4700+ D1D4 FD 35 0E     	DEC	(IY+14)
4701+ D1D7 2B           	DEC	HL
4702+ D1D8 18 D1        	JR	$-45	;D1AB
4703+ D1DA FE 18        	CP	018H
4704+ D1DC 20 10        	JR	NZ,$+18	;D1EE
4705+ D1DE FD CB 12 4E  	BIT	1,(IY+18)
4706+ D1E2 20 07        	JR	NZ,$+09	;D1EB
4707+ D1E4 FD 7E 0E     	LD	A,(IY+14)
4708+ D1E7 3C           	INC	A
4709+ D1E8 BB           	CP	E
4710+ D1E9 28 C0        	JR	Z,$-62	;D1AB
4711+ D1EB C3 30 D1     	JP	0D130H
4712+ D1EE FE 1C        	CP	01CH
4713+ D1F0 20 15        	JR	NZ,$+23	;D207
4714+ D1F2 7B           	LD	A,E
4715+ D1F3 3D           	DEC	A
4716+ D1F4 FD 96 0E     	SUB	(IY+14)
4717+ D1F7 28 0A        	JR	Z,$+12	;D203
4718+ D1F9 4F           	LD	C,A
4719+ D1FA 06 00        	LD	B,000H
4720+ D1FC 09           	ADD	HL,BC
4721+ D1FD 54           	LD	D,H
4722+ D1FE 5D           	LD	E,L
4723+ D1FF 2B           	DEC	HL
4724+ D200 ED B8        	LDDR
4725+ D202 23           	INC	HL
4726+ D203 36 20        	LD	(HL),020H
4727+ D205 18 A4        	JR	$-90	;D1AB
4728+ D207 FE 1D        	CP	01DH
4729+ D209 20 17        	JR	NZ,$+25	;D222
4730+ D20B 7B           	LD	A,E
4731+ D20C 3D           	DEC	A
4732+ D20D FD 96 0E     	SUB	(IY+14)
4733+ D210 28 F1        	JR	Z,$-13	;D203
4734+ D212 E5           	PUSH	HL
4735+ D213 4F           	LD	C,A
4736+ D214 06 00        	LD	B,000H
4737+ D216 54           	LD	D,H
4738+ D217 5D           	LD	E,L
4739+ D218 23           	INC	HL
4740+ D219 ED B0        	LDIR
4741+ D21B 2B           	DEC	HL
4742+ D21C 36 20        	LD	(HL),020H
4743+ D21E E1           	POP	HL
4744+ D21F C3 3A D1     	JP	0D13AH
4745+ D222 FE 11        	CP	011H
4746+ D224 20 06        	JR	NZ,$+08	;D22C
4747+ D226 7E           	LD	A,(HL)
4748+ D227 EE 80        	XOR	080H
4749+ D229 77           	LD	(HL),A
4750+ D22A 18 F3        	JR	$-11	;D21F
4751+ D22C FE 1F        	CP	01FH
4752+ D22E 20 1D        	JR	NZ,$+31	;D24D
4753+ D230 2A A2 F4     	LD	HL,(0F4A2H)
4754+ D233 E5           	PUSH	HL
4755+ D234 0E 00        	LD	C,000H
4756+ D236 ED 43 A8 F4  	LD	(0F4A8H),BC
4757+ D23A 54           	LD	D,H
4758+ D23B 5D           	LD	E,L
4759+ D23C 13           	INC	DE
4760+ D23D ED 4B A4 F4  	LD	BC,(0F4A4H)
4761+ D241 0B           	DEC	BC
4762+ D242 36 20        	LD	(HL),020H
4763+ D244 ED B0        	LDIR
4764+ D246 E1           	POP	HL
4765+ D247 FD 36 12 00  	LD	(IY+18),000H
4766+ D24B 18 D2        	JR	$-44	;D21F
4767+ D24D FE 19        	CP	019H
4768+ D24F 20 18        	JR	NZ,$+26	;D269
4769+ D251 FD 7E 0F     	LD	A,(IY+15)
4770+ D254 16 00        	LD	D,000H
4771+ D256 B8           	CP	B
4772+ D257 20 08        	JR	NZ,$+10	;D261
4773+ D259 FD 71 0F     	LD	(IY+15),C
4774+ D25C ED 4B A4 F4  	LD	BC,(0F4A4H)
4775+ D260 09           	ADD	HL,BC
4776+ D261 B7           	OR	A
4777+ D262 ED 52        	SBC	HL,DE
4778+ D264 FD 35 0F     	DEC	(IY+15)
4779+ D267 18 DE        	JR	$-32	;D247
4780+ D269 FE 1A        	CP	01AH
4781+ D26B 20 17        	JR	NZ,$+25	;D284
4782+ D26D FD 34 0F     	INC	(IY+15)
4783+ D270 FD 7E 0F     	LD	A,(IY+15)
4784+ D273 16 00        	LD	D,000H
4785+ D275 B9           	CP	C
4786+ D276 20 09        	JR	NZ,$+11	;D281
4787+ D278 FD 70 0F     	LD	(IY+15),B
4788+ D27B ED 4B A4 F4  	LD	BC,(0F4A4H)
4789+ D27F ED 42        	SBC	HL,BC
4790+ D281 19           	ADD	HL,DE
4791+ D282 18 C3        	JR	$-59	;D247
4792+ D284 FE 12        	CP	012H
4793+ D286 20 32        	JR	NZ,$+52	;D2BA
4794+ D288 E5           	PUSH	HL
4795+ D289 AF           	XOR	A
4796+ D28A 47           	LD	B,A
4797+ D28B FD 4E 0E     	LD	C,(IY+14)
4798+ D28E ED 42        	SBC	HL,BC
4799+ D290 44           	LD	B,H
4800+ D291 4D           	LD	C,L
4801+ D292 2A A6 F4     	LD	HL,(0F4A6H)
4802+ D295 2B           	DEC	HL
4803+ D296 E5           	PUSH	HL
4804+ D297 AF           	XOR	A
4805+ D298 57           	LD	D,A
4806+ D299 ED 52        	SBC	HL,DE
4807+ D29B D1           	POP	DE
4808+ D29C FD 7E 0F     	LD	A,(IY+15)
4809+ D29F 3C           	INC	A
4810+ D2A0 FD BE 06     	CP	(IY+06)
4811+ D2A3 28 0A        	JR	Z,$+12	;D2AF
4812+ D2A5 E5           	PUSH	HL
4813+ D2A6 B7           	OR	A
4814+ D2A7 ED 42        	SBC	HL,BC
4815+ D2A9 44           	LD	B,H
4816+ D2AA 4D           	LD	C,L
4817+ D2AB 03           	INC	BC
4818+ D2AC E1           	POP	HL
4819+ D2AD ED B8        	LDDR
4820+ D2AF FD 46 02     	LD	B,(IY+02)
4821+ D2B2 23           	INC	HL
4822+ D2B3 36 20        	LD	(HL),020H
4823+ D2B5 10 FB        	DJNZ	$-03	;D2B2
4824+ D2B7 E1           	POP	HL
4825+ D2B8 18 8D        	JR	$-113	;D247
4826+ D2BA FE 1E        	CP	01EH
4827+ D2BC 20 25        	JR	NZ,$+39	;D2E3
4828+ D2BE E5           	PUSH	HL
4829+ D2BF AF           	XOR	A
4830+ D2C0 51           	LD	D,C
4831+ D2C1 47           	LD	B,A
4832+ D2C2 FD 4E 0E     	LD	C,(IY+14)
4833+ D2C5 ED 42        	SBC	HL,BC
4834+ D2C7 FD 7E 0F     	LD	A,(IY+15)
4835+ D2CA 3C           	INC	A
4836+ D2CB BA           	CP	D
4837+ D2CC 28 12        	JR	Z,$+20	;D2E0
4838+ D2CE E5           	PUSH	HL
4839+ D2CF AF           	XOR	A
4840+ D2D0 57           	LD	D,A
4841+ D2D1 19           	ADD	HL,DE
4842+ D2D2 EB           	EX	DE,HL
4843+ D2D3 2A A6 F4     	LD	HL,(0F4A6H)
4844+ D2D6 B7           	OR	A
4845+ D2D7 ED 52        	SBC	HL,DE
4846+ D2D9 44           	LD	B,H
4847+ D2DA 4D           	LD	C,L
4848+ D2DB E1           	POP	HL
4849+ D2DC EB           	EX	DE,HL
4850+ D2DD ED B0        	LDIR
4851+ D2DF EB           	EX	DE,HL
4852+ D2E0 2B           	DEC	HL
4853+ D2E1 18 CC        	JR	$-50	;D2AF
4854+ D2E3 FE 10        	CP	010H
4855+ D2E5 20 10        	JR	NZ,$+18	;D2F7
4856+ D2E7 FD CB 12 D6  	SET	2,(IY+18)
4857+ D2EB FD CB 12 A6  	RES	4,(IY+18)
4858+ D2EF 7B           	LD	A,E
4859+ D2F0 FD 96 0E     	SUB	(IY+14)
4860+ D2F3 47           	LD	B,A
4861+ D2F4 C3 79 D1     	JP	0D179H
4862+ D2F7 FE 13        	CP	013H
4863+ D2F9 20 07        	JR	NZ,$+09	;D302
4864+ D2FB FD CB 12 CE  	SET	1,(IY+18)
4865+ D2FF C3 3A D1     	JP	0D13AH
4866+ D302 FE 0D        	CP	00DH
4867+ D304 20 14        	JR	NZ,$+22	;D31A
4868+ D306 FD CB 12 46  	BIT	0,(IY+18)
4869+ D30A C2 51 D2     	JP	NZ,0D251H
4870+ D30D AF           	XOR	A
4871+ D30E 47           	LD	B,A
4872+ D30F FD 4E 0E     	LD	C,(IY+14)
4873+ D312 FD 77 0E     	LD	(IY+14),A
4874+ D315 ED 42        	SBC	HL,BC
4875+ D317 C3 47 D2     	JP	0D247H
4876+ D31A FE 0A        	CP	00AH
4877+ D31C 20 26        	JR	NZ,$+40	;D344
4878+ D31E FD CB 12 46  	BIT	0,(IY+18)
4879+ D322 20 1B        	JR	NZ,$+29	;D33F
4880+ D324 AF           	XOR	A
4881+ D325 57           	LD	D,A
4882+ D326 19           	ADD	HL,DE
4883+ D327 B7           	OR	A
4884+ D328 FD 5E 0E     	LD	E,(IY+14)
4885+ D32B FD 77 0E     	LD	(IY+14),A
4886+ D32E ED 52        	SBC	HL,DE
4887+ D330 FD 34 0F     	INC	(IY+15)
4888+ D333 FD 7E 0F     	LD	A,(IY+15)
4889+ D336 B9           	CP	C
4890+ D337 20 06        	JR	NZ,$+08	;D33F
4891+ D339 FD 70 0F     	LD	(IY+15),B
4892+ D33C 2A A2 F4     	LD	HL,(0F4A2H)
4893+ D33F E5           	PUSH	HL
4894+ D340 2B           	DEC	HL
4895+ D341 C3 AF D2     	JP	0D2AFH
4896+ D344 FE 0C        	CP	00CH
4897+ D346 20 0C        	JR	NZ,$+14	;D354
4898+ D348 0E 00        	LD	C,000H
4899+ D34A ED 43 A8 F4  	LD	(0F4A8H),BC
4900+ D34E 2A A2 F4     	LD	HL,(0F4A2H)
4901+ D351 C3 47 D2     	JP	0D247H
4902+ D354 FE 0B        	CP	00BH
4903+ D356 C2 3A D1     	JP	NZ,0D13AH
4904+ D359 E5           	PUSH	HL
4905+ D35A FD 7E 0F     	LD	A,(IY+15)
4906+ D35D 90           	SUB	B
4907+ D35E 2A A2 F4     	LD	HL,(0F4A2H)
4908+ D361 28 DD        	JR	Z,$-33	;D340
4909+ D363 E5           	PUSH	HL
4910+ D364 47           	LD	B,A
4911+ D365 16 00        	LD	D,000H
4912+ D367 19           	ADD	HL,DE
4913+ D368 E5           	PUSH	HL
4914+ D369 21 00 00     	LD	HL,00000H
4915+ D36C 19           	ADD	HL,DE
4916+ D36D 10 FD        	DJNZ	$-01	;D36C
4917+ D36F 44           	LD	B,H
4918+ D370 4D           	LD	C,L
4919+ D371 E1           	POP	HL
4920+ D372 D1           	POP	DE
4921+ D373 ED B0        	LDIR
4922+ D375 EB           	EX	DE,HL
4923+ D376 18 C8        	JR	$-54	;D340
4924+ D378              ;
4925+ D378              ;    PAGE
4926+ D378              ;	-----
4927+ D378              D378:
4928+ D378 CD 68 CE     	CALL	0CE68H		;PN YB	Floppy-Handler
4929+ D37B DD 21 36 FB  	LD	IX,0FB36H
4930+ D37F 18 19        	JR	$+27	;D39A
4931+ D381 CD 68 CE     	CALL	0CE68H
4932+ D384 DD 21 60 FB  	LD	IX,0FB60H
4933+ D388 18 10        	JR	$+18	;D39A
4934+ D38A CD 68 CE     	CALL	0CE68H
4935+ D38D DD 21 8A FB  	LD	IX,0FB8AH
4936+ D391 18 07        	JR	$+09	;D39A
4937+ D393 CD 68 CE     	CALL	0CE68H
4938+ D396 DD 21 B4 FB  	LD	IX,0FBB4H
4939+ D39A FD 21 1E FB  	LD	IY,0FB1EH
4940+ D39E FD 73 05     	LD	(IY+05),E
4941+ D3A1 FD 36 09 00  	LD	(IY+09),000H
4942+ D3A5 CD 37 D8     	CALL	0D837H
4943+ D3A8 E5           	PUSH	HL
4944+ D3A9 DD 66 0F     	LD	H,(IX+15)
4945+ D3AC DD 6E 0E     	LD	L,(IX+14)
4946+ D3AF 22 34 FB     	LD	(0FB34H),HL
4947+ D3B2 E1           	POP	HL
4948+ D3B3 32 1E FB     	LD	(0FB1EH),A
4949+ D3B6 DD E5        	PUSH	IX
4950+ D3B8 FE 02        	CP	002H
4951+ D3BA 28 15        	JR	Z,$+23	;D3D1
4952+ D3BC FE 03        	CP	003H
4953+ D3BE 28 11        	JR	Z,$+19	;D3D1
4954+ D3C0 FE 04        	CP	004H
4955+ D3C2 CA 28 D5     	JP	Z,0D528H
4956+ D3C5 FE 05        	CP	005H
4957+ D3C7 CA 28 D5     	JP	Z,0D528H
4958+ D3CA E5           	PUSH	HL
4959+ D3CB CD 47 D6     	CALL	0D647H
4960+ D3CE C3 75 D6     	JP	0D675H
4961+ D3D1 11 01 01     	LD	DE,00101H
4962+ D3D4 ED 53 32 FB  	LD	(0FB32H),DE
4963+ D3D8 E5           	PUSH	HL
4964+ D3D9 C1           	POP	BC
4965+ D3DA 21 00 80     	LD	HL,08000H
4966+ D3DD 22 34 FB     	LD	(0FB34H),HL
4967+ D3E0 CD B0 D7     	CALL	0D7B0H
4968+ D3E3 DD 36 01 80  	LD	(IX+01),080H
4969+ D3E7 3E 0C        	LD	A,00CH
4970+ D3E9 CD 93 D6     	CALL	0D693H
4971+ D3EC 21 2E FB     	LD	HL,0FB2EH
4972+ D3EF EB           	EX	DE,HL
4973+ D3F0 01 04 00     	LD	BC,00004H
4974+ D3F3 ED B0        	LDIR
4975+ D3F5 CD 26 D8     	CALL	0D826H
4976+ D3F8 0A           	LD	A,(BC)
4977+ D3F9 FE 44        	CP	044H
4978+ D3FB CA D7 D4     	JP	Z,0D4D7H
4979+ D3FE FE 48        	CP	048H
4980+ D400 3E 05        	LD	A,005H
4981+ D402 01 00 05     	LD	BC,00500H
4982+ D405 CA E4 D4     	JP	Z,0D4E4H
4983+ D408 FD 35 13     	DEC	(IY+19)
4984+ D40B CA 06 D5     	JP	Z,0D506H
4985+ D40E 3E 0C        	LD	A,00CH
4986+ D410 CD 93 D6     	CALL	0D693H
4987+ D413 D5           	PUSH	DE
4988+ D414 21 06 00     	LD	HL,00006H
4989+ D417 19           	ADD	HL,DE
4990+ D418 0A           	LD	A,(BC)
4991+ D419 BE           	CP	(HL)
4992+ D41A E1           	POP	HL
4993+ D41B 20 EB        	JR	NZ,$-19	;D408
4994+ D41D 1E 00        	LD	E,000H
4995+ D41F CD 21 CD     	CALL	0CD21H
4996+ D422 FD CB 0A 66  	BIT	4,(IY+10)
4997+ D426 28 1B        	JR	Z,$+29	;D443
4998+ D428 06 04        	LD	B,004H
4999+ D42A CD B0 D6     	CALL	0D6B0H
5000+ D42D 46           	LD	B,(HL)
5001+ D42E 23           	INC	HL
5002+ D42F 4E           	LD	C,(HL)
5003+ D430 EB           	EX	DE,HL
5004+ D431 56           	LD	D,(HL)
5005+ D432 23           	INC	HL
5006+ D433 5E           	LD	E,(HL)
5007+ D434 EB           	EX	DE,HL
5008+ D435 ED 42        	SBC	HL,BC
5009+ D437 30 CF        	JR	NC,$-47	;D408
5010+ D439 EB           	EX	DE,HL
5011+ D43A 71           	LD	(HL),C
5012+ D43B 2B           	DEC	HL
5013+ D43C 70           	LD	(HL),B
5014+ D43D FD CB 0A AE  	RES	5,(IY+10)
5015+ D441 18 C5        	JR	$-57	;D408
5016+ D443 06 06        	LD	B,006H
5017+ D445 CD B0 D6     	CALL	0D6B0H
5018+ D448 FD CB 00 46  	BIT	0,(IY+00)
5019+ D44C C2 21 D5     	JP	NZ,0D521H
5020+ D44F CD 1F D8     	CALL	0D81FH
5021+ D452 21 07 00     	LD	HL,00007H
5022+ D455 19           	ADD	HL,DE
5023+ D456 CD 26 D8     	CALL	0D826H
5024+ D459 1E 01        	LD	E,001H
5025+ D45B CD 21 CD     	CALL	0CD21H
5026+ D45E 7E           	LD	A,(HL)
5027+ D45F 30 01        	JR	NC,$+03	;D462
5028+ D461 12           	LD	(DE),A
5029+ D462 23           	INC	HL
5030+ D463 1E 02        	LD	E,002H
5031+ D465 CD 21 CD     	CALL	0CD21H
5032+ D468 C5           	PUSH	BC
5033+ D469 30 05        	JR	NC,$+07	;D470
5034+ D46B 01 06 00     	LD	BC,00006H
5035+ D46E ED B0        	LDIR
5036+ D470 CD 1F D8     	CALL	0D81FH
5037+ D473 21 14 00     	LD	HL,00014H
5038+ D476 19           	ADD	HL,DE
5039+ D477 1E 03        	LD	E,003H
5040+ D479 C1           	POP	BC
5041+ D47A CD 21 CD     	CALL	0CD21H
5042+ D47D C5           	PUSH	BC
5043+ D47E E5           	PUSH	HL
5044+ D47F 01 03 00     	LD	BC,00003H
5045+ D482 30 02        	JR	NC,$+04	;D486
5046+ D484 ED B0        	LDIR
5047+ D486 E1           	POP	HL
5048+ D487 23           	INC	HL
5049+ D488 23           	INC	HL
5050+ D489 23           	INC	HL
5051+ D48A CD 32 D8     	CALL	0D832H
5052+ D48D ED 53 32 FB  	LD	(0FB32H),DE
5053+ D491 CD 32 D8     	CALL	0D832H
5054+ D494 EB           	EX	DE,HL
5055+ D495 22 34 FB     	LD	(0FB34H),HL
5056+ D498 06 07        	LD	B,007H
5057+ D49A 29           	ADD	HL,HL
5058+ D49B 10 FD        	DJNZ	$-01	;D49A
5059+ D49D EB           	EX	DE,HL
5060+ D49E C1           	POP	BC
5061+ D49F D5           	PUSH	DE
5062+ D4A0 1E 04        	LD	E,004H
5063+ D4A2 CD 21 CD     	CALL	0CD21H
5064+ D4A5 C5           	PUSH	BC
5065+ D4A6 30 05        	JR	NC,$+07	;D4AD
5066+ D4A8 01 05 00     	LD	BC,00005H
5067+ D4AB ED B0        	LDIR
5068+ D4AD C1           	POP	BC
5069+ D4AE 1E 07        	LD	E,007H
5070+ D4B0 CD 21 CD     	CALL	0CD21H
5071+ D4B3 E1           	POP	HL
5072+ D4B4 EB           	EX	DE,HL
5073+ D4B5 30 03        	JR	NC,$+05	;D4BA
5074+ D4B7 CD 2D D8     	CALL	0D82DH
5075+ D4BA CD 26 D8     	CALL	0D826H
5076+ D4BD DD 21 77 D6  	LD	IX,0D677H
5077+ D4C1 DD E3        	EX	(SP),IX
5078+ D4C3 DD CB 00 76  	BIT	6,(IX+00)
5079+ D4C7 CA C5 D7     	JP	Z,0D7C5H
5080+ D4CA 3E 12        	LD	A,012H
5081+ D4CC C5           	PUSH	BC
5082+ D4CD CD A2 D7     	CALL	0D7A2H
5083+ D4D0 C1           	POP	BC
5084+ D4D1 CA 55 D5     	JP	Z,0D555H
5085+ D4D4 C3 C5 D7     	JP	0D7C5H
5086+ D4D7 3A 31 FB     	LD	A,(0FB31H)
5087+ D4DA 3D           	DEC	A
5088+ D4DB CB 3F        	SRL	A
5089+ D4DD CB 3F        	SRL	A
5090+ D4DF 3C           	INC	A
5091+ D4E0 3C           	INC	A
5092+ D4E1 01 01 01     	LD	BC,00101H
5093+ D4E4 FD CB 00 46  	BIT	0,(IY+00)
5094+ D4E8 20 10        	JR	NZ,$+18	;D4FA
5095+ D4EA 11 15 00     	LD	DE,00015H
5096+ D4ED 19           	ADD	HL,DE
5097+ D4EE 77           	LD	(HL),A
5098+ D4EF 2B           	DEC	HL
5099+ D4F0 70           	LD	(HL),B
5100+ D4F1 2B           	DEC	HL
5101+ D4F2 71           	LD	(HL),C
5102+ D4F3 C3 4F D4     	JP	0D44FH
5103+ D4F6 ED 4B 2F FB  	LD	BC,(0FB2FH)
5104+ D4FA ED 43 32 FB  	LD	(0FB32H),BC
5105+ D4FE 21 00 00     	LD	HL,00000H
5106+ D501 22 34 FB     	LD	(0FB34H),HL
5107+ D504 18 B4        	JR	$-74	;D4BA
5108+ D506 FD CB 00 46  	BIT	0,(IY+00)
5109+ D50A 20 EA        	JR	NZ,$-20	;D4F6
5110+ D50C FD CB 0A 66  	BIT	4,(IY+10)
5111+ D510 28 0F        	JR	Z,$+17	;D521
5112+ D512 FD CB 0A 6E  	BIT	5,(IY+10)
5113+ D516 FD 36 09 FF  	LD	(IY+09),0FFH
5114+ D51A 20 09        	JR	NZ,$+11	;D525
5115+ D51C FD 35 09     	DEC	(IY+09)
5116+ D51F 18 04        	JR	$+06	;D525
5117+ D521 FD 36 09 02  	LD	(IY+09),002H
5118+ D525 C3 76 D6     	JP	0D676H
5119+ D528 DD E1        	POP	IX
5120+ D52A CD 47 D5     	CALL	0D547H
5121+ D52D DD CB 00 7E  	BIT	7,(IX+00)
5122+ D531 CA 77 D6     	JP	Z,0D677H
5123+ D534 CD 26 D8     	CALL	0D826H
5124+ D537 0A           	LD	A,(BC)
5125+ D538 FE 44        	CP	044H
5126+ D53A 28 F5        	JR	Z,$-09	;D531
5127+ D53C FE 48        	CP	048H
5128+ D53E 28 F1        	JR	Z,$-13	;D531
5129+ D540 E5           	PUSH	HL
5130+ D541 DD CB 00 F6  	SET	6,(IX+00)
5131+ D545 18 14        	JR	$+22	;D55B
5132+ D547 DD CB 00 76  	BIT	6,(IX+00)
5133+ D54B DD CB 00 B6  	RES	6,(IX+00)
5134+ D54F C0           	RET	NZ
5135+ D550 3E 11        	LD	A,011H
5136+ D552 CD 6D CC     	CALL	0CC6DH
5137+ D555 FD 36 09 01  	LD	(IY+09),001H
5138+ D559 18 CA        	JR	$-52	;D525
5139+ D55B CD 1F D8     	CALL	0D81FH
5140+ D55E DD 36 01 80  	LD	(IX+01),080H
5141+ D562 3E 0D        	LD	A,00DH
5142+ D564 CD 8E D6     	CALL	0D68EH
5143+ D567 E1           	POP	HL
5144+ D568 DD 6E 10     	LD	L,(IX+16)
5145+ D56B DD 66 11     	LD	H,(IX+17)
5146+ D56E E5           	PUSH	HL
5147+ D56F 11 01 01     	LD	DE,00101H
5148+ D572 3E 0C        	LD	A,00CH
5149+ D574 CD 88 D6     	CALL	0D688H
5150+ D577 D5           	PUSH	DE
5151+ D578 21 2E FB     	LD	HL,0FB2EH
5152+ D57B EB           	EX	DE,HL
5153+ D57C 01 04 00     	LD	BC,00004H
5154+ D57F ED B0        	LDIR
5155+ D581 E1           	POP	HL
5156+ D582 D1           	POP	DE
5157+ D583 E5           	PUSH	HL
5158+ D584 23           	INC	HL
5159+ D585 CD 2D D8     	CALL	0D82DH
5160+ D588 34           	INC	(HL)
5161+ D589 3E 0D        	LD	A,00DH
5162+ D58B 11 01 01     	LD	DE,00101H
5163+ D58E CD 88 D6     	CALL	0D688H
5164+ D591 3A 31 FB     	LD	A,(0FB31H)
5165+ D594 57           	LD	D,A
5166+ D595 FE 67        	CP	067H
5167+ D597 20 0B        	JR	NZ,$+13	;D5A4
5168+ D599 3E 40        	LD	A,040H
5169+ D59B FD 36 09 00  	LD	(IY+09),000H
5170+ D59F CD 6D CC     	CALL	0CC6DH
5171+ D5A2 28 B1        	JR	Z,$-77	;D555
5172+ D5A4 FE 68        	CP	068H
5173+ D5A6 38 04        	JR	C,$+06	;D5AC
5174+ D5A8 3E 44        	LD	A,044H
5175+ D5AA 28 A6        	JR	Z,$-88	;D552
5176+ D5AC 7A           	LD	A,D
5177+ D5AD 16 00        	LD	D,000H
5178+ D5AF 14           	INC	D
5179+ D5B0 D6 04        	SUB	004H
5180+ D5B2 F2 AF D5     	JP	P,0D5AFH
5181+ D5B5 FD 72 01     	LD	(IY+01),D
5182+ D5B8 C6 05        	ADD	A,005H
5183+ D5BA 4F           	LD	C,A
5184+ D5BB AF           	XOR	A
5185+ D5BC FD 77 02     	LD	(IY+02),A
5186+ D5BF 0D           	DEC	C
5187+ D5C0 28 04        	JR	Z,$+06	;D5C6
5188+ D5C2 C6 20        	ADD	A,020H
5189+ D5C4 18 F6        	JR	$-08	;D5BC
5190+ D5C6 1E 01        	LD	E,001H
5191+ D5C8 3E 0C        	LD	A,00CH
5192+ D5CA CD 88 D6     	CALL	0D688H
5193+ D5CD 26 00        	LD	H,000H
5194+ D5CF FD 6E 02     	LD	L,(IY+02)
5195+ D5D2 19           	ADD	HL,DE
5196+ D5D3 1E 00        	LD	E,000H
5197+ D5D5 CD 21 CD     	CALL	0CD21H
5198+ D5D8 C5           	PUSH	BC
5199+ D5D9 0A           	LD	A,(BC)
5200+ D5DA 01 06 00     	LD	BC,00006H
5201+ D5DD EB           	EX	DE,HL
5202+ D5DE ED B0        	LDIR
5203+ D5E0 EB           	EX	DE,HL
5204+ D5E1 77           	LD	(HL),A
5205+ D5E2 23           	INC	HL
5206+ D5E3 C1           	POP	BC
5207+ D5E4 1E 01        	LD	E,001H
5208+ D5E6 CD 21 CD     	CALL	0CD21H
5209+ D5E9 3E 20        	LD	A,020H
5210+ D5EB 30 01        	JR	NC,$+03	;D5EE
5211+ D5ED 1A           	LD	A,(DE)
5212+ D5EE 77           	LD	(HL),A
5213+ D5EF 1E 02        	LD	E,002H
5214+ D5F1 CD 21 CD     	CALL	0CD21H
5215+ D5F4 23           	INC	HL
5216+ D5F5 C5           	PUSH	BC
5217+ D5F6 EB           	EX	DE,HL
5218+ D5F7 30 05        	JR	NC,$+07	;D5FE
5219+ D5F9 01 06 00     	LD	BC,00006H
5220+ D5FC ED B0        	LDIR
5221+ D5FE D4 A1 CE     	CALL	NC,CEA1
5222+ D601 CD A1 CE     	CALL	CEA1
5223+ D604 EB           	EX	DE,HL
5224+ D605 C1           	POP	BC
5225+ D606 1E 03        	LD	E,003H
5226+ D608 CD 21 CD     	CALL	0CD21H
5227+ D60B C5           	PUSH	BC
5228+ D60C 01 03 00     	LD	BC,00003H
5229+ D60F EB           	EX	DE,HL
5230+ D610 38 03        	JR	C,$+05	;D615
5231+ D612 21 3D F2     	LD	HL,V1.SIGN	;0F23DH
5232+ D615 ED B0        	LDIR
5233+ D617 EB           	EX	DE,HL
5234+ D618 ED 5B 2F FB  	LD	DE,(0FB2FH)
5235+ D61C CD 2D D8     	CALL	0D82DH
5236+ D61F ED 5B 34 FB  	LD	DE,(0FB34H)
5237+ D623 1B           	DEC	DE
5238+ D624 1B           	DEC	DE
5239+ D625 1B           	DEC	DE
5240+ D626 CD 2D D8     	CALL	0D82DH
5241+ D629 C1           	POP	BC
5242+ D62A 1E 04        	LD	E,004H
5243+ D62C CD 21 CD     	CALL	0CD21H
5244+ D62F EB           	EX	DE,HL
5245+ D630 01 05 00     	LD	BC,00005H
5246+ D633 30 02        	JR	NC,$+04	;D637
5247+ D635 ED B0        	LDIR
5248+ D637 3E 0D        	LD	A,00DH
5249+ D639 FD 56 01     	LD	D,(IY+01)
5250+ D63C 1E 01        	LD	E,001H
5251+ D63E CD 88 D6     	CALL	0D688H
5252+ D641 DD CB 00 B6  	RES	6,(IX+00)
5253+ D645 18 2F        	JR	$+49	;D676
5254+ D647 FD 36 F9 08  	LD	(IY-07),008H
5255+ D64B CB 47        	BIT	0,A
5256+ D64D 28 03        	JR	Z,$+05	;D652
5257+ D64F FD 34 F9     	INC	(IY-07)
5258+ D652 CD 44 CD     	CALL	0CD44H
5259+ D655 30 09        	JR	NC,$+11	;D660
5260+ D657 CD 82 D6     	CALL	0D682H
5261+ D65A C0           	RET	NZ
5262+ D65B FD 36 09 05  	LD	(IY+09),005H
5263+ D65F C9           	RET
5264+ D660 06 11        	LD	B,011H
5265+ D662 28 08        	JR	Z,$+10	;D66C
5266+ D664 06 12        	LD	B,012H
5267+ D666 FE 01        	CP	001H
5268+ D668 28 02        	JR	Z,$+04	;D66C
5269+ D66A 06 11        	LD	B,011H
5270+ D66C 78           	LD	A,B
5271+ D66D CD 6D CC     	CALL	0CC6DH
5272+ D670 FD 36 09 01  	LD	(IY+09),001H
5273+ D674 E1           	POP	HL
5274+ D675 E1           	POP	HL
5275+ D676 E1           	POP	HL
5276+ D677 1E FF        	LD	E,0FFH
5277+ D679 DD 56 07     	LD	D,(IX+07)
5278+ D67C C3 50 D8     	JP	0D850H
5279+ D67F CD BD D6     	CALL	0D6BDH
5280+ D682 CD 9F CD     	CALL	0CD9FH
5281+ D685 30 F8        	JR	NC,$-06	;D67F
5282+ D687 C9           	RET
5283+ D688              ;
5284+ D688 DD 73 10     	LD	(IX+16),E
5285+ D68B DD 72 11     	LD	(IX+17),D
5286+ D68E 01 80 00     	LD	BC,00080H
5287+ D691 18 03        	JR	$+05	;D696
5288+ D693 01 20 00     	LD	BC,00020H
5289+ D696 DD CB 00 BE  	RES	7,(IX+00)
5290+ D69A CB 47        	BIT	0,A
5291+ D69C 28 04        	JR	Z,$+06	;D6A2
5292+ D69E DD CB 00 FE  	SET	7,(IX+00)
5293+ D6A2 CD 1F D8     	CALL	0D81FH
5294+ D6A5 EB           	EX	DE,HL
5295+ D6A6 50           	LD	D,B
5296+ D6A7 CD 47 D6     	CALL	0D647H
5297+ D6AA CD 1F D8     	CALL	0D81FH
5298+ D6AD C3 26 D8     	JP	0D826H
5299+ D6B0 1A           	LD	A,(DE)
5300+ D6B1 BE           	CP	(HL)
5301+ D6B2 20 05        	JR	NZ,$+07	;D6B9
5302+ D6B4 23           	INC	HL
5303+ D6B5 13           	INC	DE
5304+ D6B6 10 F8        	DJNZ	$-06	;D6B0
5305+ D6B8 C9           	RET
5306+ D6B9              ;
5307+ D6B9 E1           	POP	HL
5308+ D6BA C3 08 D4     	JP	0D408H
5309+ D6BD              ;
5310+ D6BD DD CB 00 46  	BIT	0,(IX+00)
5311+ D6C1 28 10        	JR	Z,$+18	;D6D3
5312+ D6C3 DD 7E 11     	LD	A,(IX+17)
5313+ D6C6 D6 03        	SUB	003H
5314+ D6C8 30 05        	JR	NC,$+07	;D6CF
5315+ D6CA DD 35 10     	DEC	(IX+16)
5316+ D6CD C6 1A        	ADD	A,01AH
5317+ D6CF 3C           	INC	A
5318+ D6D0 DD 77 11     	LD	(IX+17),A
5319+ D6D3 CD 4C D7     	CALL	0D74CH
5320+ D6D6 30 2B        	JR	NC,$+45	;D703
5321+ D6D8 FE 72        	CP	072H
5322+ D6DA 20 19        	JR	NZ,$+27	;D6F5
5323+ D6DC CD AA D7     	CALL	0D7AAH
5324+ D6DF FD 7E F9     	LD	A,(IY-07)
5325+ D6E2 F5           	PUSH	AF
5326+ D6E3 FD 36 F9 04  	LD	(IY-07),004H
5327+ D6E7 CD 4C D7     	CALL	0D74CH
5328+ D6EA D1           	POP	DE
5329+ D6EB 38 08        	JR	C,$+10	;D6F5
5330+ D6ED FD 72 F9     	LD	(IY-07),D
5331+ D6F0 CD 4C D7     	CALL	0D74CH
5332+ D6F3 30 0E        	JR	NC,$+16	;D703
5333+ D6F5 CD 9A D7     	CALL	0D79AH
5334+ D6F8 20 09        	JR	NZ,$+11	;D703
5335+ D6FA FD 36 09 01  	LD	(IY+09),001H
5336+ D6FE E1           	POP	HL
5337+ D6FF E1           	POP	HL
5338+ D700 C3 74 D6     	JP	0D674H
5339+ D703              ;
5340+ D703 47           	LD	B,A
5341+ D704 DD 34 11     	INC	(IX+17)
5342+ D707 DD 7E 11     	LD	A,(IX+17)
5343+ D70A FE 1B        	CP	01BH
5344+ D70C 20 24        	JR	NZ,$+38	;D732
5345+ D70E DD 36 11 01  	LD	(IX+17),001H
5346+ D712 DD 34 10     	INC	(IX+16)
5347+ D715 DD 7E 10     	LD	A,(IX+16)
5348+ D718 FE 45        	CP	045H
5349+ D71A 20 02        	JR	NZ,$+04	;D71E
5350+ D71C 06 30        	LD	B,030H
5351+ D71E FE 4A        	CP	04AH
5352+ D720 38 10        	JR	C,$+18	;D732
5353+ D722 DD 35 10     	DEC	(IX+16)
5354+ D725 DD 36 11 19  	LD	(IX+17),019H
5355+ D729 3E 42        	LD	A,042H
5356+ D72B DD CB 00 7E  	BIT	7,(IX+00)
5357+ D72F C2 F5 D6     	JP	NZ,0D6F5H
5358+ D732 CD 7F D7     	CALL	0D77FH
5359+ D735 3E 14        	LD	A,014H
5360+ D737 CC A2 D7     	CALL	Z,0D7A2H
5361+ D73A 28 BE        	JR	Z,$-64	;D6FA
5362+ D73C 3E 30        	LD	A,030H
5363+ D73E B8           	CP	B
5364+ D73F C0           	RET	NZ
5365+ D740 DD CB 00 7E  	BIT	7,(IX+00)
5366+ D744 C8           	RET	Z
5367+ D745 CD 9A D7     	CALL	0D79AH
5368+ D748 28 B0        	JR	Z,$-78	;D6FA
5369+ D74A 18 49        	JR	$+75	;D795
5370+ D74C DD 6E 10     	LD	L,(IX+16)
5371+ D74F DD 66 11     	LD	H,(IX+17)
5372+ D752 22 1C FB     	LD	(0FB1CH),HL
5373+ D755 DD 6E 03     	LD	L,(IX+03)
5374+ D758 DD 66 04     	LD	H,(IX+04)
5375+ D75B 22 1A FB     	LD	(0FB1AH),HL
5376+ D75E DD 7E 14     	LD	A,(IX+20)
5377+ D761 32 18 FB     	LD	(0FB18H),A
5378+ D764 CD 14 FB     	CALL	0FB14H
5379+ D767 FD 7E FA     	LD	A,(IY-06)
5380+ D76A CD A0 D9     	CALL	0D9A0H
5381+ D76D 28 F8        	JR	Z,$-06	;D767
5382+ D76F DD 6E 0C     	LD	L,(IX+12)
5383+ D772 DD 66 0D     	LD	H,(IX+13)
5384+ D775 CD 32 D8     	CALL	0D832H
5385+ D778 DD 73 10     	LD	(IX+16),E
5386+ D77B DD 72 11     	LD	(IX+17),D
5387+ D77E C9           	RET
5388+ D77F ED 5B 34 FB  	LD	DE,(0FB34H)
5389+ D783 3E 03        	LD	A,003H
5390+ D785 FD A6 00     	AND	(IY+00)
5391+ D788 28 03        	JR	Z,$+05	;D78D
5392+ D78A 13           	INC	DE
5393+ D78B 18 03        	JR	$+05	;D790
5394+ D78D 7A           	LD	A,D
5395+ D78E B3           	OR	E
5396+ D78F 1B           	DEC	DE
5397+ D790 ED 53 34 FB  	LD	(0FB34H),DE
5398+ D794 C0           	RET	NZ
5399+ D795 FD 36 09 03  	LD	(IY+09),003H
5400+ D799 C9           	RET
5401+ D79A              ;
5402+ D79A E6 F0        	AND	0F0H
5403+ D79C 0F           	RRCA
5404+ D79D 0F           	RRCA
5405+ D79E 0F           	RRCA
5406+ D79F 0F           	RRCA
5407+ D7A0 F6 50        	OR	050H
5408+ D7A2 47           	LD	B,A
5409+ D7A3 CD AA D7     	CALL	0D7AAH
5410+ D7A6 78           	LD	A,B
5411+ D7A7 C3 6D CC     	JP	0CC6DH
5412+ D7AA FD 7E FA     	LD	A,(IY-06)
5413+ D7AD C3 8E D9     	JP	0D98EH
5414+ D7B0 C5           	PUSH	BC
5415+ D7B1 FD 7E 05     	LD	A,(IY+05)
5416+ D7B4 CD 3E D9     	CALL	0D93EH
5417+ D7B7 01 0B 00     	LD	BC,0000BH
5418+ D7BA DD 09        	ADD	IX,BC
5419+ D7BC DD 22 EA FB  	LD	(0FBEAH),IX
5420+ D7C0 C1           	POP	BC
5421+ D7C1 DD 21 DE FB  	LD	IX,0FBDEH
5422+ D7C5 DD E5        	PUSH	IX
5423+ D7C7 E1           	POP	HL
5424+ D7C8 36 40        	LD	(HL),040H
5425+ D7CA FD CB 00 46  	BIT	0,(IY+00)
5426+ D7CE 11 80 00     	LD	DE,00080H
5427+ D7D1 28 05        	JR	Z,$+07	;D7D8
5428+ D7D3 CB FE        	SET	7,(HL)
5429+ D7D5 11 00 00     	LD	DE,00000H
5430+ D7D8 23           	INC	HL
5431+ D7D9 CD 2D D8     	CALL	0D82DH
5432+ D7DC E5           	PUSH	HL
5433+ D7DD 21 1D F8     	LD	HL,0F81DH
5434+ D7E0 FD CB 00 46  	BIT	0,(IY+00)
5435+ D7E4 28 03        	JR	Z,$+05	;D7E9
5436+ D7E6 21 9D F8     	LD	HL,0F89DH
5437+ D7E9 1E 05        	LD	E,005H
5438+ D7EB CD 21 CD     	CALL	0CD21H
5439+ D7EE EB           	EX	DE,HL
5440+ D7EF DC 32 D8     	CALL	C,0D832H
5441+ D7F2 E1           	POP	HL
5442+ D7F3 CD 2D D8     	CALL	0D82DH
5443+ D7F6 11 80 00     	LD	DE,00080H
5444+ D7F9 CD 2D D8     	CALL	0D82DH
5445+ D7FC 11 05 00     	LD	DE,00005H
5446+ D7FF 19           	ADD	HL,DE
5447+ D800              	; LD	(BC),A	; OLD !!!
5448+ D800              	; RET	M	; OLD !!!
5449+ D800              	; NEU !!!
5450+ D800              	; JP	PE,0CDFBH
5451+ D800              	; DEC	L
5452+ D800              	; RET	C
5453+ D800 ED 5B EA FB  	LD	DE,(0FBEAH)
5454+ D804 CD 2D D8     	CALL	0D82DH
5455+ D807 ED 5B 34 FB  	LD	DE,(0FB34H)
5456+ D80B CD 2D D8     	CALL	0D82DH
5457+ D80E ED 5B 32 FB  	LD	DE,(0FB32H)
5458+ D812 CD 2D D8     	CALL	0D82DH
5459+ D815 C5           	PUSH	BC
5460+ D816 D1           	POP	DE
5461+ D817 CD 2D D8     	CALL	0D82DH
5462+ D81A FD 7E 05     	LD	A,(IY+05)
5463+ D81D 77           	LD	(HL),A
5464+ D81E C9           	RET
5465+ D81F              ;
5466+ D81F DD 5E 03     	LD	E,(IX+03)
5467+ D822 DD 56 04     	LD	D,(IX+04)
5468+ D825 C9           	RET
5469+ D826 DD 4E 12     	LD	C,(IX+18)
5470+ D829 DD 46 13     	LD	B,(IX+19)
5471+ D82C C9           	RET
5472+ D82D 73           	LD	(HL),E
5473+ D82E 23           	INC	HL
5474+ D82F 72           	LD	(HL),D
5475+ D830 23           	INC	HL
5476+ D831 C9           	RET
5477+ D832 5E           	LD	E,(HL)
5478+ D833 23           	INC	HL
5479+ D834 56           	LD	D,(HL)
5480+ D835 23           	INC	HL
5481+ D836 C9           	RET
5482+ D837 FD 36 0A 00  	LD	(IY+10),000H
5483+ D83B FE FF        	CP	0FFH
5484+ D83D 20 06        	JR	NZ,$+08	;D845
5485+ D83F FD 36 0A 30  	LD	(IY+10),030H
5486+ D843 3E 02        	LD	A,002H
5487+ D845 CB 47        	BIT	0,A
5488+ D847 C8           	RET	Z
5489+ D848 D5           	PUSH	DE
5490+ D849 11 15 00     	LD	DE,00015H
5491+ D84C DD 19        	ADD	IX,DE
5492+ D84E D1           	POP	DE
5493+ D84F C9           	RET
5494+ D850 3A 27 FB     	LD	A,(0FB27H)
5495+ D853 2A 34 FB     	LD	HL,(0FB34H)
5496+ D856 DD 74 0F     	LD	(IX+15),H
5497+ D859 DD 75 0E     	LD	(IX+14),L
5498+ D85C CD 70 CE     	CALL	CE70
5499+ D85F C3 E7 CB     	JP	0CBE7H
5500+ D862              ;
5501+ D862              ;    PAGE
5502+ D862              ;	-----
5503+ D862              D862:
5504+ D862              EAM01:						;PN XA	E-/A-Monitor
5505+ D862 DD E3        	EX	(SP),IX
5506+ D864 E5           	PUSH	HL
5507+ D865 C5           	PUSH	BC
5508+ D866 D5           	PUSH	DE
5509+ D867 F5           	PUSH	AF
5510+ D868 DD 7E 01     	LD	A,(IX+01)
5511+ D86B 21 39 F5     	LD	HL,0F539H
5512+ D86E 46           	LD	B,(HL)
5513+ D86F 11 0D 00     	LD	DE,0000DH
5514+ D872 23           	INC	HL
5515+ D873              EAM02:
5516+ D873 BE           	CP	(HL)
5517+ D874 28 0B        	JR	Z,EAM05
5518+ D876 19           	ADD	HL,DE
5519+ D877 10 FA        	DJNZ	EAM02
5520+ D879 F1           	POP	AF
5521+ D87A              EAM03:
5522+ D87A AF           	XOR	A
5523+ D87B              EAM04;
5524+ D87B D1           	POP	DE
5525+ D87C C1           	POP	BC
5526+ D87D E1           	POP	HL
5527+ D87E DD E1        	POP	IX
5528+ D880 C9           	RET
5529+ D881              ;
5530+ D881              EAM05
5531+ D881 DD 4E 00     	LD	C,(IX+00)
5532+ D884 DD 22 C7 F3  	LD	(0F3C7H),IX
5533+ D888 E5           	PUSH	HL
5534+ D889 DD E1        	POP	IX
5535+ D88B CB 01        	RLC	C
5536+ D88D 30 17        	JR	NC,EAM08
5537+ D88F F1           	POP	AF
5538+ D890 DD 7E 05     	LD	A,(IX+05)
5539+ D893 CB 01        	RLC	C
5540+ D895 38 09        	JR	C,EAM07
5541+ D897 CB 01        	RLC	C
5542+ D899 38 E0        	JR	C,EAM04
5543+ D89B 18 DD        	JR	EAM03
5544+ D89D              ;
5545+ D89D              EAM06:
5546+ D89D F1           	POP	AF
5547+ D89E 18 DB        	JR	EAM04
5548+ D8A0              ;
5549+ D8A0              EAM07:
5550+ D8A0 D1           	POP	DE
5551+ D8A1 C1           	POP	BC
5552+ D8A2 E1           	POP	HL
5553+ D8A3 33           	INC	SP
5554+ D8A4 33           	INC	SP
5555+ D8A5 C9           	RET
5556+ D8A6              ;
5557+ D8A6              EAM08:
5558+ D8A6 DD CB 05 46  	BIT	0,(IX+05)
5559+ D8AA 20 FA        	JR	NZ,EAM08
5560+ D8AC CB 09        	RRC	C
5561+ D8AE DD 71 06     	LD	(IX+06),C
5562+ D8B1 DD 7E 04     	LD	A,(IX+04)
5563+ D8B4 B7           	OR	A
5564+ D8B5 20 0C        	JR	NZ,EAM10
5565+ D8B7              EAM09:
5566+ D8B7 DD CB 05 4E  	BIT	1,(IX+05)
5567+ D8BB 28 37        	JR	Z,EAM15
5568+ D8BD DD CB 05 D6  	SET	2,(IX+05)
5569+ D8C1 18 DA        	JR	EAM06
5570+ D8C3              ;
5571+ D8C3              EAM10:
5572+ D8C3 DD 7E 03     	LD	A,(IX+03)
5573+ D8C6 21 39 F5     	LD	HL,0F539H
5574+ D8C9 46           	LD	B,(HL)
5575+ D8CA 11 0D 00     	LD	DE,0000DH
5576+ D8CD 21 3D F5     	LD	HL,0F53DH
5577+ D8D0              EAM11:
5578+ D8D0 BE           	CP	(HL)
5579+ D8D1 28 07        	JR	Z,EAM13
5580+ D8D3 23           	INC	HL
5581+ D8D4              EAM12:
5582+ D8D4 2B           	DEC	HL
5583+ D8D5 19           	ADD	HL,DE
5584+ D8D6 10 F8        	DJNZ	EAM11
5585+ D8D8 18 DD        	JR	EAM09
5586+ D8DA              ;
5587+ D8DA              EAM13
5588+ D8DA 23           	INC	HL
5589+ D8DB 34           	INC	(HL)
5590+ D8DC 35           	DEC	(HL)
5591+ D8DD 28 F5        	JR	Z,EAM12
5592+ D8DF E5           	PUSH	HL
5593+ D8E0 C5           	PUSH	BC
5594+ D8E1 01 04 00     	LD	BC,00004H
5595+ D8E4 ED 42        	SBC	HL,BC
5596+ D8E6 34           	INC	(HL)
5597+ D8E7 35           	DEC	(HL)
5598+ D8E8 C1           	POP	BC
5599+ D8E9 E1           	POP	HL
5600+ D8EA 28 E8        	JR	Z,EAM12
5601+ D8EC              EAM14:
5602+ D8EC 23           	INC	HL
5603+ D8ED CB 46        	BIT	0,(HL)
5604+ D8EF 2B           	DEC	HL
5605+ D8F0 28 E2        	JR	Z,EAM12
5606+ D8F2 18 F8        	JR	EAM14
5607+ D8F4              ;
5608+ D8F4              EAM15:
5609+ D8F4 DD E5        	PUSH	IX
5610+ D8F6 2A C7 F3     	LD	HL,(0F3C7H)
5611+ D8F9 23           	INC	HL
5612+ D8FA 23           	INC	HL
5613+ D8FB 7E           	LD	A,(HL)
5614+ D8FC 06 03        	LD	B,3
5615+ D8FE              EAM16:
5616+ D8FE 0F           	RRCA
5617+ D8FF 30 0A        	JR	NC,EAM17
5618+ D901 23           	INC	HL
5619+ D902 4E           	LD	C,(HL)
5620+ D903 DD 71 07     	LD	(IX+07),C
5621+ D906 23           	INC	HL
5622+ D907 4E           	LD	C,(HL)
5623+ D908 DD 71 08     	LD	(IX+08),C
5624+ D90B              EAM17:
5625+ D90B DD 23        	INC	IX
5626+ D90D DD 23        	INC	IX
5627+ D90F 10 ED        	DJNZ	EAM16
5628+ D911 DD E1        	POP	IX
5629+ D913 DD CB 05 C6  	SET	0,(IX+05)
5630+ D917 DD CB 05 96  	RES	2,(IX+05)
5631+ D91B DD CB 05 9E  	RES	3,(IX+05)
5632+ D91F DD 66 02     	LD	H,(IX+02)
5633+ D922 DD 6E 01     	LD	L,(IX+01)
5634+ D925 F1           	POP	AF
5635+ D926 D1           	POP	DE
5636+ D927 C1           	POP	BC
5637+ D928 E3           	EX	(SP),HL
5638+ D929 C9           	RET
5639+ D92A              ;	-----
5640+ D92A              EAM18:
5641+ D92A F5           	PUSH	AF
5642+ D92B DD CB 05 86  	RES	0,(IX+05)
5643+ D92F DD CB 05 4E  	BIT	1,(IX+05)
5644+ D933 20 04        	JR	NZ,EAM19
5645+ D935 DD CB 05 96  	RES	2,(IX+05)
5646+ D939              EAM19:
5647+ D939 F1           	POP	AF
5648+ D93A DD E1        	POP	IX
5649+ D93C FB           	EI
5650+ D93D C9           	RET
5651+ D93E              ;	-----
5652+ D93E              EAM20:
5653+ D93E 32 0A F2     	LD	(0F20AH),A
5654+ D941 3E C0        	LD	A,0C0H
5655+ D943              EAM21:
5656+ D943 32 09 F2     	LD	(0F209H),A
5657+ D946 AF           	XOR	A
5658+ D947 32 0B F2     	LD	(0F20BH),A
5659+ D94A C3 06 F2     	JP	0F206H
5660+ D94D              ;	-----
5661+ D94D              EAM22:
5662+ D94D 32 0A F2     	LD	(0F20AH),A
5663+ D950 3E A0        	LD	A,0A0H
5664+ D952 18 EF        	JR	EAM21
5665+ D954              ;	-----
5666+ D954              EAM23:
5667+ D954 DD E5        	PUSH	IX
5668+ D956 CD 3E D9     	CALL	EAM20
5669+ D959 30 0C        	JR	NC,EAM24
5670+ D95B DD 6E 07     	LD	L,(IX+07)
5671+ D95E DD 66 08     	LD	H,(IX+08)
5672+ D961 DD 4E 09     	LD	C,(IX+09)
5673+ D964 DD 46 0A     	LD	B,(IX+10)
5674+ D967              EAM24:
5675+ D967 DD E1        	POP	IX
5676+ D969 C9           	RET
5677+ D96A              ;	-----
5678+ D96A              EAM25:
5679+ D96A E5           	PUSH	HL
5680+ D96B C5           	PUSH	BC
5681+ D96C D5           	PUSH	DE
5682+ D96D 57           	LD	D,A
5683+ D96E CD 3E D9     	CALL	EAM20
5684+ D971 7A           	LD	A,D
5685+ D972 30 16        	JR	NC,EAM28
5686+ D974              EAM26:
5687+ D974 DD CB 05 46  	BIT	0,(IX+05)
5688+ D978 20 FA        	JR	NZ,EAM26
5689+ D97A CD 54 D9     	CALL	EAM23
5690+ D97D 30 0B        	JR	NC,EAM28
5691+ D97F D1           	POP	DE
5692+ D980              EAM27:
5693+ D980 78           	LD	A,B
5694+ D981 B1           	OR	C
5695+ D982 37           	SCF
5696+ D983 28 06        	JR	Z,EAM29
5697+ D985 72           	LD	(HL),D
5698+ D986 23           	INC	HL
5699+ D987 0B           	DEC	BC
5700+ D988 18 F6        	JR	EAM27
5701+ D98A              ;
5702+ D98A              EAM28:
5703+ D98A D1           	POP	DE
5704+ D98B              EAM29:
5705+ D98B C1           	POP	BC
5706+ D98C E1           	POP	HL
5707+ D98D C9           	RET
5708+ D98E              ;	-----
5709+ D98E              EAM30:
5710+ D98E DD E5        	PUSH	IX
5711+ D990 CD 3E D9     	CALL	EAM20
5712+ D993 30 08        	JR	NC,EAM31
5713+ D995 DD CB 05 8E  	RES	1,(IX+05)
5714+ D999 DD CB 05 A6  	RES	4,(IX+05)
5715+ D99D              EAM31:
5716+ D99D DD E1        	POP	IX
5717+ D99F C9           	RET
5718+ D9A0              ;	-----
5719+ D9A0              EAM32:
5720+ D9A0 CD 4D D9     	CALL	EAM22
5721+ D9A3 C5           	PUSH	BC
5722+ D9A4 47           	LD	B,A
5723+ D9A5 E6 07        	AND	007H
5724+ D9A7 0F           	RRCA
5725+ D9A8 CB 7F        	BIT	7,A
5726+ D9AA 28 04        	JR	Z,EAM33
5727+ D9AC CB F7        	SET	6,A
5728+ D9AE CB BF        	RES	7,A
5729+ D9B0              EAM33:
5730+ D9B0 CB 4F        	BIT	1,A
5731+ D9B2 28 02        	JR	Z,EAM34
5732+ D9B4 CB FF        	SET	7,A
5733+ D9B6              EAM34:
5734+ D9B6 4F           	LD	C,A
5735+ D9B7 C5           	PUSH	BC
5736+ D9B8 F1           	POP	AF
5737+ D9B9 C1           	POP	BC
5738+ D9BA C9           	RET
5739+ D9BB              ;
5740+ D9BB              ;    PAGE
5741+ D9BB              ;	-----
5742+ D9BB C5           	PUSH	BC		;PN IT	Tastaturtreiber
5743+ D9BC D5           	PUSH	DE
5744+ D9BD E5           	PUSH	HL
5745+ D9BE F5           	PUSH	AF
5746+ D9BF DD 22 F3 FB  	LD	(0FBF3H),IX
5747+ D9C3 21 F5 FB     	LD	HL,0FBF5H
5748+ D9C6 CB 4E        	BIT	1,(HL)
5749+ D9C8 CC F2 D9     	CALL	Z,0D9F2H
5750+ D9CB C4 FA D9     	CALL	NZ,0D9FAH
5751+ D9CE DD CB 06 5E  	BIT	3,(IX+06)
5752+ D9D2 28 17        	JR	Z,$+25	;D9EB
5753+ D9D4 DD 4E 03     	LD	C,(IX+03)
5754+ D9D7 3E 0D        	LD	A,00DH
5755+ D9D9 ED 79        	OUT	(C),A
5756+ D9DB 11 C4 09     	LD	DE,009C4H
5757+ D9DE 06 00        	LD	B,000H
5758+ D9E0 10 FE        	DJNZ	$+00	;D9E0
5759+ D9E2 1B           	DEC	DE
5760+ D9E3 7A           	LD	A,D
5761+ D9E4 BB           	CP	E
5762+ D9E5 20 F7        	JR	NZ,$-07	;D9DE
5763+ D9E7 3E 07        	LD	A,007H
5764+ D9E9 ED 79        	OUT	(C),A
5765+ D9EB F1           	POP	AF
5766+ D9EC E1           	POP	HL
5767+ D9ED D1           	POP	DE
5768+ D9EE C1           	POP	BC
5769+ D9EF DD E1        	POP	IX
5770+ D9F1 C9           	RET
5771+ D9F2              ;	-----
5772+ D9F2 CB 8E        	RES	1,(HL)
5773+ D9F4 16 AF        	LD	D,0AFH
5774+ D9F6 1E 05        	LD	E,005H
5775+ D9F8 18 06        	JR	$+08	;DA00
5776+ D9FA CB CE        	SET	1,(HL)
5777+ D9FC 16 A7        	LD	D,0A7H
5778+ D9FE 1E 0A        	LD	E,00AH
5779+ DA00 0E 83        	LD	C,083H
5780+ DA02 00           	NOP
5781+ DA03 ED 51        	OUT	(C),D
5782+ DA05 ED 59        	OUT	(C),E
5783+ DA07 11 0F DA     	LD	DE,0DA0FH
5784+ DA0A ED 53 E6 F7  	LD	(0F7E6H),DE
5785+ DA0E C9           	RET
5786+ DA0F              ;	-----
5787+ DA0F DD E5        	PUSH	IX
5788+ DA11 08           	EX	AF,AF'
5789+ DA12 D9           	EXX
5790+ DA13 DD 2A F3 FB  	LD	IX,(0FBF3H)
5791+ DA17 3E 03        	LD	A,003H
5792+ DA19 00           	NOP
5793+ DA1A 00           	NOP
5794+ DA1B 00           	NOP
5795+ DA1C D3 83        	OUT	(083H),A
5796+ DA1E 21 F5 FB     	LD	HL,0FBF5H
5797+ DA21 DD 4E 03     	LD	C,(IX+03)
5798+ DA24 ED 78        	IN	A,(C)
5799+ DA26 CB 4E        	BIT	1,(HL)
5800+ DA28 F5           	PUSH	AF
5801+ DA29 20 55        	JR	NZ,$+87	;DA80
5802+ DA2B 0C           	INC	C
5803+ DA2C ED 78        	IN	A,(C)
5804+ DA2E 0D           	DEC	C
5805+ DA2F CB 57        	BIT	2,A
5806+ DA31 28 0C        	JR	Z,$+14	;DA3F
5807+ DA33 F1           	POP	AF
5808+ DA34 FE 60        	CP	060H
5809+ DA36 30 06        	JR	NC,$+08	;DA3E
5810+ DA38 FE 40        	CP	040H
5811+ DA3A 38 02        	JR	C,$+04	;DA3E
5812+ DA3C D6 40        	SUB	040H
5813+ DA3E F5           	PUSH	AF
5814+ DA3F F1           	POP	AF
5815+ DA40 F5           	PUSH	AF
5816+ DA41 E5           	PUSH	HL
5817+ DA42 C5           	PUSH	BC
5818+ DA43 21 AD DA     	LD	HL,0DAADH
5819+ DA46 01 08 00     	LD	BC,00008H
5820+ DA49 ED B1        	CPIR
5821+ DA4B 20 0E        	JR	NZ,$+16	;DA5B
5822+ DA4D 0C           	INC	C
5823+ DA4E 41           	LD	B,C
5824+ DA4F AF           	XOR	A
5825+ DA50 37           	SCF
5826+ DA51 17           	RLA
5827+ DA52 10 FD        	DJNZ	$-01	;DA51
5828+ DA54 21 95 F2     	LD	HL,V1.MASKE
5829+ DA57 B6           	OR	(HL)
5830+ DA58 32 95 F2     	LD	(V1.MASKE),A
5831+ DA5B C1           	POP	BC
5832+ DA5C E1           	POP	HL
5833+ DA5D F1           	POP	AF
5834+ DA5E F5           	PUSH	AF
5835+ DA5F DD CB 05 46  	BIT	0,(IX+05)
5836+ DA63 28 45        	JR	Z,$+71	;DAAA
5837+ DA65 DD 66 08     	LD	H,(IX+08)
5838+ DA68 DD 6E 07     	LD	L,(IX+07)
5839+ DA6B 77           	LD	(HL),A
5840+ DA6C F1           	POP	AF
5841+ DA6D F6 01        	OR	001H
5842+ DA6F 21 F5 FB     	LD	HL,0FBF5H
5843+ DA72 CC F2 D9     	CALL	Z,0D9F2H
5844+ DA75 C4 FA D9     	CALL	NZ,0D9FAH
5845+ DA78 D9           	EXX
5846+ DA79 08           	EX	AF,AF'
5847+ DA7A CD 94 DA     	CALL	0DA94H
5848+ DA7D C3 2A D9     	JP	0D92AH
5849+ DA80 B7           	OR	A
5850+ DA81 28 1D        	JR	Z,$+31	;DAA0
5851+ DA83 3A F6 FB     	LD	A,(0FBF6H)
5852+ DA86 3D           	DEC	A
5853+ DA87 32 F6 FB     	LD	(0FBF6H),A
5854+ DA8A 28 0B        	JR	Z,$+13	;DA97
5855+ DA8C CD FA D9     	CALL	0D9FAH
5856+ DA8F F1           	POP	AF
5857+ DA90 D9           	EXX
5858+ DA91 08           	EX	AF,AF'
5859+ DA92 DD E1        	POP	IX
5860+ DA94 FB           	EI
5861+ DA95 ED 4D        	RETI
5862+ DA97 3E 64        	LD	A,064H
5863+ DA99 32 F6 FB     	LD	(0FBF6H),A
5864+ DA9C F1           	POP	AF
5865+ DA9D F5           	PUSH	AF
5866+ DA9E 18 8B        	JR	$-115	;DA2B
5867+ DAA0 3E 00        	LD	A,000H
5868+ DAA2 32 F6 FB     	LD	(0FBF6H),A
5869+ DAA5 CD F2 D9     	CALL	0D9F2H
5870+ DAA8 18 E5        	JR	$-25	;DA8F
5871+ DAAA F1           	POP	AF
5872+ DAAB 18 C2        	JR	$-60	;DA6F
5873+ DAAD 1F           	RRA
5874+ DAAE 13           	INC	DE
5875+ DAAF 12           	LD	(DE),A
5876+ DAB0 11 10 0F     	LD	DE,00F10H
5877+ DAB3 05           	DEC	B
5878+ DAB4 03           	INC	BC
5879+ DAB5              ;
5880+ DAB5              ;    PAGE
5881+ DAB5              ;	-----	;RRET
5882+ DAB5 FD E3        	EX	(SP),IY		;PN Y1	Floppytreiber
5883+ DAB7 DD E5        	PUSH	IX
5884+ DAB9 E5           	PUSH	HL
5885+ DABA D5           	PUSH	DE
5886+ DABB C5           	PUSH	BC
5887+ DABC FD E9        	JP	(IY)
5888+ DABE              ;	-----	;RLAD
5889+ DABE FD E1        	POP	IY
5890+ DAC0 C1           	POP	BC
5891+ DAC1 D1           	POP	DE
5892+ DAC2 E1           	POP	HL
5893+ DAC3 DD E1        	POP	IX
5894+ DAC5 FD E3        	EX	(SP),IY
5895+ DAC7 C9           	RET
5896+ DAC8              ;	-----
5897+ DAC8 22 F0 F5     	LD	(0F5F0H),HL
5898+ DACB 2B           	DEC	HL
5899+ DACC 7E           	LD	A,(HL)
5900+ DACD 01 81 00     	LD	BC,00081H
5901+ DAD0 09           	ADD	HL,BC
5902+ DAD1 11 E8 F5     	LD	DE,0F5E8H
5903+ DAD4 12           	LD	(DE),A
5904+ DAD5 13           	INC	DE
5905+ DAD6 01 05 00     	LD	BC,00005H
5906+ DAD9 ED B0        	LDIR
5907+ DADB C9           	RET
5908+ DADC 2A F0 F5     	LD	HL,(0F5F0H)
5909+ DADF 11 E8 F5     	LD	DE,0F5E8H
5910+ DAE2 2B           	DEC	HL
5911+ DAE3 1A           	LD	A,(DE)
5912+ DAE4 77           	LD	(HL),A
5913+ DAE5 01 81 00     	LD	BC,00081H
5914+ DAE8 09           	ADD	HL,BC
5915+ DAE9 EB           	EX	DE,HL
5916+ DAEA 23           	INC	HL
5917+ DAEB 18 E9        	JR	$-21	;DAD6
5918+ DAED 2A F0 F5     	LD	HL,(0F5F0H)
5919+ DAF0 2B           	DEC	HL
5920+ DAF1 77           	LD	(HL),A
5921+ DAF2 01 83 00     	LD	BC,00083H
5922+ DAF5 CD 44 CA     	CALL	0CA44H
5923+ DAF8 7A           	LD	A,D
5924+ DAF9 B3           	OR	E
5925+ DAFA FD CB 00 B6  	RES	6,(IY+00)
5926+ DAFE C9           	RET
5927+ DAFF 21 C9 F5     	LD	HL,0F5C9H
5928+ DB02 36 FE        	LD	(HL),0FEH
5929+ DB04 E5           	PUSH	HL
5930+ DB05 23           	INC	HL
5931+ DB06 22 E4 F5     	LD	(0F5E4H),HL
5932+ DB09 DD 7E 0B     	LD	A,(IX+11)
5933+ DB0C 77           	LD	(HL),A
5934+ DB0D 23           	INC	HL
5935+ DB0E 36 00        	LD	(HL),000H
5936+ DB10 23           	INC	HL
5937+ DB11 DD 7E 0C     	LD	A,(IX+12)
5938+ DB14 77           	LD	(HL),A
5939+ DB15 23           	INC	HL
5940+ DB16 36 00        	LD	(HL),000H
5941+ DB18 E1           	POP	HL
5942+ DB19 01 05 00     	LD	BC,00005H
5943+ DB1C CD 44 CA     	CALL	0CA44H
5944+ DB1F 43           	LD	B,E
5945+ DB20 4A           	LD	C,D
5946+ DB21 ED 43 EE F5  	LD	(0F5EEH),BC
5947+ DB25 C9           	RET
5948+ DB26 2A F0 F5     	LD	HL,(0F5F0H)
5949+ DB29 32 DA F5     	LD	(0F5DAH),A
5950+ DB2C 2B           	DEC	HL
5951+ DB2D 77           	LD	(HL),A
5952+ DB2E 01 81 00     	LD	BC,00081H
5953+ DB31 CD 44 CA     	CALL	0CA44H
5954+ DB34 72           	LD	(HL),D
5955+ DB35 23           	INC	HL
5956+ DB36 73           	LD	(HL),E
5957+ DB37 06 03        	LD	B,003H
5958+ DB39 23           	INC	HL
5959+ DB3A 36 FF        	LD	(HL),0FFH
5960+ DB3C 10 FB        	DJNZ	$-03	;DB39
5961+ DB3E C9           	RET
5962+ DB3F ED 41        	OUT	(C),B
5963+ DB41 ED 4B D2 F5  	LD	BC,(0F5D2H)
5964+ DB45 ED 41        	OUT	(C),B
5965+ DB47 FD 36 02 04  	LD	(IY+02),004H
5966+ DB4B 21 34 DE     	LD	HL,0DE34H
5967+ DB4E FD CB 00 86  	RES	0,(IY+00)
5968+ DB52 22 E4 F7     	LD	(0F7E4H),HL
5969+ DB55 3E 33        	LD	A,033H
5970+ DB57 D3 82        	OUT	(082H),A
5971+ DB59 3E B7        	LD	A,0B7H
5972+ DB5B D3 82        	OUT	(082H),A
5973+ DB5D 3E 64        	LD	A,064H
5974+ DB5F D3 82        	OUT	(082H),A
5975+ DB61 FD CB 00 CE  	SET	1,(IY+00)
5976+ DB65 C9           	RET
5977+ DB66              ;
5978+ DB66 F5           	PUSH	AF
5979+ DB67 3E D8        	LD	A,0D8H
5980+ DB69 18 0D        	JR	$+15	;DB78
5981+ DB6B F5           	PUSH	AF
5982+ DB6C 3E DC        	LD	A,0DCH
5983+ DB6E 18 08        	JR	$+10	;DB78
5984+ DB70 F5           	PUSH	AF
5985+ DB71 3E DA        	LD	A,0DAH
5986+ DB73 18 03        	JR	$+05	;DB78
5987+ DB75 F5           	PUSH	AF
5988+ DB76 3E DE        	LD	A,0DEH
5989+ DB78 CD B5 DA     	CALL	0DAB5H
5990+ DB7B 21 FB 7E     	LD	HL,07EFBH
5991+ DB7E 22 F2 F5     	LD	(0F5F2H),HL
5992+ DB81 21 DA F5     	LD	HL,0F5DAH
5993+ DB84 36 FB        	LD	(HL),0FBH
5994+ DB86 FD 21 E0 F5  	LD	IY,0F5E0H
5995+ DB8A FD 36 00 00  	LD	(IY+00),000H
5996+ DB8E FB           	EI
5997+ DB8F 21 BA DD     	LD	HL,0DDBAH
5998+ DB92 22 E8 F7     	LD	(0F7E8H),HL
5999+ DB95 DD 22 E6 F5  	LD	(0F5E6H),IX
6000+ DB99 FD 36 03 40  	LD	(IY+03),040H
6001+ DB9D FD BE F3     	CP	(IY-13)
6002+ DBA0 28 12        	JR	Z,$+20	;DBB4
6003+ DBA2 FD CB 00 C6  	SET	0,(IY+00)
6004+ DBA6 FD 77 F3     	LD	(IY-13),A
6005+ DBA9 47           	LD	B,A
6006+ DBAA CB B0        	RES	6,B
6007+ DBAC FD 70 F1     	LD	(IY-15),B
6008+ DBAF E6 67        	AND	067H
6009+ DBB1 FD 77 F5     	LD	(IY-11),A
6010+ DBB4 DD CB 06 56  	BIT	2,(IX+06)
6011+ DBB8 28 19        	JR	Z,$+27	;DBD3
6012+ DBBA ED 4B D2 F5  	LD	BC,(0F5D2H)
6013+ DBBE ED 41        	OUT	(C),B
6014+ DBC0 ED 4B D6 F5  	LD	BC,(0F5D6H)
6015+ DBC4 FD 36 01 50  	LD	(IY+01),050H
6016+ DBC8 C3 92 DC     	JP	0DC92H
6017+ DBCB              ;
6018+ DBCB CD BE DA     	CALL	0DABEH
6019+ DBCE F1           	POP	AF
6020+ DBCF DD E1        	POP	IX
6021+ DBD1 FB           	EI
6022+ DBD2 C9           	RET
6023+ DBD3              ;
6024+ DBD3 DD 6E 07     	LD	L,(IX+07)
6025+ DBD6 DD 66 08     	LD	H,(IX+08)
6026+ DBD9 CD C8 DA     	CALL	0DAC8H
6027+ DBDC DD CB 06 46  	BIT	0,(IX+06)
6028+ DBE0 28 06        	JR	Z,$+08	;DBE8
6029+ DBE2 3A DA F5     	LD	A,(0F5DAH)
6030+ DBE5 CD 26 DB     	CALL	0DB26H
6031+ DBE8 FD CB 00 66  	BIT	4,(IY+00)
6032+ DBEC 20 1F        	JR	NZ,$+33	;DC0D
6033+ DBEE CD FF DA     	CALL	0DAFFH
6034+ DBF1 21 CA F5     	LD	HL,0F5CAH
6035+ DBF4 22 E4 F5     	LD	(0F5E4H),HL
6036+ DBF7 21 FE 02     	LD	HL,002FEH
6037+ DBFA 22 DE F5     	LD	(0F5DEH),HL
6038+ DBFD ED 4B D6 F5  	LD	BC,(0F5D6H)
6039+ DC01 ED           	DB	0EDH	;!!! TEST (C)
6040+ DC02 70           	DB	070H
6041+ DC03 FC 3F DB     	CALL	M,0DB3FH
6042+ DC06 FD CB 00 46  	BIT	0,(IY+00)
6043+ DC0A C4 3F DB     	CALL	NZ,0DB3FH
6044+ DC0D FD CB 00 4E  	BIT	1,(IY+00)
6045+ DC11 C2 CB DB     	JP	NZ,0DBCBH
6046+ DC14 06 00        	LD	B,000H
6047+ DC16 21 58 DE     	LD	HL,0DE58H
6048+ DC19 22 E2 F7     	LD	(0F7E2H),HL
6049+ DC1C F3           	DI
6050+ DC1D 3E B7        	LD	A,0B7H
6051+ DC1F D3 81        	OUT	(081H),A
6052+ DC21 78           	LD	A,B
6053+ DC22 D3 81        	OUT	(081H),A
6054+ DC24 3E 83        	LD	A,083H
6055+ DC26 ED 4B D0 F5  	LD	BC,(0F5D0H)
6056+ DC2A 0C           	INC	C
6057+ DC2B 0C           	INC	C
6058+ DC2C ED 79        	OUT	(C),A
6059+ DC2E 21 C8 DE     	LD	HL,0DEC8H
6060+ DC31 22 E8 F7     	LD	(0F7E8H),HL
6061+ DC34 FB           	EI
6062+ DC35 21 BA DD     	LD	HL,0DDBAH
6063+ DC38 F3           	DI
6064+ DC39 22 E8 F7     	LD	(0F7E8H),HL
6065+ DC3C ED 4B D0 F5  	LD	BC,(0F5D0H)
6066+ DC40 FD CB 00 BE  	RES	7,(IY+00)
6067+ DC44 3E 83        	LD	A,083H
6068+ DC46 ED 41        	OUT	(C),B
6069+ DC48 0C           	INC	C
6070+ DC49 0C           	INC	C
6071+ DC4A ED 79        	OUT	(C),A
6072+ DC4C FB           	EI
6073+ DC4D 76           	HALT
6074+ DC4E              ;
6075+ DC4E AF           	XOR	A
6076+ DC4F FD BE 03     	CP	(IY+03)
6077+ DC52 F2 B1 DD     	JP	P,0DDB1H
6078+ DC55 FD CB 00 7E  	BIT	7,(IY+00)
6079+ DC59 28 52        	JR	Z,$+84	;DCAD
6080+ DC5B FD CB 00 BE  	RES	7,(IY+00)
6081+ DC5F FD CB 00 66  	BIT	4,(IY+00)
6082+ DC63 C2 11 DD     	JP	NZ,0DD11H
6083+ DC66 FD CB 00 6E  	BIT	5,(IY+00)
6084+ DC6A FD CB 00 AE  	RES	5,(IY+00)
6085+ DC6E 20 A4        	JR	NZ,$-90	;DC14
6086+ DC70 ED 4B D6 F5  	LD	BC,(0F5D6H)
6087+ DC74 2A CA F5     	LD	HL,(0F5CAH)
6088+ DC77 2C           	INC	L
6089+ DC78 3E 01        	LD	A,001H
6090+ DC7A 28 2D        	JR	Z,$+47	;DCA9
6091+ DC7C 2D           	DEC	L
6092+ DC7D 7D           	LD	A,L
6093+ DC7E FE 4D        	CP	04DH
6094+ DC80 30 3F        	JR	NC,$+65	;DCC1
6095+ DC82 DD 96 0B     	SUB	(IX+11)
6096+ DC85 28 41        	JR	Z,$+67	;DCC8
6097+ DC87 CB 7F        	BIT	7,A
6098+ DC89 28 04        	JR	Z,$+06	;DC8F
6099+ DC8B ED 44        	NEG
6100+ DC8D CB A8        	RES	5,B
6101+ DC8F 32 E1 F5     	LD	(0F5E1H),A
6102+ DC92 ED 41        	OUT	(C),B
6103+ DC94 CB B0        	RES	6,B
6104+ DC96 ED 41        	OUT	(C),B
6105+ DC98 CB F0        	SET	6,B
6106+ DC9A ED 41        	OUT	(C),B
6107+ DC9C FD 36 02 01  	LD	(IY+02),001H
6108+ DCA0 21 71 DE     	LD	HL,0DE71H
6109+ DCA3 CD 52 DB     	CALL	0DB52H
6110+ DCA6 C3 CB DB     	JP	0DBCBH
6111+ DCA9              ;
6112+ DCA9 ED 40        	IN	B,(C)
6113+ DCAB 18 E2        	JR	$-28	;DC8F
6114+ DCAD CD E4 DE     	CALL	0DEE4H
6115+ DCB0 FD CB 00 5E  	BIT	3,(IY+00)
6116+ DCB4 C2 CB DB     	JP	NZ,0DBCBH
6117+ DCB7 FD CB 00 66  	BIT	4,(IY+00)
6118+ DCBB 28 07        	JR	Z,$+09	;DCC4
6119+ DCBD FD CB 00 A6  	RES	4,(IY+00)
6120+ DCC1 FD 35 03     	DEC	(IY+03)
6121+ DCC4 FB           	EI
6122+ DCC5 C3 F1 DB     	JP	0DBF1H
6123+ DCC8              ;
6124+ DCC8 FD 35 02     	DEC	(IY+02)
6125+ DCCB 20 07        	JR	NZ,$+09	;DCD4
6126+ DCCD FD 35 03     	DEC	(IY+03)
6127+ DCD0 FD 36 02 1A  	LD	(IY+02),01AH
6128+ DCD4 2A EE F5     	LD	HL,(0F5EEH)
6129+ DCD7 ED 5B CE F5  	LD	DE,(0F5CEH)
6130+ DCDB ED 52        	SBC	HL,DE
6131+ DCDD C2 14 DC     	JP	NZ,0DC14H
6132+ DCE0 FD CB 00 E6  	SET	4,(IY+00)
6133+ DCE4 2A F2 F5     	LD	HL,(0F5F2H)
6134+ DCE7 22 DE F5     	LD	(0F5DEH),HL
6135+ DCEA 2A F0 F5     	LD	HL,(0F5F0H)
6136+ DCED 22 E4 F5     	LD	(0F5E4H),HL
6137+ DCF0 DD CB 06 46  	BIT	0,(IX+06)
6138+ DCF4 06 14        	LD	B,014H
6139+ DCF6 21 C1 DE     	LD	HL,0DEC1H
6140+ DCF9 CA 19 DC     	JP	Z,0DC19H
6141+ DCFC FD CB 00 76  	BIT	6,(IY+00)
6142+ DD00 C2 16 DC     	JP	NZ,0DC16H
6143+ DD03 FD CB F1 F6  	SET	6,(IY-15)
6144+ DD07 FD CB F1 BE  	RES	7,(IY-15)
6145+ DD0B CD F7 DD     	CALL	0DDF7H
6146+ DD0E C3 4E DC     	JP	0DC4EH
6147+ DD11              ;
6148+ DD11 FD CB F1 B6  	RES	6,(IY-15)
6149+ DD15 FD CB F1 FE  	SET	7,(IY-15)
6150+ DD19 FD CB 00 A6  	RES	4,(IY+00)
6151+ DD1D DD CB 06 46  	BIT	0,(IX+06)
6152+ DD21 28 16        	JR	Z,$+24	;DD39
6153+ DD23 FD CB 00 76  	BIT	6,(IY+00)
6154+ DD27 20 10        	JR	NZ,$+18	;DD39
6155+ DD29 FD CB 00 F6  	SET	6,(IY+00)
6156+ DD2D CD DC DA     	CALL	0DADCH
6157+ DD30 21 1D F9     	LD	HL,0F91DH
6158+ DD33 CD C8 DA     	CALL	0DAC8H
6159+ DD36 C3 E8 DB     	JP	0DBE8H
6160+ DD39              ;
6161+ DD39 3A DA F5     	LD	A,(0F5DAH)
6162+ DD3C CD ED DA     	CALL	0DAEDH
6163+ DD3F CD DC DA     	CALL	0DADCH
6164+ DD42 C2 90 DD     	JP	NZ,0DD90H
6165+ DD45 DD 4E 06     	LD	C,(IX+06)
6166+ DD48 CB 59        	BIT	3,C
6167+ DD4A 20 2E        	JR	NZ,$+48	;DD7A
6168+ DD4C DD 46 0C     	LD	B,(IX+12)
6169+ DD4F 04           	INC	B
6170+ DD50 78           	LD	A,B
6171+ DD51 FE 1B        	CP	01BH
6172+ DD53 20 05        	JR	NZ,$+07	;DD5A
6173+ DD55 DD 34 0B     	INC	(IX+11)
6174+ DD58 06 01        	LD	B,001H
6175+ DD5A DD 70 0C     	LD	(IX+12),B
6176+ DD5D 3E 49        	LD	A,049H
6177+ DD5F DD BE 0B     	CP	(IX+11)
6178+ DD62 20 0B        	JR	NZ,$+13	;DD6F
6179+ DD64 3E 1A        	LD	A,01AH
6180+ DD66 DD BE 0C     	CP	(IX+12)
6181+ DD69 20 0F        	JR	NZ,$+17	;DD7A
6182+ DD6B 3E 30        	LD	A,030H
6183+ DD6D 18 29        	JR	$+43	;DD98
6184+ DD6F 3E 4A        	LD	A,04AH
6185+ DD71 DD BE 0B     	CP	(IX+11)
6186+ DD74 20 04        	JR	NZ,$+06	;DD7A
6187+ DD76 3E 42        	LD	A,042H
6188+ DD78 18 1E        	JR	$+32	;DD98
6189+ DD7A AF           	XOR	A
6190+ DD7B DD CB 06 46  	BIT	0,(IX+06)
6191+ DD7F 28 17        	JR	Z,$+25	;DD98
6192+ DD81 AF           	XOR	A
6193+ DD82 DD 6E 07     	LD	L,(IX+07)
6194+ DD85 DD 66 08     	LD	H,(IX+08)
6195+ DD88 06 80        	LD	B,080H
6196+ DD8A 77           	LD	(HL),A
6197+ DD8B 23           	INC	HL
6198+ DD8C 10 FC        	DJNZ	$-02	;DD8A
6199+ DD8E 18 EF        	JR	$-15	;DD7F
6200+ DD90 3E 22        	LD	A,022H
6201+ DD92 FD 35 03     	DEC	(IY+03)
6202+ DD95 C2 D3 DB     	JP	NZ,0DBD3H
6203+ DD98              ;
6204+ DD98 DD 77 05     	LD	(IX+05),A
6205+ DD9B 21 CB DE     	LD	HL,0DECBH
6206+ DD9E FD 36 02 64  	LD	(IY+02),064H
6207+ DDA2 CD 52 DB     	CALL	0DB52H
6208+ DDA5 CD BE DA     	CALL	0DABEH
6209+ DDA8 F1           	POP	AF
6210+ DDA9 DD 2A E6 F5  	LD	IX,(0F5E6H)
6211+ DDAD FB           	EI
6212+ DDAE C3 2A D9     	JP	0D92AH
6213+ DDB1              ;
6214+ DDB1 CD E4 DE     	CALL	0DEE4H
6215+ DDB4 D3 82        	OUT	(082H),A
6216+ DDB6 3E 72        	LD	A,072H
6217+ DDB8 18 DE        	JR	$-32	;DD98
6218+ DDBA D9           	EXX
6219+ DDBB 08           	EX	AF,AF'
6220+ DDBC ED 4B DC F5  	LD	BC,(0F5DCH)
6221+ DDC0 ED 78        	IN	A,(C)
6222+ DDC2 2A E4 F5     	LD	HL,(0F5E4H)
6223+ DDC5 ED 5B DE F5  	LD	DE,(0F5DEH)
6224+ DDC9 ED A2        	INI
6225+ DDCB 20 F8        	JR	NZ,$-06	;DDC5
6226+ DDCD BB           	CP	E
6227+ DDCE C2 D8 DD     	JP	NZ,0DDD8H
6228+ DDD1 42           	LD	B,D
6229+ DDD2 00           	NOP
6230+ DDD3 00           	NOP
6231+ DDD4 ED A2        	INI
6232+ DDD6 20 FA        	JR	NZ,$-04	;DDD2
6233+ DDD8 ED 4B D2 F5  	LD	BC,(0F5D2H)
6234+ DDDC ED 41        	OUT	(C),B
6235+ DDDE CD EA DE     	CALL	0DEEAH
6236+ DDE1 21 E0 F5     	LD	HL,0F5E0H
6237+ DDE4 CB FE        	SET	7,(HL)
6238+ DDE6 28 0B        	JR	Z,$+13	;DDF3
6239+ DDE8 1E F8        	LD	E,0F8H
6240+ DDEA BB           	CP	E
6241+ DDEB 20 04        	JR	NZ,$+06	;DDF1
6242+ DDED CB EE        	SET	5,(HL)
6243+ DDEF 18 02        	JR	$+04	;DDF3
6244+ DDF1 CB BE        	RES	7,(HL)
6245+ DDF3 D9           	EXX
6246+ DDF4 08           	EX	AF,AF'
6247+ DDF5 ED 4D        	RETI
6248+ DDF7              ;
6249+ DDF7 D9           	EXX
6250+ DDF8 08           	EX	AF,AF'
6251+ DDF9 ED 4B D8 F5  	LD	BC,(0F5D8H)
6252+ DDFD AF           	XOR	A
6253+ DDFE ED 79        	OUT	(C),A
6254+ DE00 ED 4B D0 F5  	LD	BC,(0F5D0H)
6255+ DE04 ED 41        	OUT	(C),B
6256+ DE06 ED 4B D8 F5  	LD	BC,(0F5D8H)
6257+ DE0A 2A E4 F5     	LD	HL,(0F5E4H)
6258+ DE0D ED 79        	OUT	(C),A
6259+ DE0F ED 5B DA F5  	LD	DE,(0F5DAH)
6260+ DE13 10 F5        	DJNZ	$-09	;DE0A
6261+ DE15 ED 59        	OUT	(C),E
6262+ DE17 59           	LD	E,C
6263+ DE18 ED 4B D4 F5  	LD	BC,(0F5D4H)
6264+ DE1C ED 41        	OUT	(C),B
6265+ DE1E 4B           	LD	C,E
6266+ DE1F ED A3        	OUTI
6267+ DE21 ED 4B D0 F5  	LD	BC,(0F5D0H)
6268+ DE25 ED 41        	OUT	(C),B
6269+ DE27 42           	LD	B,D
6270+ DE28 4B           	LD	C,E
6271+ DE29 ED A3        	OUTI
6272+ DE2B 20 FB        	JR	NZ,$-03	;DE28
6273+ DE2D 06 03        	LD	B,003H
6274+ DE2F 10 FE        	DJNZ	$+00	;DE2F
6275+ DE31 C3 D8 DD     	JP	0DDD8H
6276+ DE34 DD E5        	PUSH	IX
6277+ DE36 F5           	PUSH	AF
6278+ DE37 CD B5 DA     	CALL	0DAB5H
6279+ DE3A CD 4E DE     	CALL	0DE4EH
6280+ DE3D FD 35 02     	DEC	(IY+02)
6281+ DE40 C2 CB DB     	JP	NZ,0DBCBH
6282+ DE43 3E 33        	LD	A,033H
6283+ DE45 D3 82        	OUT	(082H),A
6284+ DE47 FD CB 00 8E  	RES	1,(IY+00)
6285+ DE4B C3 14 DC     	JP	0DC14H
6286+ DE4E DD 2A E6 F5  	LD	IX,(0F5E6H)
6287+ DE52 FD 21 E0 F5  	LD	IY,0F5E0H
6288+ DE56 ED 4D        	RETI
6289+ DE58              ;
6290+ DE58 DD E5        	PUSH	IX
6291+ DE5A F5           	PUSH	AF
6292+ DE5B CD B5 DA     	CALL	0DAB5H
6293+ DE5E CD E4 DE     	CALL	0DEE4H
6294+ DE61 CD 4E DE     	CALL	0DE4EH
6295+ DE64 3E 02        	LD	A,002H
6296+ DE66 FD CB 00 DE  	SET	3,(IY+00)
6297+ DE6A FD 35 03     	DEC	(IY+03)
6298+ DE6D 0D           	DEC	C
6299+ DE6E C3 A9 DC     	JP	0DCA9H
6300+ DE71              ;
6301+ DE71 DD E5        	PUSH	IX
6302+ DE73 F5           	PUSH	AF
6303+ DE74 3E 33        	LD	A,033H
6304+ DE76 D3 82        	OUT	(082H),A
6305+ DE78 CD B5 DA     	CALL	0DAB5H
6306+ DE7B CD 4E DE     	CALL	0DE4EH
6307+ DE7E FD 4E F6     	LD	C,(IY-10)
6308+ DE81 ED 40        	IN	B,(C)
6309+ DE83 DD CB 06 56  	BIT	2,(IX+06)
6310+ DE87 20 23        	JR	NZ,$+37	;DEAC
6311+ DE89 FD 35 01     	DEC	(IY+01)
6312+ DE8C FD CB 00 8E  	RES	1,(IY+00)
6313+ DE90 C2 92 DC     	JP	NZ,0DC92H
6314+ DE93 FD CB 00 5E  	BIT	3,(IY+00)
6315+ DE97 CA FD DB     	JP	Z,0DBFDH
6316+ DE9A FD CB 00 9E  	RES	3,(IY+00)
6317+ DE9E FD 34 01     	INC	(IY+01)
6318+ DEA1 CB 68        	BIT	5,B
6319+ DEA3 CB E8        	SET	5,B
6320+ DEA5 CA 92 DC     	JP	Z,0DC92H
6321+ DEA8 CB A8        	RES	5,B
6322+ DEAA 18 E4        	JR	$-26	;DE90
6323+ DEAC FD 35 01     	DEC	(IY+01)
6324+ DEAF CA F5 DE     	JP	Z,0DEF5H
6325+ DEB2 CB 50        	BIT	2,B
6326+ DEB4 C2 92 DC     	JP	NZ,0DC92H
6327+ DEB7 DD CB 06 56  	BIT	2,(IX+06)
6328+ DEBB C2 F5 DE     	JP	NZ,0DEF5H
6329+ DEBE C3 7A DD     	JP	0DD7AH
6330+ DEC1 F5           	PUSH	AF
6331+ DEC2 C5           	PUSH	BC
6332+ DEC3 CD E4 DE     	CALL	0DEE4H
6333+ DEC6 C1           	POP	BC
6334+ DEC7 F1           	POP	AF
6335+ DEC8 FB           	EI
6336+ DEC9 ED 4D        	RETI
6337+ DECB              ;
6338+ DECB D9           	EXX
6339+ DECC 08           	EX	AF,AF'
6340+ DECD 21 E2 F5     	LD	HL,0F5E2H
6341+ DED0 35           	DEC	(HL)
6342+ DED1 C2 E0 DE     	JP	NZ,0DEE0H
6343+ DED4 ED 4B D6 F5  	LD	BC,(0F5D6H)
6344+ DED8 CB F8        	SET	7,B
6345+ DEDA ED 41        	OUT	(C),B
6346+ DEDC 3E 33        	LD	A,033H
6347+ DEDE D3 82        	OUT	(082H),A
6348+ DEE0 D9           	EXX
6349+ DEE1 08           	EX	AF,AF'
6350+ DEE2 18 E4        	JR	$-26	;DEC8
6351+ DEE4 ED 4B D2 F5  	LD	BC,(0F5D2H)
6352+ DEE8 ED 41        	OUT	(C),B
6353+ DEEA 03           	INC	BC
6354+ DEEB 03           	INC	BC
6355+ DEEC F5           	PUSH	AF
6356+ DEED 3E 03        	LD	A,003H
6357+ DEEF ED 79        	OUT	(C),A
6358+ DEF1 D3 81        	OUT	(081H),A
6359+ DEF3 F1           	POP	AF
6360+ DEF4 C9           	RET
6361+ DEF5              ;
6362+ DEF5 FB           	EI
6363+ DEF6 06 00        	LD	B,000H
6364+ DEF8 3E 08        	LD	A,008H
6365+ DEFA 32 C9 F5     	LD	(0F5C9H),A
6366+ DEFD 2E FF        	LD	L,0FFH
6367+ DEFF 11 7B DF     	LD	DE,0DF7BH
6368+ DF02 CD 6E DF     	CALL	0DF6EH
6369+ DF05 DD 4E 04     	LD	C,(IX+04)
6370+ DF08 0C           	INC	C
6371+ DF09 ED 78        	IN	A,(C)
6372+ DF0B CB 5F        	BIT	3,A
6373+ DF0D 28 5B        	JR	Z,$+93	;DF6A
6374+ DF0F CB C8        	SET	1,B
6375+ DF11 CB 40        	BIT	0,B
6376+ DF13 28 F4        	JR	Z,$-10	;DF09
6377+ DF15 CB 48        	BIT	1,B
6378+ DF17 CA 9E DF     	JP	Z,0DF9EH
6379+ DF1A CB 50        	BIT	2,B
6380+ DF1C CA 9E DF     	JP	Z,0DF9EH
6381+ DF1F ED 78        	IN	A,(C)
6382+ DF21 CB 5F        	BIT	3,A
6383+ DF23 20 FA        	JR	NZ,$-04	;DF1F
6384+ DF25 3E 01        	LD	A,001H
6385+ DF27 32 C9 F5     	LD	(0F5C9H),A
6386+ DF2A 2E 1C        	LD	L,01CH
6387+ DF2C 11 8C DF     	LD	DE,0DF8CH
6388+ DF2F CD 6E DF     	CALL	0DF6EH
6389+ DF32 76           	HALT
6390+ DF33              ;
6391+ DF33 CB 80        	RES	0,B
6392+ DF35 3E 08        	LD	A,008H
6393+ DF37 32 C9 F5     	LD	(0F5C9H),A
6394+ DF3A 2E BE        	LD	L,0BEH
6395+ DF3C 11 7B DF     	LD	DE,0DF7BH
6396+ DF3F CD 6E DF     	CALL	0DF6EH
6397+ DF42 ED 78        	IN	A,(C)
6398+ DF44 CB 5F        	BIT	3,A
6399+ DF46 CA 9E DF     	JP	Z,0DF9EH
6400+ DF49 CB 40        	BIT	0,B
6401+ DF4B 28 F5        	JR	Z,$-09	;DF42
6402+ DF4D CB 80        	RES	0,B
6403+ DF4F 3E 01        	LD	A,001H
6404+ DF51 32 C9 F5     	LD	(0F5C9H),A
6405+ DF54 2E 61        	LD	L,061H
6406+ DF56 11 7B DF     	LD	DE,0DF7BH
6407+ DF59 CD 6E DF     	CALL	0DF6EH
6408+ DF5C ED 78        	IN	A,(C)
6409+ DF5E CB 5F        	BIT	3,A
6410+ DF60 CA 8F DF     	JP	Z,0DF8FH
6411+ DF63 CB 40        	BIT	0,B
6412+ DF65 28 F5        	JR	Z,$-09	;DF5C
6413+ DF67 C3 9E DF     	JP	0DF9EH
6414+ DF6A CB D0        	SET	2,B
6415+ DF6C 18 A3        	JR	$-91	;DF11
6416+ DF6E 26 A5        	LD	H,0A5H
6417+ DF70 ED 53 E2 F7  	LD	(0F7E2H),DE
6418+ DF74 7C           	LD	A,H
6419+ DF75 D3 81        	OUT	(081H),A
6420+ DF77 7D           	LD	A,L
6421+ DF78 D3 81        	OUT	(081H),A
6422+ DF7A C9           	RET
6423+ DF7B F5           	PUSH	AF
6424+ DF7C 21 C9 F5     	LD	HL,0F5C9H
6425+ DF7F 35           	DEC	(HL)
6426+ DF80 20 06        	JR	NZ,$+08	;DF88
6427+ DF82 CB C0        	SET	0,B
6428+ DF84 3E 03        	LD	A,003H
6429+ DF86 D3 81        	OUT	(081H),A
6430+ DF88 FB           	EI
6431+ DF89 F1           	POP	AF
6432+ DF8A ED 4D        	RETI
6433+ DF8C              ;
6434+ DF8C F5           	PUSH	AF
6435+ DF8D 18 F5        	JR	$-09	;DF84
6436+ DF8F 3E 03        	LD	A,003H
6437+ DF91 D3 81        	OUT	(081H),A
6438+ DF93 AF           	XOR	A
6439+ DF94 DD CB 06 4E  	BIT	1,(IX+06)
6440+ DF98 C2 00 07     	JP	NZ,00700H
6441+ DF9B C3 7A DD     	JP	0DD7AH
6442+ DF9E 3E 03        	LD	A,003H
6443+ DFA0 D3 81        	OUT	(081H),A
6444+ DFA2 3E 62        	LD	A,062H
6445+ DFA4 C3 98 DD     	JP	0DD98H
6446+ DFA7              ;
6447+ DFA7              ENDE3 EQU $
6448+ DFA7
# file closed: incMEOS.MAC
  40  DFA7
  41  DFA7              	IF kass and 1
  42  DFA7 ~            		INCLUDE KR01.MAC
  43  DFA7 ~            		; ORG	00070H
  44  DFA7 ~            		INCLUDE KT01.MAC
  45  DFA7 ~            		ORG	0F5F4H
  46  DFA7 ~            		INCLUDE KS01.MAC
  47  DFA7              	ENDIF
  48  DFA7
  49  DFA7              	INCLUDE	incVERB.MAC
# file opened: incVERB.MAC
   1+ DFA7              ;	TITLE	'SYS3 - MEOS1521 ---> Verbindungen'
   2+ DFA7              ;	PAGE
   3+ DFA7              ;====================================================
   4+ DFA7              	; ORG	0E796H
   5+ DFA7              	IF kass and 2
   6+ DFA7 C9           		RET
   7+ DFA8 76 76 76...  		DEFS	07EFH-1,076H	;!!!!	FFH
   8+ E796              	ENDIF
   9+ E796              ;====================================================
  10+ E796              E796:
  11+ E796 C3 E7 CB     	JP	0CBE7H		;PN ZE	Verbindungsadressen
  12+ E799              E799:
  13+ E799 C3 6D CC     	JP	0CC6DH
  14+ E79C              E79C:
  15+ E79C C3 A1 CE     	JP	0CEA1H
  16+ E79F              E79F:
  17+ E79F C3 B1 CE     	JP	0CEB1H
  18+ E7A2              E7A2:
  19+ E7A2 C3 21 CD     	JP	0CD21H
  20+ E7A5              E7A5:
  21+ E7A5 C3 A7 DF     	JP	0DFA7H
  22+ E7A8              E7A8
  23+ E7A8 C3 33 E5     	JP	0E533H
  24+ E7AB              E7AB:
  25+ E7AB C3 EB E5     	JP	0E5EBH
  26+ E7AE              ;
  27+ E7AE              E7AE:
  28+ E7AE 04           	INC	B
  29+ E7AF F6 1E        	OR	01EH
  30+ E7B1 01 E5 21     	LD	BC,021E5H
  31+ E7B4 AC           	XOR	H
  32+ E7B5 F9           	LD	SP,HL
  33+ E7B6 18 06        	JR	E7BE
  34+ E7B8              ;
  35+ E7B8              E7B8:
  36+ E7B8 1E 02        	LD	E,002H
  37+ E7BA E5           	PUSH	HL
  38+ E7BB 21 4C FA     	LD	HL,0FA4CH
  39+ E7BE              E7BE:
  40+ E7BE 22 AA F9     	LD	(0F9AAH),HL
  41+ E7C1 E1           	POP	HL
  42+ E7C2 FD E5        	PUSH	IY
  43+ E7C4 DD E5        	PUSH	IX
  44+ E7C6 DD 21 9D F9  	LD	IX,0F99DH
  45+ E7CA DD 73 03     	LD	(IX+03),E
  46+ E7CD E5           	PUSH	HL
  47+ E7CE C5           	PUSH	BC
  48+ E7CF 21 3F E8     	LD	HL,0E83FH
  49+ E7D2 46           	LD	B,(HL)
  50+ E7D3              E7D3:
  51+ E7D3 23           	INC	HL
  52+ E7D4 BE           	CP	(HL)
  53+ E7D5 23           	INC	HL
  54+ E7D6 28 07        	JR	Z,E7DF
  55+ E7D8 23           	INC	HL
  56+ E7D9 10 F8        	DJNZ	E7D3
  57+ E7DB 3E 01        	LD	A,001H
  58+ E7DD 18 11        	JR	E7F0
  59+ E7DF              ;
  60+ E7DF              E7DF:
  61+ E7DF 4E           	LD	C,(HL)
  62+ E7E0 23           	INC	HL
  63+ E7E1 46           	LD	B,(HL)
  64+ E7E2 ED 43 EC FA  	LD	(0FAECH),BC
  65+ E7E6 C1           	POP	BC
  66+ E7E7 E1           	POP	HL
  67+ E7E8 E5           	PUSH	HL
  68+ E7E9 C5           	PUSH	BC
  69+ E7EA E5           	PUSH	HL
  70+ E7EB 2A EC FA     	LD	HL,(0FAECH)
  71+ E7EE E3           	EX	(SP),HL
  72+ E7EF C9           	RET
  73+ E7F0              ;
  74+ E7F0              E7F0:
  75+ E7F0 4F           	LD	C,A
  76+ E7F1 06 00        	LD	B,000H
  77+ E7F3 CB 21        	SLA	C
  78+ E7F5 CB 10        	RL	B
  79+ E7F7 21 FC E7     	LD	HL,0E7FCH
  80+ E7FA 09           	ADD	HL,BC
  81+ E7FB E9           	JP	(HL)
  82+ E7FC              ;
  83+ E7FC              E7FC:
  84+ E7FC 18 13        	JR	E811
  85+ E7FE 18 11        	JR	E811
  86+ E800              	; LD	(BC),A	; OLD !!!
  87+ E800              	; RET	M	; OLD !!!
  88+ E800 18 0A        	JR	E80C	;$+12	; NEU !!!
  89+ E802 18 0D        	JR	E811
  90+ E804 18 14        	JR	E81A
  91+ E806 18 15        	JR	E81D
  92+ E808 18 29        	JR	E833
  93+ E80A 18 30        	JR	E83C
  94+ E80C              ;
  95+ E80C              E80C:
  96+ E80C F5           	PUSH	AF
  97+ E80D CD F8 E9     	CALL	E9F8
  98+ E810 F1           	POP	AF
  99+ E811              E811:
 100+ E811 C1           	POP	BC
 101+ E812 E1           	POP	HL
 102+ E813 DD E1        	POP	IX
 103+ E815 FD E1        	POP	IY
 104+ E817 C3 96 E7     	JP	E796
 105+ E81A              ;
 106+ E81A              E81A:
 107+ E81A 3C           	INC	A
 108+ E81B 18 F4        	JR	E811
 109+ E81D              ;
 110+ E81D              E81D:
 111+ E81D 3E 12        	LD	A,012H
 112+ E81F CD 99 E7     	CALL	E799
 113+ E822 ED 4B EE FA  	LD	BC,(0FAEEH)
 114+ E826 ED 5B F0 FA  	LD	DE,(0FAF0H)
 115+ E82A 2A F2 FA     	LD	HL,(0FAF2H)
 116+ E82D C0           	RET	NZ
 117+ E82E C1           	POP	BC
 118+ E82F 3E 01        	LD	A,001H
 119+ E831 18 DE        	JR	E811
 120+ E833              ;
 121+ E833              E833:
 122+ E833 3E 44        	LD	A,044H
 123+ E835 CD 99 E7     	CALL	E799
 124+ E838 3E 01        	LD	A,001H
 125+ E83A 18 D5        	JR	E811
 126+ E83C              ;
 127+ E83C              E83C:
 128+ E83C 7A           	LD	A,D
 129+ E83D 18 D2        	JR	E811
 130+ E83F
 131+ E83F 0B           	DEC	BC
 132+ E840 00           	NOP
 133+ E841 94           	SUB	H
 134+ E842 EE 01        	XOR	001H
 135+ E844 BC           	CP	H
 136+ E845 EE 02        	XOR	002H
 137+ E847 44           	LD	B,H
 138+ E848 EB           	EX	DE,HL
 139+ E849 03           	INC	BC
 140+ E84A DD EB        	DW	0EBDDH	;	EX	DE,IX
 141+ E84C              ;
 142+ E84C              ;    PAGE
 143+ E84C              ;	-----
 144+ E84C 04           	INC	B		;PN ZX	Kassettenhandler Tabellen
 145+ E84D 9B           	SBC	A,E
 146+ E84E EC 05 A6     	CALL	PE,0A605H
 147+ E851 EC 06 EA     	CALL	PE,0EA06H
 148+ E854 EE 0C        	XOR	00CH
 149+ E856 AC           	XOR	H
 150+ E857 ED           	DB	0EDH
 151+ E858 0D           	DEC	C
 152+ E859 FA ED 0E     	JP	M,00EEDH
 153+ E85C 4C           	LD	C,H
 154+ E85D EE FF        	XOR	0FFH
 155+ E85F 14           	INC	D
 156+ E860 EF           	RST	28H
 157+ E861              ;
 158+ E861              E861:
 159+ E861 06 06        	LD	B,006H
 160+ E863 CD 80 E9     	CALL	0E980H
 161+ E866 3E 02        	LD	A,002H
 162+ E868 CD 92 E9     	CALL	E992
 163+ E86B C8           	RET	Z
 164+ E86C 10 F8        	DJNZ	$-06	;E866
 165+ E86E C9           	RET
 166+ E86F              ;
 167+ E86F              E86F:
 168+ E86F C5           	PUSH	BC
 169+ E870 0E 08        	LD	C,008H
 170+ E872 C3 8D E8     	JP	E88D
 171+ E875              ;
 172+ E875              E875:
 173+ E875 F3           	DI
 174+ E876              	; OUT	(0FCH),A	; OLD !!!
 175+ E876 00           	NOP
 176+ E877 00           	NOP
 177+ E878 1A           	LD	A,(DE)
 178+ E879 FB           	EI
 179+ E87A C9           	RET
 180+ E87B              ;
 181+ E87B              E87B:
 182+ E87B F3           	DI
 183+ E87C              	; OUT	(0FCH),A	; OLD !!!
 184+ E87C 00           	NOP
 185+ E87D 00           	NOP
 186+ E87E 70           	LD	(HL),B
 187+ E87F FB           	EI
 188+ E880 C9           	RET
 189+ E881              ;
 190+ E881              E881:
 191+ E881 F3           	DI
 192+ E882              	; OUT	(0FCH),A	; OLD !!!
 193+ E882 00           	NOP
 194+ E883 00           	NOP
 195+ E884 7E           	LD	A,(HL)
 196+ E885 FB           	EI
 197+ E886 C9           	RET
 198+ E887              ;
 199+ E887              E887:
 200+ E887 F3           	DI
 201+ E888              	; OUT	(0FCH),A	; OLD !!!
 202+ E888 00           	NOP
 203+ E889 00           	NOP
 204+ E88A 0A           	LD	A,(BC)
 205+ E88B FB           	EI
 206+ E88C C9           	RET
 207+ E88D              ;
 208+ E88D              E88D:
 209+ E88D CD 61 E8     	CALL	E861
 210+ E890 28 07        	JR	Z,E899
 211+ E892 CD 9E E8     	CALL	E89E
 212+ E895 38 02        	JR	C,E899
 213+ E897 C1           	POP	BC
 214+ E898 C9           	RET
 215+ E899              ;
 216+ E899              E899:
 217+ E899 0D           	DEC	C
 218+ E89A 20 F1        	JR	NZ,E88D
 219+ E89C C1           	POP	BC
 220+ E89D C9           	RET
 221+ E89E              ;
 222+ E89E              E89E:
 223+ E89E CD D3 E8     	CALL	E8D3
 224+ E8A1 D8           	RET	C
 225+ E8A2 CD 01 EA     	CALL	EA01
 226+ E8A5 C9           	RET
 227+ E8A6              ;
 228+ E8A6              E8A6:
 229+ E8A6 CD 9E E8     	CALL	E89E
 230+ E8A9 C5           	PUSH	BC
 231+ E8AA E5           	PUSH	HL
 232+ E8AB 38 09        	JR	C,E8B6
 233+ E8AD FD 46 03     	LD	B,(IY+03)
 234+ E8B0 CD F3 EA     	CALL	EAF3
 235+ E8B3 08           	EX	AF,AF'
 236+ E8B4              E8B4:
 237+ E8B4 10 05        	DJNZ	E8BB
 238+ E8B6              E8B6:
 239+ E8B6 3E 02        	LD	A,002H
 240+ E8B8 37           	SCF
 241+ E8B9 18 15        	JR	E8D0
 242+ E8BB              ;
 243+ E8BB              E8BB:
 244+ E8BB CD D3 E8     	CALL	E8D3
 245+ E8BE 38 F6        	JR	C,E8B6
 246+ E8C0 7E           	LD	A,(HL)
 247+ E8C1 FD BE 06     	CP	(IY+06)
 248+ E8C4 20 EE        	JR	NZ,E8B4
 249+ E8C6 FD E5        	PUSH	IY
 250+ E8C8 D1           	POP	DE
 251+ E8C9 E3           	EX	(SP),HL
 252+ E8CA CD C7 E9     	CALL	E9C7
 253+ E8CD E3           	EX	(SP),HL
 254+ E8CE 38 E4        	JR	C,E8B4
 255+ E8D0              E8D0:
 256+ E8D0 E1           	POP	HL
 257+ E8D1 C1           	POP	BC
 258+ E8D2 C9           	RET
 259+ E8D3              ;
 260+ E8D3              E8D3:
 261+ E8D3 D5           	PUSH	DE
 262+ E8D4 CD 03 E9     	CALL	E903
 263+ E8D7 28 15        	JR	Z,E8EE
 264+ E8D9 DD 7E 09     	LD	A,(IX+09)
 265+ E8DC B7           	OR	A
 266+ E8DD 20 0A        	JR	NZ,E8E9
 267+ E8DF DD 7E 0A     	LD	A,(IX+10)
 268+ E8E2 FE 20        	CP	020H
 269+ E8E4 20 03        	JR	NZ,E8E9
 270+ E8E6 B7           	OR	A
 271+ E8E7 18 03        	JR	E8EC
 272+ E8E9              ;
 273+ E8E9              E8E9:
 274+ E8E9 3E 02        	LD	A,002H
 275+ E8EB              E8EB:
 276+ E8EB 37           	SCF
 277+ E8EC              E8EC:
 278+ E8EC D1           	POP	DE
 279+ E8ED C9           	RET
 280+ E8EE              ;
 281+ E8EE              E8EE:
 282+ E8EE 3E 01        	LD	A,001H
 283+ E8F0 18 F9        	JR	E8EB
 284+ E8F2              ;
 285+ E8F2              E8F2:
 286+ E8F2 CD 03 E9     	CALL	E903
 287+ E8F5 C8           	RET	Z
 288+ E8F6 CD 90 EA     	CALL	EA90
 289+ E8F9 FD E5        	PUSH	IY
 290+ E8FB D1           	POP	DE
 291+ E8FC CD BA EA     	CALL	EABA
 292+ E8FF DD 7E 0A     	LD	A,(IX+10)
 293+ E902 C9           	RET
 294+ E903              ;
 295+ E903              E903:
 296+ E903 3E 02        	LD	A,002H
 297+ E905 CD 92 E9     	CALL	E992
 298+ E908 C8           	RET	Z
 299+ E909              ;
 300+ E909 C5           	PUSH	BC
 301+ E90A D5           	PUSH	DE
 302+ E90B E5           	PUSH	HL
 303+ E90C CD 6D EA     	CALL	EA6D
 304+ E90F FD E5        	PUSH	IY
 305+ E911 E1           	POP	HL
 306+ E912 ED 5B AE E7  	LD	DE,(0E7AEH)
 307+ E916 EB           	EX	DE,HL
 308+ E917 01 80 00     	LD	BC,00080H
 309+ E91A ED B0        	LDIR
 310+ E91C E1           	POP	HL
 311+ E91D D1           	POP	DE
 312+ E91E C1           	POP	BC
 313+ E91F C9           	RET
 314+ E920              ;
 315+ E920              E920:
 316+ E920 E5           	PUSH	HL
 317+ E921 CD F3 EA     	CALL	EAF3
 318+ E924 07           	RLCA
 319+ E925 7E           	LD	A,(HL)
 320+ E926 DD 77 0A     	LD	(IX+10),A
 321+ E929 CD E3 EA     	CALL	EAE3
 322+ E92C E1           	POP	HL
 323+ E92D CD 38 E9     	CALL	0E938H
 324+ E930 C8           	RET	Z
 325+ E931 CD 90 EA     	CALL	EA90
 326+ E934 CD BA EA     	CALL	EABA
 327+ E937 C9           	RET
 328+ E938              ;
 329+ E938              E938:
 330+ E938 E5           	PUSH	HL
 331+ E939 CD F3 EA     	CALL	EAF3
 332+ E93C 08           	EX	AF,AF'
 333+ E93D 7E           	LD	A,(HL)
 334+ E93E E1           	POP	HL
 335+ E93F FE 48        	CP	048H
 336+ E941 28 07        	JR	Z,E94A
 337+ E943 FE 44        	CP	044H
 338+ E945 28 03        	JR	Z,E94A
 339+ E947 AF           	XOR	A
 340+ E948 18 02        	JR	E94C
 341+ E94A              ;
 342+ E94A              E94A:
 343+ E94A 3E 80        	LD	A,080H
 344+ E94C              E94C:
 345+ E94C DD 36 09 00  	LD	(IX+09),000H
 346+ E950 CD 77 EA     	CALL	EA77
 347+ E953 CD 92 E9     	CALL	E992
 348+ E956 C9           	RET
 349+ E957              ;
 350+ E957              E957:
 351+ E957 C5           	PUSH	BC
 352+ E958 E5           	PUSH	HL
 353+ E959 F5           	PUSH	AF
 354+ E95A 06 02        	LD	B,002H
 355+ E95C              E95C:
 356+ E95C 3E 15        	LD	A,015H
 357+ E95E CD 92 E9     	CALL	E992
 358+ E961 28 17        	JR	Z,E97A
 359+ E963 CD A0 EA     	CALL	EAA0
 360+ E966 10 F4        	DJNZ	E95C
 361+ E968 CD F2 E8     	CALL	E8F2
 362+ E96B 28 0D        	JR	Z,E97A
 363+ E96D 6F           	LD	L,A
 364+ E96E 26 00        	LD	H,000H
 365+ E970 19           	ADD	HL,DE
 366+ E971 2B           	DEC	HL
 367+ E972 E5           	PUSH	HL
 368+ E973 D1           	POP	DE
 369+ E974 CD BA EA     	CALL	EABA
 370+ E977 B7           	OR	A
 371+ E978 18 01        	JR	E97B
 372+ E97A              ;
 373+ E97A              E97A:
 374+ E97A 37           	SCF
 375+ E97B              E97B:
 376+ E97B C1           	POP	BC
 377+ E97C 78           	LD	A,B
 378+ E97D E1           	POP	HL
 379+ E97E C1           	POP	BC
 380+ E97F C9           	RET
 381+ E980              ;
 382+ E980              E980:
 383+ E980 3E 21        	LD	A,021H
 384+ E982 CD 92 E9     	CALL	E992
 385+ E985              E985:
 386+ E985 CD A8 E7     	CALL	E7A8
 387+ E988 38 FB        	JR	C,E985
 388+ E98A 3E 32        	LD	A,032H
 389+ E98C C5           	PUSH	BC
 390+ E98D CD AB E7     	CALL	E7AB
 391+ E990 C1           	POP	BC
 392+ E991 C9           	RET
 393+ E992              ;
 394+ E992              E992:
 395+ E992 E5           	PUSH	HL
 396+ E993 DD 77 04     	LD	(IX+04),A
 397+ E996 21 A6 E9     	LD	HL,E9A6
 398+ E999 DD 75 05     	LD	(IX+05),L
 399+ E99C DD 74 06     	LD	(IX+06),H
 400+ E99F E1           	POP	HL
 401+ E9A0 CD A5 E7     	CALL	E7A5
 402+ E9A3              E9A3:
 403+ E9A3 76           	HALT
 404+ E9A4 18 FD        	JR	E9A3
 405+ E9A6              ;
 406+ E9A6              E9A6:
 407+ E9A6 33           	INC	SP
 408+ E9A7 33           	INC	SP
 409+ E9A8 DD 7E 00     	LD	A,(IX+00)
 410+ E9AB 2F           	CPL
 411+ E9AC C5           	PUSH	BC
 412+ E9AD 47           	LD	B,A
 413+ E9AE CB 4F        	BIT	1,A
 414+ E9B0 3E 25        	LD	A,025H
 415+ E9B2 CC BE E9     	CALL	Z,0E9BEH
 416+ E9B5 78           	LD	A,B
 417+ E9B6 C1           	POP	BC
 418+ E9B7 C8           	RET	Z
 419+ E9B8 C3 9B EF     	JP	0EF9BH
 420+ E9BB              ;
 421+ E9BB              E9BB:
 422+ E9BB DD 7E 01     	LD	A,(IX+01)
 423+ E9BE C6 70        	ADD	A,070H
 424+ E9C0 CD 99 E7     	CALL	E799
 425+ E9C3 C3 A8 EF     	JP	0EFA8H
 426+ E9C6              ;
 427+ E9C6              E9C6:
 428+ E9C6 C9           	RET
 429+ E9C7              ;
 430+ E9C7              E9C7:
 431+ E9C7 E5           	PUSH	HL
 432+ E9C8 C5           	PUSH	BC
 433+ E9C9 06 06        	LD	B,006H
 434+ E9CB              E9CB:
 435+ E9CB 1A           	LD	A,(DE)
 436+ E9CC BE           	CP	(HL)
 437+ E9CD 20 08        	JR	NZ,E9D7
 438+ E9CF 23           	INC	HL
 439+ E9D0 13           	INC	DE
 440+ E9D1 10 F8        	DJNZ	E9CB
 441+ E9D3 B7           	OR	A
 442+ E9D4              E9D4:
 443+ E9D4 C1           	POP	BC
 444+ E9D5 E1           	POP	HL
 445+ E9D6 C9           	RET
 446+ E9D7              ;
 447+ E9D7              E9D7:
 448+ E9D7 37           	SCF
 449+ E9D8 18 FA        	JR	E9D4
 450+ E9DA              ;
 451+ E9DA              E9DA:
 452+ E9DA 3E 31        	LD	A,031H
 453+ E9DC CD 92 E9     	CALL	E992
 454+ E9DF C8           	RET	Z
 455+ E9E0 7E           	LD	A,(HL)
 456+ E9E1 E5           	PUSH	HL
 457+ E9E2 CD F3 EA     	CALL	EAF3
 458+ E9E5 08           	EX	AF,AF'
 459+ E9E6 77           	LD	(HL),A
 460+ E9E7 E1           	POP	HL
 461+ E9E8 C5           	PUSH	BC
 462+ E9E9 4F           	LD	C,A
 463+ E9EA FE 48        	CP	048H
 464+ E9EC 06 01        	LD	B,001H
 465+ E9EE 28 02        	JR	Z,E9F2
 466+ E9F0 06 06        	LD	B,006H
 467+ E9F2              E9F2:
 468+ E9F2 CD 63 E8     	CALL	0E863H
 469+ E9F5 79           	LD	A,C
 470+ E9F6 C1           	POP	BC
 471+ E9F7 C9           	RET
 472+ E9F8              ;
 473+ E9F8              E9F8:
 474+ E9F8 CD 80 E9     	CALL	0E980H
 475+ E9FB 3E 41        	LD	A,041H
 476+ E9FD CD 92 E9     	CALL	E992
 477+ EA00 C9           	RET
 478+ EA01              ;
 479+ EA01              EA01:
 480+ EA01 F5           	PUSH	AF
 481+ EA02 FD 7E 06     	LD	A,(IY+06)
 482+ EA05 FE 44        	CP	044H
 483+ EA07 20 0A        	JR	NZ,EA13
 484+ EA09 FD 7E 07     	LD	A,(IY+07)
 485+ EA0C FE 53        	CP	053H
 486+ EA0E 20 03        	JR	NZ,EA13
 487+ EA10 F1           	POP	AF
 488+ EA11 B7           	OR	A
 489+ EA12 C9           	RET
 490+ EA13              ;
 491+ EA13              EA13:
 492+ EA13 F1           	POP	AF
 493+ EA14 37           	SCF
 494+ EA15 3E 02        	LD	A,002H
 495+ EA17 C9           	RET
 496+ EA18              ;
 497+ EA18              EA18:
 498+ EA18 CD 31 EA     	CALL	0EA31H
 499+ EA1B C8           	RET	Z
 500+ EA1C CD 03 E9     	CALL	E903
 501+ EA1F C8           	RET	Z
 502+ EA20 FD 7E 00     	LD	A,(IY+00)
 503+ EA23 B8           	CP	B
 504+ EA24 20 03        	JR	NZ,$+05	;EA29
 505+ EA26 F6 01        	OR	001H
 506+ EA28 C9           	RET
 507+ EA29              ;
 508+ EA29              EA29:
 509+ EA29 C5           	PUSH	BC
 510+ EA2A CD 61 E8     	CALL	E861
 511+ EA2D C1           	POP	BC
 512+ EA2E C8           	RET	Z
 513+ EA2F 18 E7        	JR	EA18
 514+ EA31 DD 70 0A     	LD	(IX+10),B
 515+ EA34 3E 71        	LD	A,071H
 516+ EA36 CD 92 E9     	CALL	E992
 517+ EA39 C9           	RET
 518+ EA3A              ;
 519+ EA3A              EA3A:
 520+ EA3A 3E 03        	LD	A,003H
 521+ EA3C 18 02        	JR	EA40
 522+ EA3E 3E 01        	LD	A,001H
 523+ EA40              EA40:
 524+ EA40 E5           	PUSH	HL
 525+ EA41 C5           	PUSH	BC
 526+ EA42 47           	LD	B,A
 527+ EA43 3E 03        	LD	A,003H
 528+ EA45 CD F3 EA     	CALL	EAF3
 529+ EA48 00           	NOP
 530+ EA49 A6           	AND	(HL)
 531+ EA4A B8           	CP	B
 532+ EA4B C1           	POP	BC
 533+ EA4C E1           	POP	HL
 534+ EA4D C8           	RET	Z
 535+ EA4E CD 5F EA     	CALL	EA5F
 536+ EA51 C9           	RET
 537+ EA52              ;
 538+ EA52              EA52:
 539+ EA52 E5           	PUSH	HL
 540+ EA53 CD F3 EA     	CALL	EAF3
 541+ EA56 00           	NOP
 542+ EA57 CB 46        	BIT	0,(HL)
 543+ EA59 E1           	POP	HL
 544+ EA5A C8           	RET	Z
 545+ EA5B CD 5F EA     	CALL	EA5F
 546+ EA5E C9           	RET
 547+ EA5F              ;
 548+ EA5F              EA5F:
 549+ EA5F 3E 05        	LD	A,005H
 550+ EA61 ED 43 EE FA  	LD	(0FAEEH),BC
 551+ EA65 ED 53 F0 FA  	LD	(0FAF0H),DE
 552+ EA69 22 F2 FA     	LD	(0FAF2H),HL
 553+ EA6C C9           	RET
 554+ EA6D              ;
 555+ EA6D              EA6D:
 556+ EA6D E5           	PUSH	HL
 557+ EA6E CD F3 EA     	CALL	EAF3
 558+ EA71 20 E5        	JR	NZ,$-25	;EA58
 559+ EA73 FD E1        	POP	IY
 560+ EA75 E1           	POP	HL
 561+ EA76 C9           	RET
 562+ EA77              ;
 563+ EA77              EA77:
 564+ EA77 CD 6D EA     	CALL	EA6D
 565+ EA7A FD E5        	PUSH	IY
 566+ EA7C D1           	POP	DE
 567+ EA7D DD 73 07     	LD	(IX+07),E
 568+ EA80 DD 72 08     	LD	(IX+08),D
 569+ EA83 C9           	RET
 570+ EA84              ;
 571+ EA84              EA84:
 572+ EA84 E5           	PUSH	HL
 573+ EA85 CD F3 EA     	CALL	EAF3
 574+ EA88 20 E5        	JR	NZ,$-25	;EA6F
 575+ EA8A D1           	POP	DE
 576+ EA8B CD BA EA     	CALL	EABA
 577+ EA8E E1           	POP	HL
 578+ EA8F C9           	RET
 579+ EA90              ;
 580+ EA90              EA90:
 581+ EA90 E5           	PUSH	HL
 582+ EA91 D5           	PUSH	DE
 583+ EA92 CD F3 EA     	CALL	EAF3
 584+ EA95 01 5E 23     	LD	BC,0235EH
 585+ EA98 56           	LD	D,(HL)
 586+ EA99 13           	INC	DE
 587+ EA9A 72           	LD	(HL),D
 588+ EA9B 2B           	DEC	HL
 589+ EA9C 73           	LD	(HL),E
 590+ EA9D D1           	POP	DE
 591+ EA9E E1           	POP	HL
 592+ EA9F C9           	RET
 593+ EAA0              ;
 594+ EAA0              EAA0:
 595+ EAA0 E5           	PUSH	HL
 596+ EAA1 D5           	PUSH	DE
 597+ EAA2 CD F3 EA     	CALL	EAF3
 598+ EAA5 01 5E 23     	LD	BC,0235EH
 599+ EAA8 56           	LD	D,(HL)
 600+ EAA9 1B           	DEC	DE
 601+ EAAA 72           	LD	(HL),D
 602+ EAAB 2B           	DEC	HL
 603+ EAAC 73           	LD	(HL),E
 604+ EAAD D1           	POP	DE
 605+ EAAE E1           	POP	HL
 606+ EAAF C9           	RET
 607+ EAB0              ;
 608+ EAB0              EAB0:
 609+ EAB0 E5           	PUSH	HL
 610+ EAB1 CD F3 EA     	CALL	EAF3
 611+ EAB4 04           	INC	B
 612+ EAB5 5E           	LD	E,(HL)
 613+ EAB6 23           	INC	HL
 614+ EAB7 56           	LD	D,(HL)
 615+ EAB8 E1           	POP	HL
 616+ EAB9 C9           	RET
 617+ EABA              ;
 618+ EABA              EABA:
 619+ EABA E5           	PUSH	HL
 620+ EABB CD F3 EA     	CALL	EAF3
 621+ EABE 04           	INC	B
 622+ EABF 73           	LD	(HL),E
 623+ EAC0 23           	INC	HL
 624+ EAC1 72           	LD	(HL),D
 625+ EAC2 E1           	POP	HL
 626+ EAC3 C9           	RET
 627+ EAC4              ;
 628+ EAC4              EAC4:
 629+ EAC4 CD B0 EA     	CALL	EAB0
 630+ EAC7 E5           	PUSH	HL
 631+ EAC8 CD F3 EA     	CALL	EAF3
 632+ EACB 20 B7        	JR	NZ,EA84
 633+ EACD ED 52        	SBC	HL,DE
 634+ EACF E1           	POP	HL
 635+ EAD0 1B           	DEC	DE
 636+ EAD1 C9           	RET
 637+ EAD2              ;
 638+ EAD2              EAD2:
 639+ EAD2 E5           	PUSH	HL
 640+ EAD3 CD F3 EA     	CALL	EAF3
 641+ EAD6 06 77        	LD	B,077H
 642+ EAD8 E1           	POP	HL
 643+ EAD9 C9           	RET
 644+ EADA              ;
 645+ EADA              EADA:
 646+ EADA E5           	PUSH	HL
 647+ EADB CD F3 EA     	CALL	EAF3
 648+ EADE 03           	INC	BC
 649+ EADF 7E           	LD	A,(HL)
 650+ EAE0 B7           	OR	A
 651+ EAE1 E1           	POP	HL
 652+ EAE2 C9           	RET
 653+ EAE3              ;
 654+ EAE3              EAE3:
 655+ EAE3 E5           	PUSH	HL
 656+ EAE4 CD F3 EA     	CALL	EAF3
 657+ EAE7 03           	INC	BC
 658+ EAE8 77           	LD	(HL),A
 659+ EAE9 E1           	POP	HL
 660+ EAEA C9           	RET
 661+ EAEB              ;
 662+ EAEB              EAEB:
 663+ EAEB E5           	PUSH	HL
 664+ EAEC CD F3 EA     	CALL	EAF3
 665+ EAEF 00           	NOP
 666+ EAF0 77           	LD	(HL),A
 667+ EAF1 E1           	POP	HL
 668+ EAF2 C9           	RET
 669+ EAF3              ;
 670+ EAF3              EAF3:	;32 CALL- Befehle !!!
 671+ EAF3 E1           	POP	HL
 672+ EAF4 23           	INC	HL
 673+ EAF5 E5           	PUSH	HL
 674+ EAF6 2B           	DEC	HL
 675+ EAF7 C5           	PUSH	BC
 676+ EAF8 4E           	LD	C,(HL)
 677+ EAF9 06 00        	LD	B,000H
 678+ EAFB 2A AA F9     	LD	HL,(0F9AAH)
 679+ EAFE 09           	ADD	HL,BC
 680+ EAFF C1           	POP	BC
 681+ EB00 C9           	RET
 682+ EB01              ;
 683+ EB01              EB01:
 684+ EB01 C5           	PUSH	BC
 685+ EB02 D5           	PUSH	DE
 686+ EB03 CD D3 E8     	CALL	E8D3
 687+ EB06 38 1C        	JR	C,EB24
 688+ EB08 CD 01 EA     	CALL	EA01
 689+ EB0B 38 17        	JR	C,EB24
 690+ EB0D FD 5E 03     	LD	E,(IY+03)
 691+ EB10 16 00        	LD	D,000H
 692+ EB12 06 05        	LD	B,005H
 693+ EB14 CD 29 EB     	CALL	EB29
 694+ EB17 3E 15        	LD	A,015H
 695+ EB19 CD 92 E9     	CALL	E992
 696+ EB1C 20 03        	JR	NZ,EB21
 697+ EB1E 37           	SCF
 698+ EB1F 18 03        	JR	EB24
 699+ EB21              EB21:
 700+ EB21 B7           	OR	A
 701+ EB22 18 02        	JR	EB26
 702+ EB24              EB24:
 703+ EB24 3E 02        	LD	A,002H
 704+ EB26              EB26:
 705+ EB26 D1           	POP	DE
 706+ EB27 C1           	POP	BC
 707+ EB28 C9           	RET
 708+ EB29              ;
 709+ EB29              EB29:
 710+ EB29 E5           	PUSH	HL
 711+ EB2A D5           	PUSH	DE
 712+ EB2B C5           	PUSH	BC
 713+ EB2C 1E 07        	LD	E,007H
 714+ EB2E E5           	PUSH	HL
 715+ EB2F C1           	POP	BC
 716+ EB30 0B           	DEC	BC
 717+ EB31 CD A2 E7     	CALL	E7A2
 718+ EB34 C1           	POP	BC
 719+ EB35 E1           	POP	HL
 720+ EB36 30 0A        	JR	NC,EB42
 721+ EB38 EB           	EX	DE,HL
 722+ EB39              EB39:
 723+ EB39 CB 23        	SLA	E
 724+ EB3B CB 12        	RL	D
 725+ EB3D 10 FA        	DJNZ	EB39
 726+ EB3F 73           	LD	(HL),E
 727+ EB40 23           	INC	HL
 728+ EB41 72           	LD	(HL),D
 729+ EB42              EB42:
 730+ EB42 E1           	POP	HL
 731+ EB43 C9           	RET
 732+ EB44              ;
 733+ EB44              EB44:
 734+ EB44 CD DA E9     	CALL	0E9DAH
 735+ EB47 CA F0 E7     	JP	Z,0E7F0H
 736+ EB4A CD 52 EA     	CALL	0EA52H
 737+ EB4D 28 03        	JR	Z,$+05	;EB52
 738+ EB4F CD F0 E7     	CALL	0E7F0H
 739+ EB52 FE 48        	CP	048H
 740+ EB54 CA D9 EB     	JP	Z,0EBD9H
 741+ EB57 23           	INC	HL
 742+ EB58 FE 44        	CP	044H
 743+ EB5A CA D0 EB     	JP	Z,0EBD0H
 744+ EB5D 7E           	LD	A,(HL)
 745+ EB5E CB 47        	BIT	0,A
 746+ EB60 3E 02        	LD	A,002H
 747+ EB62 28 69        	JR	Z,$+107	;EBCD
 748+ EB64 23           	INC	HL
 749+ EB65 CD A6 E8     	CALL	E8A6
 750+ EB68 38 63        	JR	C,$+101	;EBCD
 751+ EB6A 13           	INC	DE
 752+ EB6B 2B           	DEC	HL
 753+ EB6C 06 07        	LD	B,007H
 754+ EB6E D5           	PUSH	DE
 755+ EB6F FD 5E 19     	LD	E,(IY+25)
 756+ EB72 FD 56 1A     	LD	D,(IY+26)
 757+ EB75 CD 29 EB     	CALL	EB29
 758+ EB78 D1           	POP	DE
 759+ EB79 7E           	LD	A,(HL)
 760+ EB7A 23           	INC	HL
 761+ EB7B 01 06 00     	LD	BC,00006H
 762+ EB7E 09           	ADD	HL,BC
 763+ EB7F EB           	EX	DE,HL
 764+ EB80 0E 01        	LD	C,001H
 765+ EB82 CB 4F        	BIT	1,A
 766+ EB84 28 02        	JR	Z,$+04	;EB88
 767+ EB86 ED B0        	LDIR
 768+ EB88 09           	ADD	HL,BC
 769+ EB89 0E 06        	LD	C,006H
 770+ EB8B CB 57        	BIT	2,A
 771+ EB8D 28 02        	JR	Z,$+04	;EB91
 772+ EB8F ED B0        	LDIR
 773+ EB91 09           	ADD	HL,BC
 774+ EB92 0E 06        	LD	C,006H
 775+ EB94 09           	ADD	HL,BC
 776+ EB95 0E 03        	LD	C,003H
 777+ EB97 CB 5F        	BIT	3,A
 778+ EB99 28 02        	JR	Z,$+04	;EB9D
 779+ EB9B ED B0        	LDIR
 780+ EB9D 09           	ADD	HL,BC
 781+ EB9E 46           	LD	B,(HL)
 782+ EB9F C5           	PUSH	BC
 783+ EBA0 23           	INC	HL
 784+ EBA1 23           	INC	HL
 785+ EBA2 23           	INC	HL
 786+ EBA3 23           	INC	HL
 787+ EBA4 01 05 00     	LD	BC,00005H
 788+ EBA7 CB 67        	BIT	4,A
 789+ EBA9 28 02        	JR	Z,$+04	;EBAD
 790+ EBAB ED B0        	LDIR
 791+ EBAD C1           	POP	BC
 792+ EBAE CD 18 EA     	CALL	0EA18H
 793+ EBB1 28 1A        	JR	Z,$+28	;EBCD
 794+ EBB3 0E 02        	LD	C,002H
 795+ EBB5 AF           	XOR	A
 796+ EBB6 CD E3 EA     	CALL	EAE3
 797+ EBB9 AF           	XOR	A
 798+ EBBA E5           	PUSH	HL
 799+ EBBB CD F3 EA     	CALL	EAF3
 800+ EBBE 01 77 23     	LD	BC,02377H
 801+ EBC1 77           	LD	(HL),A
 802+ EBC2 E1           	POP	HL
 803+ EBC3 CD 84 EA     	CALL	EA84
 804+ EBC6 79           	LD	A,C
 805+ EBC7 F6 01        	OR	001H
 806+ EBC9 CD EB EA     	CALL	EAEB
 807+ EBCC AF           	XOR	A
 808+ EBCD C3 F0 E7     	JP	0E7F0H
 809+ EBD0              ;
 810+ EBD0 CD 01 EB     	CALL	EB01
 811+ EBD3 38 F8        	JR	C,$-06	;EBCD
 812+ EBD5 0E 0A        	LD	C,00AH
 813+ EBD7 18 DC        	JR	$-34	;EBB5
 814+ EBD9 0E 06        	LD	C,006H
 815+ EBDB 18 D8        	JR	$-38	;EBB5
 816+ EBDD CD 8E EF     	CALL	0EF8EH
 817+ EBE0 28 EB        	JR	Z,$-19	;EBCD
 818+ EBE2 CD 52 EA     	CALL	0EA52H
 819+ EBE5 28 03        	JR	Z,$+05	;EBEA
 820+ EBE7 CD F0 E7     	CALL	0E7F0H
 821+ EBEA FE 48        	CP	048H
 822+ EBEC CA 95 EC     	JP	Z,0EC95H
 823+ EBEF 23           	INC	HL
 824+ EBF0 FE 44        	CP	044H
 825+ EBF2 CA 8F EC     	JP	Z,0EC8FH
 826+ EBF5 CD 9E E8     	CALL	E89E
 827+ EBF8 30 04        	JR	NC,$+06	;EBFE
 828+ EBFA 3E 02        	LD	A,002H
 829+ EBFC 18 CF        	JR	$-47	;EBCD
 830+ EBFE FD 7E 03     	LD	A,(IY+03)
 831+ EC01 FE 68        	CP	068H
 832+ EC03 38 04        	JR	C,$+06	;EC09
 833+ EC05 3E 06        	LD	A,006H
 834+ EC07 18 C4        	JR	$-58	;EBCD
 835+ EC09 FD 7E 01     	LD	A,(IY+01)
 836+ EC0C CD D2 EA     	CALL	EAD2
 837+ EC0F 3E 15        	LD	A,015H
 838+ EC11 CD 92 E9     	CALL	E992
 839+ EC14 28 B7        	JR	Z,$-71	;EBCD
 840+ EC16 CB 46        	BIT	0,(HL)
 841+ EC18 3E 02        	LD	A,002H
 842+ EC1A 28 B1        	JR	Z,$-77	;EBCD
 843+ EC1C 23           	INC	HL
 844+ EC1D CD A6 E8     	CALL	E8A6
 845+ EC20 3E 02        	LD	A,002H
 846+ EC22 30 A9        	JR	NC,$-85	;EBCD
 847+ EC24 E5           	PUSH	HL
 848+ EC25 E5           	PUSH	HL
 849+ EC26 CD F3 EA     	CALL	EAF3
 850+ EC29 09           	ADD	HL,BC
 851+ EC2A E5           	PUSH	HL
 852+ EC2B D1           	POP	DE
 853+ EC2C E1           	POP	HL
 854+ EC2D 01 06 00     	LD	BC,00006H
 855+ EC30 ED B0        	LDIR
 856+ EC32 E3           	EX	(SP),HL
 857+ EC33 2B           	DEC	HL
 858+ EC34 CB 4E        	BIT	1,(HL)
 859+ EC36 20 04        	JR	NZ,$+06	;EC3C
 860+ EC38 3E 20        	LD	A,020H
 861+ EC3A 18 04        	JR	$+06	;EC40
 862+ EC3C E3           	EX	(SP),HL
 863+ EC3D 7E           	LD	A,(HL)
 864+ EC3E 23           	INC	HL
 865+ EC3F E3           	EX	(SP),HL
 866+ EC40 12           	LD	(DE),A
 867+ EC41 13           	INC	DE
 868+ EC42 7E           	LD	A,(HL)
 869+ EC43 CB 57        	BIT	2,A
 870+ EC45 E1           	POP	HL
 871+ EC46 28 06        	JR	Z,$+08	;EC4E
 872+ EC48 0E 06        	LD	C,006H
 873+ EC4A ED B0        	LDIR
 874+ EC4C 18 05        	JR	$+07	;EC53
 875+ EC4E E5           	PUSH	HL
 876+ EC4F CD 9C E7     	CALL	E79C
 877+ EC52 E1           	POP	HL
 878+ EC53 CB 5F        	BIT	3,A
 879+ EC55 28 06        	JR	Z,$+08	;EC5D
 880+ EC57 0E 03        	LD	C,003H
 881+ EC59 ED B0        	LDIR
 882+ EC5B 18 05        	JR	$+07	;EC62
 883+ EC5D E5           	PUSH	HL
 884+ EC5E CD 9F E7     	CALL	E79F
 885+ EC61 E1           	POP	HL
 886+ EC62 CB 67        	BIT	4,A
 887+ EC64 20 0A        	JR	NZ,$+12	;EC70
 888+ EC66 D5           	PUSH	DE
 889+ EC67 3E 20        	LD	A,020H
 890+ EC69 06 05        	LD	B,005H
 891+ EC6B 12           	LD	(DE),A
 892+ EC6C 13           	INC	DE
 893+ EC6D 10 FC        	DJNZ	$-02	;EC6B
 894+ EC6F E1           	POP	HL
 895+ EC70 EB           	EX	DE,HL
 896+ EC71 CD F3 EA     	CALL	EAF3
 897+ EC74 1C           	INC	E
 898+ EC75 73           	LD	(HL),E
 899+ EC76 23           	INC	HL
 900+ EC77 72           	LD	(HL),D
 901+ EC78 CD F3 EA     	CALL	EAF3
 902+ EC7B 06 46        	LD	B,046H
 903+ EC7D CD 18 EA     	CALL	0EA18H
 904+ EC80 CA F0 E7     	JP	Z,0E7F0H
 905+ EC83 3E 80        	LD	A,080H
 906+ EC85 0E 00        	LD	C,000H
 907+ EC87 CD F3 EA     	CALL	EAF3
 908+ EC8A 07           	RLCA
 909+ EC8B 77           	LD	(HL),A
 910+ EC8C C3 B6 EB     	JP	0EBB6H
 911+ EC8F 3E 20        	LD	A,020H
 912+ EC91 0E 08        	LD	C,008H
 913+ EC93 18 F2        	JR	$-12	;EC83
 914+ EC95 3E 80        	LD	A,080H
 915+ EC97 0E 04        	LD	C,004H
 916+ EC99 18 EC        	JR	$-18	;EC87
 917+ EC9B CD 3A EA     	CALL	EA3A
 918+ EC9E 28 03        	JR	Z,$+05	;ECA3
 919+ ECA0 CD F0 E7     	CALL	0E7F0H
 920+ ECA3 C3 9F ED     	JP	0ED9FH
 921+ ECA6              ;
 922+ ECA6 CD 3E EA     	CALL	0EA3EH
 923+ ECA9 28 03        	JR	Z,$+05	;ECAE
 924+ ECAB CD F0 E7     	CALL	0E7F0H
 925+ ECAE CD F3 EA     	CALL	EAF3
 926+ ECB1 1E 5E        	LD	E,05EH
 927+ ECB3 23           	INC	HL
 928+ ECB4 56           	LD	D,(HL)
 929+ ECB5 1A           	LD	A,(DE)
 930+ ECB6 FE 48        	CP	048H
 931+ ECB8 CA 9F ED     	JP	Z,0ED9FH
 932+ ECBB 47           	LD	B,A
 933+ ECBC CD DA EA     	CALL	EADA
 934+ ECBF CD F3 EA     	CALL	EAF3
 935+ ECC2 07           	RLCA
 936+ ECC3 BE           	CP	(HL)
 937+ ECC4 28 06        	JR	Z,$+08	;ECCC
 938+ ECC6 CD 20 E9     	CALL	0E920H
 939+ ECC9 CA F0 E7     	JP	Z,0E7F0H
 940+ ECCC 78           	LD	A,B
 941+ ECCD FE 44        	CP	044H
 942+ ECCF CA 9F ED     	JP	Z,0ED9FH
 943+ ECD2              ;
 944+ ECD2 3E 51        	LD	A,051H
 945+ ECD4 CD 92 E9     	CALL	E992
 946+ ECD7 CA F0 E7     	JP	Z,0E7F0H
 947+ ECDA CD 77 EA     	CALL	EA77
 948+ ECDD CD F3 EA     	CALL	EAF3
 949+ ECE0 06 7E        	LD	B,07EH
 950+ ECE2 3C           	INC	A
 951+ ECE3 EB           	EX	DE,HL
 952+ ECE4 06 20        	LD	B,020H
 953+ ECE6 DD 70 0A     	LD	(IX+10),B
 954+ ECE9 77           	LD	(HL),A
 955+ ECEA AF           	XOR	A
 956+ ECEB 23           	INC	HL
 957+ ECEC 10 FB        	DJNZ	$-03	;ECE9
 958+ ECEE CD 38 E9     	CALL	0E938H
 959+ ECF1 CA F0 E7     	JP	Z,0E7F0H
 960+ ECF4 3E 61        	LD	A,061H
 961+ ECF6 CD 92 E9     	CALL	E992
 962+ ECF9 CA F0 E7     	JP	Z,0E7F0H
 963+ ECFC CD 6F E8     	CALL	E86F
 964+ ECFF 3E 02        	LD	A,002H
 965+ ED01 CA F0 E7     	JP	Z,0E7F0H
 966+ ED04 01 20 00     	LD	BC,00020H
 967+ ED07 11 F4 FA     	LD	DE,0FAF4H
 968+ ED0A FD E5        	PUSH	IY
 969+ ED0C E1           	POP	HL
 970+ ED0D ED B0        	LDIR
 971+ ED0F FD 46 03     	LD	B,(IY+03)
 972+ ED12 3E 11        	LD	A,011H
 973+ ED14 CD 92 E9     	CALL	E992
 974+ ED17 CA F0 E7     	JP	Z,0E7F0H
 975+ ED1A 10 F6        	DJNZ	$-08	;ED12
 976+ ED1C 3E 15        	LD	A,015H
 977+ ED1E CD 92 E9     	CALL	E992
 978+ ED21 CA F0 E7     	JP	Z,0E7F0H
 979+ ED24 FD 7E 01     	LD	A,(IY+01)
 980+ ED27 FD 77 17     	LD	(IY+23),A
 981+ ED2A FD E5        	PUSH	IY
 982+ ED2C D1           	POP	DE
 983+ ED2D CD F3 EA     	CALL	EAF3
 984+ ED30 09           	ADD	HL,BC
 985+ ED31 01 06 00     	LD	BC,00006H
 986+ ED34 ED B0        	LDIR
 987+ ED36 CD F3 EA     	CALL	EAF3
 988+ ED39 08           	EX	AF,AF'
 989+ ED3A 0E 01        	LD	C,001H
 990+ ED3C ED B0        	LDIR
 991+ ED3E CD F3 EA     	CALL	EAF3
 992+ ED41 0F           	RRCA
 993+ ED42 0E 07        	LD	C,007H
 994+ ED44 ED B0        	LDIR
 995+ ED46 E5           	PUSH	HL
 996+ ED47 CD 9C E7     	CALL	E79C
 997+ ED4A E1           	POP	HL
 998+ ED4B 0E 03        	LD	C,003H
 999+ ED4D ED B0        	LDIR
1000+ ED4F E5           	PUSH	HL
1001+ ED50 CD F3 EA     	CALL	EAF3
1002+ ED53 01 7E 13     	LD	BC,0137EH
1003+ ED56 13           	INC	DE
1004+ ED57 12           	LD	(DE),A
1005+ ED58 13           	INC	DE
1006+ ED59 23           	INC	HL
1007+ ED5A 18 09        	JR	$+11	;ED65
1008+ ED5C 02           	LD	(BC),A
1009+ ED5D 03           	INC	BC
1010+ ED5E F1           	POP	AF
1011+ ED5F CD 0D C9     	CALL	0C90DH
1012+ ED62 02           	LD	(BC),A
1013+ ED63 03           	INC	BC
1014+ ED64 C9           	RET
1015+ ED65              ;
1016+ ED65 7E           	LD	A,(HL)
1017+ ED66 E1           	POP	HL
1018+ ED67 12           	LD	(DE),A
1019+ ED68 13           	INC	DE
1020+ ED69 CD F3 EA     	CALL	EAF3
1021+ ED6C 1C           	INC	E
1022+ ED6D D5           	PUSH	DE
1023+ ED6E 5E           	LD	E,(HL)
1024+ ED6F 23           	INC	HL
1025+ ED70 56           	LD	D,(HL)
1026+ ED71 EB           	EX	DE,HL
1027+ ED72 D1           	POP	DE
1028+ ED73 0E 05        	LD	C,005H
1029+ ED75 ED B0        	LDIR
1030+ ED77 CD 4A E9     	CALL	0E94AH
1031+ ED7A 28 2D        	JR	Z,$+47	;EDA9
1032+ ED7C CD 61 E8     	CALL	E861
1033+ ED7F 3E 02        	LD	A,002H
1034+ ED81 28 26        	JR	Z,$+40	;EDA9
1035+ ED83 FD 21 F4 FA  	LD	IY,0FAF4H
1036+ ED87 CD 7A EA     	CALL	0EA7AH
1037+ ED8A FD 7E 03     	LD	A,(IY+03)
1038+ ED8D 3C           	INC	A
1039+ ED8E FD 77 03     	LD	(IY+03),A
1040+ ED91 FD 7E 01     	LD	A,(IY+01)
1041+ ED94 3C           	INC	A
1042+ ED95 FD 77 01     	LD	(IY+01),A
1043+ ED98 3E 80        	LD	A,080H
1044+ ED9A CD 92 E9     	CALL	E992
1045+ ED9D 28 0A        	JR	Z,$+12	;EDA9
1046+ ED9F CD F3 EA     	CALL	EAF3
1047+ EDA2 00           	NOP
1048+ EDA3 36 00        	LD	(HL),000H
1049+ EDA5 CD F8 E9     	CALL	E9F8
1050+ EDA8 AF           	XOR	A
1051+ EDA9 C3 F0 E7     	JP	0E7F0H
1052+ EDAC              ;
1053+ EDAC CD 3A EA     	CALL	EA3A
1054+ EDAF 28 03        	JR	Z,$+05	;EDB4
1055+ EDB1 CD F0 E7     	CALL	0E7F0H
1056+ EDB4 E5           	PUSH	HL
1057+ EDB5 C5           	PUSH	BC
1058+ EDB6 D5           	PUSH	DE
1059+ EDB7 D5           	PUSH	DE
1060+ EDB8 CD B0 EA     	CALL	EAB0
1061+ EDBB CD DA EA     	CALL	EADA
1062+ EDBE 20 05        	JR	NZ,$+07	;EDC5
1063+ EDC0 CD F2 E8     	CALL	E8F2
1064+ EDC3 28 2C        	JR	Z,$+46	;EDF1
1065+ EDC5 3D           	DEC	A
1066+ EDC6 CD E3 EA     	CALL	EAE3
1067+ EDC9 F1           	POP	AF
1068+ EDCA C5           	PUSH	BC
1069+ EDCB EB           	EX	DE,HL
1070+ EDCC 46           	LD	B,(HL)
1071+ EDCD EB           	EX	DE,HL
1072+ EDCE 70           	LD	(HL),B
1073+ EDCF 23           	INC	HL
1074+ EDD0 13           	INC	DE
1075+ EDD1 B7           	OR	A
1076+ EDD2 28 03        	JR	Z,$+05	;EDD7
1077+ EDD4 B8           	CP	B
1078+ EDD5 28 13        	JR	Z,$+21	;EDEA
1079+ EDD7 C1           	POP	BC
1080+ EDD8 D5           	PUSH	DE
1081+ EDD9 0B           	DEC	BC
1082+ EDDA 57           	LD	D,A
1083+ EDDB 78           	LD	A,B
1084+ EDDC B1           	OR	C
1085+ EDDD 28 05        	JR	Z,$+07	;EDE4
1086+ EDDF 7A           	LD	A,D
1087+ EDE0 D1           	POP	DE
1088+ EDE1 F5           	PUSH	AF
1089+ EDE2 18 D7        	JR	$-39	;EDBB
1090+ EDE4 D1           	POP	DE
1091+ EDE5 CD BA EA     	CALL	EABA
1092+ EDE8 18 0A        	JR	$+12	;EDF4
1093+ EDEA 3E 04        	LD	A,004H
1094+ EDEC CD BA EA     	CALL	EABA
1095+ EDEF 18 02        	JR	$+04	;EDF3
1096+ EDF1 3E 01        	LD	A,001H
1097+ EDF3 C1           	POP	BC
1098+ EDF4 D1           	POP	DE
1099+ EDF5 C1           	POP	BC
1100+ EDF6 E1           	POP	HL
1101+ EDF7 C3 F0 E7     	JP	0E7F0H
1102+ EDFA              ;
1103+ EDFA CD 3E EA     	CALL	0EA3EH
1104+ EDFD 28 07        	JR	Z,$+09	;EE06
1105+ EDFF CD F0 E7     	CALL	0E7F0H
1106+ EE02 3E 01        	LD	A,001H
1107+ EE04 18 F1        	JR	$-13	;EDF7
1108+ EE06 E5           	PUSH	HL
1109+ EE07 C5           	PUSH	BC
1110+ EE08 D5           	PUSH	DE
1111+ EE09 D5           	PUSH	DE
1112+ EE0A CD B0 EA     	CALL	EAB0
1113+ EE0D CD DA EA     	CALL	EADA
1114+ EE10 20 0B        	JR	NZ,$+13	;EE1D
1115+ EE12 CD 20 E9     	CALL	0E920H
1116+ EE15 28 2A        	JR	Z,$+44	;EE41
1117+ EE17 CD BA EA     	CALL	EABA
1118+ EE1A CD DA EA     	CALL	EADA
1119+ EE1D 3D           	DEC	A
1120+ EE1E CD E3 EA     	CALL	EAE3
1121+ EE21 F1           	POP	AF
1122+ EE22 C5           	PUSH	BC
1123+ EE23 46           	LD	B,(HL)
1124+ EE24 EB           	EX	DE,HL
1125+ EE25 70           	LD	(HL),B
1126+ EE26 EB           	EX	DE,HL
1127+ EE27 23           	INC	HL
1128+ EE28 13           	INC	DE
1129+ EE29 B7           	OR	A
1130+ EE2A 28 03        	JR	Z,$+05	;EE2F
1131+ EE2C B8           	CP	B
1132+ EE2D 28 0D        	JR	Z,$+15	;EE3C
1133+ EE2F C1           	POP	BC
1134+ EE30 D5           	PUSH	DE
1135+ EE31 0B           	DEC	BC
1136+ EE32 57           	LD	D,A
1137+ EE33 78           	LD	A,B
1138+ EE34 B1           	OR	C
1139+ EE35 28 0C        	JR	Z,$+14	;EE43
1140+ EE37 7A           	LD	A,D
1141+ EE38 D1           	POP	DE
1142+ EE39 F5           	PUSH	AF
1143+ EE3A 18 D1        	JR	$-45	;EE0D
1144+ EE3C 3E 04        	LD	A,004H
1145+ EE3E C1           	POP	BC
1146+ EE3F 18 03        	JR	$+05	;EE44
1147+ EE41 3E 01        	LD	A,001H
1148+ EE43 D1           	POP	DE
1149+ EE44 CD BA EA     	CALL	EABA
1150+ EE47 D1           	POP	DE
1151+ EE48 C1           	POP	BC
1152+ EE49 E1           	POP	HL
1153+ EE4A 18 AB        	JR	$-83	;EDF7
1154+ EE4C CD 3A EA     	CALL	EA3A
1155+ EE4F 28 03        	JR	Z,$+05	;EE54
1156+ EE51 CD F0 E7     	CALL	0E7F0H
1157+ EE54 C5           	PUSH	BC
1158+ EE55 D5           	PUSH	DE
1159+ EE56 D5           	PUSH	DE
1160+ EE57 CD B0 EA     	CALL	EAB0
1161+ EE5A CD C7 EA     	CALL	0EAC7H
1162+ EE5D 20 09        	JR	NZ,$+11	;EE68
1163+ EE5F CD 57 E9     	CALL	0E957H
1164+ EE62 38 29        	JR	C,$+43	;EE8D
1165+ EE64 AF           	XOR	A
1166+ EE65 CD E3 EA     	CALL	EAE3
1167+ EE68 1A           	LD	A,(DE)
1168+ EE69 77           	LD	(HL),A
1169+ EE6A CD DA EA     	CALL	EADA
1170+ EE6D 3C           	INC	A
1171+ EE6E CD E3 EA     	CALL	EAE3
1172+ EE71 F1           	POP	AF
1173+ EE72 B7           	OR	A
1174+ EE73 28 05        	JR	Z,$+07	;EE7A
1175+ EE75 EB           	EX	DE,HL
1176+ EE76 BE           	CP	(HL)
1177+ EE77 EB           	EX	DE,HL
1178+ EE78 28 0C        	JR	Z,$+14	;EE86
1179+ EE7A 0B           	DEC	BC
1180+ EE7B F5           	PUSH	AF
1181+ EE7C 78           	LD	A,B
1182+ EE7D B1           	OR	C
1183+ EE7E 28 02        	JR	Z,$+04	;EE82
1184+ EE80 18 D8        	JR	$-38	;EE5A
1185+ EE82 F1           	POP	AF
1186+ EE83 AF           	XOR	A
1187+ EE84 18 02        	JR	$+04	;EE88
1188+ EE86 3E 04        	LD	A,004H
1189+ EE88 CD BA EA     	CALL	EABA
1190+ EE8B 18 02        	JR	$+04	;EE8F
1191+ EE8D 3E 01        	LD	A,001H
1192+ EE8F D1           	POP	DE
1193+ EE90 C1           	POP	BC
1194+ EE91 C3 F0 E7     	JP	0E7F0H
1195+ EE94 CD 3A EA     	CALL	EA3A
1196+ EE97 28 03        	JR	Z,$+05	;EE9C
1197+ EE99 CD F0 E7     	CALL	0E7F0H
1198+ EE9C CD DA EA     	CALL	EADA
1199+ EE9F 20 05        	JR	NZ,$+07	;EEA6
1200+ EEA1 CD F2 E8     	CALL	E8F2
1201+ EEA4 28 11        	JR	Z,$+19	;EEB7
1202+ EEA6 3D           	DEC	A
1203+ EEA7 CD E3 EA     	CALL	EAE3
1204+ EEAA CD B0 EA     	CALL	EAB0
1205+ EEAD D5           	PUSH	DE
1206+ EEAE E1           	POP	HL
1207+ EEAF 13           	INC	DE
1208+ EEB0 CD BA EA     	CALL	EABA
1209+ EEB3 56           	LD	D,(HL)
1210+ EEB4 AF           	XOR	A
1211+ EEB5 18 02        	JR	$+04	;EEB9
1212+ EEB7 3E 01        	LD	A,001H
1213+ EEB9 C3 F0 E7     	JP	0E7F0H
1214+ EEBC CD 3E EA     	CALL	0EA3EH
1215+ EEBF 28 05        	JR	Z,$+07	;EEC6
1216+ EEC1 CD F0 E7     	CALL	0E7F0H
1217+ EEC4 18 1F        	JR	$+33	;EEE5
1218+ EEC6 EB           	EX	DE,HL
1219+ EEC7 CD DA EA     	CALL	EADA
1220+ EECA 20 08        	JR	NZ,$+10	;EED4
1221+ EECC CD 20 E9     	CALL	0E920H
1222+ EECF 28 14        	JR	Z,$+22	;EEE5
1223+ EED1 CD DA EA     	CALL	EADA
1224+ EED4 3D           	DEC	A
1225+ EED5 CD E3 EA     	CALL	EAE3
1226+ EED8 CD B0 EA     	CALL	EAB0
1227+ EEDB EB           	EX	DE,HL
1228+ EEDC 72           	LD	(HL),D
1229+ EEDD EB           	EX	DE,HL
1230+ EEDE 13           	INC	DE
1231+ EEDF CD BA EA     	CALL	EABA
1232+ EEE2 AF           	XOR	A
1233+ EEE3 18 02        	JR	$+04	;EEE7
1234+ EEE5 3E 01        	LD	A,001H
1235+ EEE7 C3 F0 E7     	JP	0E7F0H
1236+ EEEA CD 3A EA     	CALL	EA3A
1237+ EEED 28 03        	JR	Z,$+05	;EEF2
1238+ EEEF CD F0 E7     	CALL	0E7F0H
1239+ EEF2 CD C4 EA     	CALL	0EAC4H
1240+ EEF5 20 09        	JR	NZ,$+11	;EF00
1241+ EEF7 CD 57 E9     	CALL	0E957H
1242+ EEFA 38 13        	JR	C,$+21	;EF0F
1243+ EEFC AF           	XOR	A
1244+ EEFD CD E3 EA     	CALL	EAE3
1245+ EF00 1A           	LD	A,(DE)
1246+ EF01 CD BA EA     	CALL	EABA
1247+ EF04 57           	LD	D,A
1248+ EF05 CD DA EA     	CALL	EADA
1249+ EF08 3C           	INC	A
1250+ EF09 CD E3 EA     	CALL	EAE3
1251+ EF0C AF           	XOR	A
1252+ EF0D 18 02        	JR	$+04	;EF11
1253+ EF0F 3E 01        	LD	A,001H
1254+ EF11 C3 F0 E7     	JP	0E7F0H
1255+ EF14              ;
1256+ EF14 3E FF        	LD	A,0FFH
1257+ EF16 F5           	PUSH	AF
1258+ EF17 E5           	PUSH	HL
1259+ EF18 CD DA E9     	CALL	0E9DAH
1260+ EF1B 28 4B        	JR	Z,$+77	;EF68
1261+ EF1D CD D3 E8     	CALL	E8D3
1262+ EF20 38 46        	JR	C,$+72	;EF68
1263+ EF22 CD 01 EA     	CALL	EA01
1264+ EF25 38 41        	JR	C,$+67	;EF68
1265+ EF27 FD 4E 03     	LD	C,(IY+03)
1266+ EF2A 0D           	DEC	C
1267+ EF2B 28 3B        	JR	Z,$+61	;EF68
1268+ EF2D CD D3 E8     	CALL	E8D3
1269+ EF30 38 40        	JR	C,$+66	;EF72
1270+ EF32 E1           	POP	HL
1271+ EF33 FD 7E 06     	LD	A,(IY+06)
1272+ EF36 BE           	CP	(HL)
1273+ EF37 E5           	PUSH	HL
1274+ EF38 20 F0        	JR	NZ,$-14	;EF2A
1275+ EF3A 23           	INC	HL
1276+ EF3B 23           	INC	HL
1277+ EF3C FD E5        	PUSH	IY
1278+ EF3E D1           	POP	DE
1279+ EF3F 06 04        	LD	B,004H
1280+ EF41 1A           	LD	A,(DE)
1281+ EF42 BE           	CP	(HL)
1282+ EF43 23           	INC	HL
1283+ EF44 13           	INC	DE
1284+ EF45 20 E3        	JR	NZ,$-27	;EF2A
1285+ EF47 10 F8        	DJNZ	$-06	;EF41
1286+ EF49 1A           	LD	A,(DE)
1287+ EF4A BE           	CP	(HL)
1288+ EF4B 38 DD        	JR	C,$-33	;EF2A
1289+ EF4D 20 08        	JR	NZ,$+10	;EF57
1290+ EF4F 23           	INC	HL
1291+ EF50 13           	INC	DE
1292+ EF51 1A           	LD	A,(DE)
1293+ EF52 BE           	CP	(HL)
1294+ EF53 38 D5        	JR	C,$-41	;EF2A
1295+ EF55 2B           	DEC	HL
1296+ EF56 1B           	DEC	DE
1297+ EF57 EB           	EX	DE,HL
1298+ EF58 79           	LD	A,C
1299+ EF59 01 02 00     	LD	BC,00002H
1300+ EF5C ED B0        	LDIR
1301+ EF5E 4F           	LD	C,A
1302+ EF5F EB           	EX	DE,HL
1303+ EF60 E1           	POP	HL
1304+ EF61 F1           	POP	AF
1305+ EF62 3E FE        	LD	A,0FEH
1306+ EF64 F5           	PUSH	AF
1307+ EF65 E5           	PUSH	HL
1308+ EF66 18 C2        	JR	$-60	;EF2A
1309+ EF68              ;
1310+ EF68 CD F8 E9     	CALL	E9F8
1311+ EF6B E1           	POP	HL
1312+ EF6C D1           	POP	DE
1313+ EF6D 3E 07        	LD	A,007H
1314+ EF6F C3 F0 E7     	JP	0E7F0H
1315+ EF72 CD F8 E9     	CALL	E9F8
1316+ EF75 E1           	POP	HL
1317+ EF76 F1           	POP	AF
1318+ EF77 16 FF        	LD	D,0FFH
1319+ EF79 18 F2        	JR	$-12	;EF6D
1320+ EF7B 21 41 F2     	LD	HL,0F241H
1321+ EF7E 36 48        	LD	(HL),048H
1322+ EF80 3A 66 F2     	LD	A,(0F266H)
1323+ EF83 5F           	LD	E,A
1324+ EF84 3E 05        	LD	A,005H
1325+ EF86 CD 6E CA     	CALL	0CA6EH
1326+ EF89 36 50        	LD	(HL),050H
1327+ EF8B C3 67 C2     	JP	0C267H
1328+ EF8E EB           	EX	DE,HL
1329+ EF8F CD F3 EA     	CALL	EAF3
1330+ EF92 1E 73        	LD	E,073H
1331+ EF94 23           	INC	HL
1332+ EF95 72           	LD	(HL),D
1333+ EF96 EB           	EX	DE,HL
1334+ EF97 CD DA E9     	CALL	0E9DAH
1335+ EF9A C9           	RET
1336+ EF9B CB 7F        	BIT	7,A
1337+ EF9D CA BB E9     	JP	Z,0E9BBH
1338+ EFA0 CB 67        	BIT	4,A
1339+ EFA2 C0           	RET	NZ
1340+ EFA3 3E 20        	LD	A,020H
1341+ EFA5 C3 BE E9     	JP	0E9BEH
1342+ EFA8 DD 36 00 C0  	LD	(IX+00),0C0H
1343+ EFAC 3E 01        	LD	A,001H
1344+ EFAE C3 C6 E9     	JP	E9C6
1345+ EFB1              ;
1346+ EFB1 FF           	RST	38H
1347+ EFB2 FF           	RST	38H
1348+ EFB3 FF           	RST	38H
1349+ EFB4 FF           	RST	38H
1350+ EFB5 FF           	RST	38H
1351+ EFB6 FF           	RST	38H
1352+ EFB7 FF           	RST	38H
1353+ EFB8 FF           	RST	38H
1354+ EFB9 FF           	RST	38H
1355+ EFBA FF           	RST	38H
1356+ EFBB FF           	RST	38H
1357+ EFBC FF           	RST	38H
1358+ EFBD FF           	RST	38H
1359+ EFBE FF           	RST	38H
1360+ EFBF FF           	RST	38H
1361+ EFC0              ;
1362+ EFC0              ;    PAGE
1363+ EFC0              ;	-----
1364+ EFC0 FE 05        	CP	005H		;PN K0
1365+ EFC2 20 02        	JR	NZ,$+04	;EFC6
1366+ EFC4 CB 9E        	RES	3,(HL)
1367+ EFC6 C3 25 CC     	JP	0CC25H
1368+ EFC9              ;	-----
1369+ EFC9 F3           	DI
1370+ EFCA D3 FC        	OUT	(0FCH),A
1371+ EFCC 77           	LD	(HL),A
1372+ EFCD FB           	EI
1373+ EFCE C9           	RET
1374+ EFCF              ;	-----
1375+ EFCF F3           	DI
1376+ EFD0 D3 FC        	OUT	(0FCH),A
1377+ EFD2 AE           	XOR	(HL)
1378+ EFD3 FB           	EI
1379+ EFD4 C9           	RET
1380+ EFD5              ;	-----
1381+ EFD5 F3           	DI
1382+ EFD6 CD 66 F2     	CALL	0F266H
1383+ EFD9 FB           	EI
1384+ EFDA C9           	RET
1385+ EFDB              ;	-----
1386+ EFDB F3           	DI
1387+ EFDC 78           	LD	A,B
1388+ EFDD E6 04        	AND	004H
1389+ EFDF C9           	RET
1390+ EFE0              ;	-----
1391+ EFE0 3A 6B F2     	LD	A,(0F26BH)
1392+ EFE3 FB           	EI
1393+ EFE4 C9           	RET
1394+ EFE5              ;	-----
1395+ EFE5 F3           	DI
1396+ EFE6 20 02        	JR	NZ,$+04	;EFEA
1397+ EFE8 D3 FC        	OUT	(0FCH),A
1398+ EFEA 72           	LD	(HL),D
1399+ EFEB FB           	EI
1400+ EFEC C9           	RET
1401+ EFED              ;	-----
1402+ EFED              EFED:
1403+ EFED CD 81 E8     	CALL	E881
1404+ EFF0 C3 09 C9     	JP	0C909H
1405+ EFF3 CD 81 E8     	CALL	E881
1406+ EFF6 C3 1A C9     	JP	0C91AH
1407+ EFF9              ;	-----
1408+ EFF9 21 D5 F2     	LD	HL,0F2D5H
1409+ EFFC C3 73 B5     	JP	0B573H
1410+ EFFF              ;	-----
1411+ EFFF FF           	RST	38H
1412+ F000 FF           	RST	38H
1413+ F001 FF           	RST	38H
1414+ F002 FF           	RST	38H
1415+ F003 FF           	RST	38H
1416+ F004 FF           	RST	38H
1417+ F005 FF           	RST	38H
1418+ F006 FF           	RST	38H
1419+ F007 FF           	RST	38H
1420+ F008 FF           	RST	38H
1421+ F009 FF           	RST	38H
1422+ F00A FF           	RST	38H
1423+ F00B FF           	RST	38H
1424+ F00C FF           	RST	38H
1425+ F00D FF           	RST	38H
1426+ F00E FF           	RST	38H
1427+ F00F FF           	RST	38H
1428+ F010 FF           	RST	38H
1429+ F011              ;
1430+ F011              ENDE4 EQU $
1431+ F011
# file closed: incVERB.MAC
  50  F011
  51  F011              	; TITLE ''
  52  F011              	END
# file closed: s3.MAC
