'Unterprogramme'	MACRO-80 3.44	09-Dec-81	PAGE	1


                                ;--------------------------\            ; Vorspann fuer BIN-Datei
  0000*   EF                                DB      0EFH                ; Startbyte ---> 
  0001*                                     DS      12,0
  000D*   02                                DB      002H                ; HS-Bereich : 2
  000E*   9000                              DW      09000H              ; Ladeadresse: 9000H
                                ;--------------------------/
                                
                         C                  INCLUDE S21EQU1.MAC
  00E0                   C      S0.PROM     EQU     0E0H
  0050                   C      S0.SPANZ    EQU     80
  0018                   C      S0.ZANZ     EQU     24
  A000                   C      S0.BWSA     EQU     0A000H
                         C      ;
  B18A                   C      MS.ZPOL     EQU     0B18AH
  B18B                   C      MS.SPOL     EQU     0B18BH
  B18C                   C      MS.ZPOS     EQU     0B18CH
  B18D                   C      MS.SPOS     EQU     0B18DH
  B18E                   C      MS.ZMIN     EQU     0B18EH
  B190                   C      MS.ZMAX     EQU     0B190H
  B197                   C      MS.DIRES    EQU     0B197H
  B198                   C      MS.CMD      EQU     0B198H
  B199                   C      MS.TK       EQU     0B199H
  B19A                   C      MS.RADR     EQU     0B19AH
  B19C                   C      MS.MCZ      EQU     0B19CH
  B19D                   C      MS.MCUR     EQU     0B19DH
  B19E                   C      MS.CZEIT    EQU     0B19EH
                         C      ;
  B19F                   C      TS.TAB1     EQU     0B19FH
  B1FF                   C      TS.TAB2     EQU     0B1FFH
  B217                   C      TS.TAB3     EQU     0B217H
  B223                   C      TS.TAB4     EQU     0B223H
  B22D                   C      TS.EINA     EQU     0B22DH
  B22F                   C      TS.TABU     EQU     0B22FH
  B231                   C      TS.NEWL     EQU     0B231H
  B233                   C      TS.TAB5     EQU     0B233H
  B23B                   C      TS.PTAST    EQU     0B23BH
  B23C                   C      TS.TK       EQU     0B23CH
  B23D                   C      TS.PTK      EQU     0B23DH
  B23E                   C      TS.EMERK    EQU     0B23EH
  B23F                   C      TS.SPMER    EQU     0B23FH
  B240                   C      TS.UMERK    EQU     0B240H
  B241                   C      TS.KGMER    EQU     0B241H
  B242                   C      TS.ZSMER    EQU     0B242H
  B243                   C      TS.ZEIT1    EQU     0B243H
  B244                   C      TS.ZEIT2    EQU     0B244H
  B245                   C      TS.ZEI21    EQU     0B245H
  B246                   C      TS.ZSTC     EQU     0B246H
  B247                   C      TS.MIO      EQU     0B247H
  B248                   C      TS.MBF      EQU     0B248H
  B249                   C      TS.BFOL1    EQU     0B249H
  B24B                   C      TS.BFOL2    EQU     0B24BH
                         C      ;
  B26E                   C      S2.AADR     EQU     0B26EH
  B270                   C      S2.KADR     EQU     0B270H
  B272                   C      S2.ZP       EQU     0B272H
  B273                   C      S2.SP1      EQU     0B273H
  B274                   C      S2.SP2      EQU     0B274H
  B275                   C      S2.SP3      EQU     0B275H
  B28A                   C      S2.AFOR     EQU     0B28AH
  B28B                   C      S2.BZ       EQU     0B28BH
  B28C                   C      S2.TE       EQU     0B28CH
  B28E                   C      S2.DL       EQU     0B28EH
'Unterprogramme'	MACRO-80 3.44	09-Dec-81	PAGE	1-1


  B28F                   C      S2.DH       EQU     0B28FH
  B290                   C      S2.PAR1     EQU     0B290H
  B29A                   C      S2.DM1      EQU     0B29AH
                         C      ;
                         C                  INCLUDE S21EQU2.MAC
  CB10                   C      MO.MONI     EQU     0CB10H
  CB3F                   C      MO.BWSUS    EQU     0CB3FH
  CD99                   C      MO.ROLL     EQU     0CD99H
                         C      
  C114                   C      S1.SYSTB    EQU     0C114H
  C2B4                   C      S1.CNRS     EQU     0C2B4H
  C2D3                   C      S1.CNLS     EQU     0C2D3H
  C328                   C      S1.AEIN     EQU     0C328H
  C334                   C      S1.NN       EQU     0C334H
  C345                   C      S1.NNN      EQU     0C345H
  C3BF                   C      S1.ANZEI    EQU     0C3BFH
  C532                   C      S1.INPTR    EQU     0C532H
  C54E                   C      S1.HDI      EQU     0C54EH
  C592                   C      S1.IDH      EQU     0C592H
  C5CC                   C      S1.HBKON    EQU     0C5CCH
  C5FF                   C      S1.BHKON    EQU     0C5FFH
                         C      
  D408                   C      TA.LOE      EQU     0D408H
                         C      
  E657                   C      S9.CIN      EQU     0E657H
  E68B                   C      S9.CSTSX    EQU     0E68BH
  E6A6                   C      S9.CON      EQU     0E6A6H
  EE58                   C      S9.SAVE     EQU     0EE58H
  EE78                   C      S9.LOAD     EQU     0EE78H
                                
                                            .PHASE  09000H
                                ;           PN      D010
                                ;****************************************************************
                                ;*	             D  E  B  U  G   ---   Steuerprogramm           *
                                ;*  Version      -----------------------------------------------*
                                ;*               Programmierer: Marcus Herbote   --- IfR - OE-S *
                                ;*  V 1 . 0      -----------------------------------------------*
                                ;                Stand        : 11.Januar 1983                  *
                                ;****************************************************************
  9000    18 1A                             JR      D0.DD
  9002    56 31 2E 30                       DB      'V1.0/110183'
  9006    2F 31 31 30           
  900A    31 38 33              
  900D    900D                              DW      $
  900F    44 42 55 47                       DB      'DBUG'
  9013    F3                                DI
  9014    3E 05                             LD      A,5                 ;Zeile 1 bis 22 loeschen
  9016    32 B198                           LD      (MS.CMD),A
  9019    CD CB10                           CALL    MO.MONI
  901C    3E 02                 D0.DD:      LD      A,2
  901E    32 B198                           LD      (MS.CMD),A
  9021    CD CB10                           CALL    MO.MONI
  9024    21 9181                           LD      HL,D0.DDPTB-4       ;Anzeige der aktiven P-Tasten
  9027    11 9099                           LD      DE,D0.DDPT
  902A    01 0024                           LD      BC,36
  902D    CD 9C00                           CALL    D0.TA02
  9030    21 0000                           LD      HL,0                ;ZPOS = 0 , SPOS = 0
  9033    22 B18C                           LD      (MS.ZPOS),HL
  9036    06 29                             LD      B,41
  9038    21 9040                           LD      HL,$+8
  903B    CD CB10                           CALL    MO.MONI             ;Anzeige der DEBUG-Version
  903E    18 28                             JR      DD1                 ;$+43
'Unterprogramme'	MACRO-80 3.44	09-Dec-81	PAGE	1-2


  9040    44 45 42 55                       DB      'DEBUG --- Version 1.0     '
  9044    47 20 2D 2D           
  9048    2D 20 56 65           
  904C    72 73 69 6F           
  9050    6E 20 31 2E           
  9054    30 20 20 20           
  9058    20 20                 
  905A    41 75 73 77                       DB      'Auswahlanzeige'
  905E    61 68 6C 61           
  9062    6E 7A 65 69           
  9066    67 65                 
  9068    3E 14                 DD1:        LD      A,20
  906A    32 B198                           LD      (MS.CMD),A
  906D    21 3412                           LD      HL,03412H           ;ZPOS = 18 , SPOS = 52
  9070    01 1A02                           LD      BC,01A02H           ;Laenge:26 , Breite: 2
  9073    CD 98A3                           CALL    D0.DDU18            ;Fensterrahmen fuer Eingabebereich aufb.
  9076    21 4014                           LD      HL,04014H           ;ZMIN = 20 , SMIN = 64
  9079    22 B18E                           LD      (MS.ZMIN),HL
  907C    21 4F15                           LD      HL,04F15H           ;ZMAX = 21 , SMAX = 79
  907F    22 B190                           LD      (MS.ZMAX),HL
  9082    21 3513                           LD      HL,03513H           ;ZPOS = 19 , SPOS = 53
  9085    22 B18C                           LD      (MS.ZPOS),HL
  9088    3E C0                             LD      A,0C0H
  908A    32 B197                           LD      (MS.DIRES),A
  908D    21 C114                           LD      HL,S1.SYSTB         ;SYS - Taste
  9090    22 B21D                           LD      (TS.TAB3+6),HL
  9093    3E 80                             LD      A,080H              ;Funktionstasten aktivieren
  9095    32 B23F                           LD      (TS.SPMER),A
  9098    C9                                RET
                                            TITLE    'Tastaturtabellen'
                                            PAGE
'Tastaturtabellen'	MACRO-80 3.44	09-Dec-81	PAGE	1-3


                                
                                ;****************************************************************
                                ;*	                     Tastaturtabellen                       *
                                ;****************************************************************
  9099    93C6                  D0.DDPT:    DW      D0.MEDC
  909B    9660                              DW      D0.RCDC
  909D    9661                              DW      D0.RGDC
  909F    9660                              DW      D0.LOAD
  90A1    9660                              DW      D0.SAVE
  90A3    9661                              DW      D0.UCPU
  90A5    95E8                              DW      D0.RAMT
  90A7    940B                              DW      D0.ROMT
  90A9    9660                              DW      D0.REAS
  90AB    0000                              DW      0
  90AD    9527                              DW      D0.PROM
  90AF    0000                              DW      0
  90B1    924F                              DW      D0.IN
  90B3    92B5                              DW      D0.OUT
  90B5    0000                              DW      0
  90B7    931F                              DW      D0.ADD
  90B9    9375                              DW      D0.SUB
                                ;            
  90BB    9BDA                  D0.DDPT2:   DW      D0.AW
  90BD    9BDA                              DW      D0.AW
  90BF    9BDA                              DW      D0.AW
  90C1    9BDA                              DW      D0.AW
  90C3    9BDA                              DW      D0.AW
                                ;
  90C5    48 65 78 61           D0.DDPT3:   DB      'HexaDeziOct Bin Alfa----'
  90C9    44 65 7A 69           
  90CD    4F 63 74 20           
  90D1    42 69 6E 20           
  90D5    41 6C 66 61           
  90D9    2D 2D 2D 2D           
  90DD    2D 2D 2D 2D                       DB      '------------------------'
  90E1    2D 2D 2D 2D           
  90E5    2D 2D 2D 2D           
  90E9    2D 2D 2D 2D           
  90ED    2D 2D 2D 2D           
  90F1    2D 2D 2D 2D           
  90F5    2D 2D 2D 2D                       DB      '------------------------'
  90F9    2D 2D 2D 2D           
  90FD    2D 2D 2D 2D           
  9101    2D 2D 2D 2D           
  9105    2D 2D 2D 2D           
  9109    2D 2D 2D 2D           
  910D    2D 2D 2D 2D                       DB      '------------------------'
  9111    2D 2D 2D 2D           
  9115    2D 2D 2D 2D           
  9119    2D 2D 2D 2D           
  911D    2D 2D 2D 2D           
  9121    2D 2D 2D 2D           
  9125    2D 2D 2D 2D                       DB      '------------------------'
  9129    2D 2D 2D 2D           
  912D    2D 2D 2D 2D           
  9131    2D 2D 2D 2D           
  9135    2D 2D 2D 2D           
  9139    2D 2D 2D 2D           
  913D    2D 2D 2D 2D                       DB      '------------------------'
  9141    2D 2D 2D 2D           
  9145    2D 2D 2D 2D           
'Tastaturtabellen'	MACRO-80 3.44	09-Dec-81	PAGE	1-4


  9149    2D 2D 2D 2D           
  914D    2D 2D 2D 2D           
  9151    2D 2D 2D 2D           
  9155    2D 2D 2D 2D                       DB      '------------------------'
  9159    2D 2D 2D 2D           
  915D    2D 2D 2D 2D           
  9161    2D 2D 2D 2D           
  9165    2D 2D 2D 2D           
  9169    2D 2D 2D 2D           
  916D    2D 2D 2D 2D                       DB      '------------------------'
  9171    2D 2D 2D 2D           
  9175    2D 2D 2D 2D           
  9179    2D 2D 2D 2D           
  917D    2D 2D 2D 2D           
  9181    2D 2D 2D 2D           
                                ;
  9185    4D 65 44 43           D0.DDPTB:   DB      'MeDCRcDCRgDCLOADSAVEuCPU'
  9189    52 63 44 43           
  918D    52 67 44 43           
  9191    4C 4F 41 44           
  9195    53 41 56 45           
  9199    75 43 50 55           
  919D    52 41 4D 54                       DB      'RAMTROMTREAS----PROM----'
  91A1    52 4F 4D 54           
  91A5    52 45 41 53           
  91A9    2D 2D 2D 2D           
  91AD    50 52 4F 4D           
  91B1    2D 2D 2D 2D           
  91B5    49 4E 20 20                       DB      'IN  OUT ----ADD SUB ----'
  91B9    4F 55 54 20           
  91BD    2D 2D 2D 2D           
  91C1    41 44 44 20           
  91C5    53 55 42 20           
  91C9    2D 2D 2D 2D           
  91CD    2D 2D 2D 2D                       DB      '------------------------'
  91D1    2D 2D 2D 2D           
  91D5    2D 2D 2D 2D           
  91D9    2D 2D 2D 2D           
  91DD    2D 2D 2D 2D           
  91E1    2D 2D 2D 2D           
  91E5    2D 2D 2D 2D                       DB      '------------------------'
  91E9    2D 2D 2D 2D           
  91ED    2D 2D 2D 2D           
  91F1    2D 2D 2D 2D           
  91F5    2D 2D 2D 2D           
  91F9    2D 2D 2D 2D           
  91FD    2D 2D 2D 2D                       DB      '------------------------'
  9201    2D 2D 2D 2D           
  9205    2D 2D 2D 2D           
  9209    2D 2D 2D 2D           
  920D    2D 2D 2D 2D           
  9211    2D 2D 2D 2D           
  9215    2D 2D 2D 2D                       DB      '------------------------'
  9219    2D 2D 2D 2D           
  921D    2D 2D 2D 2D           
  9221    2D 2D 2D 2D           
  9225    2D 2D 2D 2D           
  9229    2D 2D 2D 2D           
  922D    2D 2D 2D 2D                       DB      '------------------------'
  9231    2D 2D 2D 2D           
  9235    2D 2D 2D 2D           
  9239    2D 2D 2D 2D           
'Tastaturtabellen'	MACRO-80 3.44	09-Dec-81	PAGE	1-5


  923D    2D 2D 2D 2D           
  9241    2D 2D 2D 2D           
                                
                                            TITLE   'Funktion : IN '
                                            PAGE
'Funktion : IN '	MACRO-80 3.44	09-Dec-81	PAGE	1-6


                                
                                ;****************************************************************
                                ;*	                     D E B U G   -   Funktion :  IN         *
                                ;****************************************************************
  9245    49 4E 20 2D           D0.TIN1:    DB      'IN -Adr '
  9249    41 64 72 20           
  924D    3A 20                 D0.TPQ:     DB      ': '
  924F    CD 9C1D               D0.IN:      CALL    D0.TA03
  9252    21 9272                           LD      HL,D0.INPQ
  9255    11 9245                           LD      DE,D0.TIN1
                                ;            
  9258    22 B223               D0.IN1:     LD      (TS.TAB4),HL
  925B    ED 53 B28C                        LD      (S2.TE),DE
  925F    21 0000                           LD      HL ,0
  9262    22 B28E               D0.IN2:     LD      (S2.DL),HL
  9265    CD 9AA6                           CALL    D0.AL
  9268    CD 9BE7                           CALL    D0.TA01
  926B    21 901C                           LD      HL,D0.DD
  926E    22 B21D                           LD      (TS.TAB3+6),HL
  9271    C9                                RET
                                ;
                                ;
                                ;
  9272    06 08                 D0.INPQ:    LD      B,8
  9274    21 9245                           LD      HL,D0.TIN1
  9277    CD 9710                           CALL    D0.PQ14
  927A    21 B18D                           LD      HL,MS.SPOS
  927D    34                                INC     (HL)
  927E    34                                INC     (HL)
  927F    06 08                             LD      B,8
  9281    21 92AD                           LD      HL,D0.TIO1
  9284    CD CB10                           CALL    MO.MONI
  9287    06 02                             LD      B,2
  9289    21 924D                           LD      HL,D0.TPQ
  928C    CD CB10                           CALL    MO.MONI
                                ;
  928F    ED 4B B290                        LD      BC,(S2.PAR1)
  9293    ED 78                             IN      A,(C)
                                ;
  9295    21 B29A                           LD      HL,S2.DM1
  9298    CD C5FF                           CALL    S1.BHKON
  929B    06 02                             LD      B,2
  929D    21 B29A                           LD      HL,S2.DM1
  92A0    CD CB10                           CALL    MO.MONI
  92A3    18 AA                             JR      D0.IN
                                
                                            TITLE   'Funktion :   OUT '
                                            PAGE
'Funktion :   OUT '	MACRO-80 3.44	09-Dec-81	PAGE	1-7


                                
                                ;****************************************************************
                                ;*	                     D E B U G   -   Funktion :  OUT        *
                                ;****************************************************************
  92A5    4F 55 54 2D           D0.TOUT1:   DB      'OUT-Adr '
  92A9    41 64 72 20           
  92AD    44 61 74 65           D0.TIO1:    DB      'Daten   '
  92B1    6E 20 20 20           
  92B5    CD 9C1D               D0.OUT:     CALL    D0.TA03
  92B8    21 92C0                           LD      HL,D0.OUPQ1
  92BB    11 92A5                           LD      DE,D0.TOUT1
  92BE    18 98                 D0.OUT1:    JR	    D0.IN1
                                ;
                                ;
                                ;
  92C0    06 08                 D0.OUPQ1:   LD      B,8
  92C2    21 92A5                           LD      HL,D0.TOUT1
  92C5    CD 9710                           CALL    D0.PQ14
  92C8    21 92E7                           LD      HL,D0.OUPQ2
  92CB    11 92AD                           LD      DE,D0.TIO1
  92CE    22 B223                           LD      (TS.TAB4),HL
  92D1    ED 53 B28C                        LD      (S2.TE),DE
  92D5    21 0000                           LD      HL,0
  92D8    22 B28E                           LD      (S2.DL),HL
  92DB    AF                                XOR     A
  92DC    32 B28A                           LD      (S2.AFOR),A
  92DF    3C                                INC     A
  92E0    32 B28B                           LD      (S2.BZ),A
  92E3    CD 9AA6                           CALL    D0.AL
  92E6    C9                                RET
                                ;
                                ;
                                ;
  92E7    CD 9A05               D0.OUPQ2:   CALL    D0.AS               ;ZPOS = 10 , SPOS = 16
  92EA    21 100A                           LD      HL,0100AH	
  92ED    CD 98C6                           CALL    D0.DDU19	
  92F0    06 08                             LD      B,8	
  92F2    21 92AD                           LD      HL,D0.TIO1	
  92F5    CD CB10                           CALL    MO.MONI	
  92F8    06 02                             LD      B,2	
  92FA    21 924D                           LD      HL,D0.TPQ	
  92FD    CD CB10                           CALL    MO.MONI
  9300    CD 9C4B                           CALL    D0.AH1
                                ;
  9303    ED 4B B290                        LD      BC,(S2.PAR1)
  9307    3A B28E                           LD      A,(S2.DL)
  930A    ED 79                             OUT     (C),A
                                ;
  930C    18 A7                             JR      D0.OUT
                                
                                            TITLE   'Funktion :   ADD '
                                            PAGE
'Funktion :   ADD '	MACRO-80 3.44	09-Dec-81	PAGE	1-8


                                
                                ;****************************************************************
                                ;*	                     D E B U G   -   Funktion :  ADD        *
                                ;****************************************************************
  930E    41 44 44 20           D0.TAD1:    DB      'ADD    A'
  9312    20 20 20 41           
  9316    41 44 44 20           D0.TAD2:    DB      'ADD   +B='
  931A    20 20 2B 42           
  931E    3D                    
  931F    CD 9C1D               D0.ADD:     CALL    D0.TA03
  9322    21 932A                           LD      HL,D0.ADPQ1
  9325    11 930E                           LD      DE,D0.TAD1
  9328    18 94                 D0.ADD1:    JR      D0.OUT1
                                ;
                                ;
                                ;
  932A    06 07                 D0.ADPQ1:   LD      B,7
  932C    21 930E                           LD      HL,D0.TAD1
  932F    CD 9710                           CALL    D0.PQ14
  9332    06 01                             LD      B,1
  9334    21 931C                           LD      HL,D0.TAD2+6
  9337    CD CB10                           CALL    MO.MONI
  933A    21 9342                           LD      HL,D0.ADPQ2
  933D    11 9316                           LD      DE,D0.TAD2
  9340    18 E6                             JR      D0.ADD1
                                ;
                                ;
                                ;
  9342    CD 9A05               D0.ADPQ2:   CALL    D0.AS               ;ZPOS = 10 , SPOS = 14
  9345    21 0E0A                           LD      HL,00E0AH
  9348    CD 98C6                           CALL    D0.DDU19
  934B    CD 9C5D                           CALL    D0.AH2
  934E    06 01                             LD      B,1
  9350    21 931E                           LD      HL,D0.TAD2+8
  9353    CD CB10                           CALL    MO.MONI
                                ;
  9356    2A B290                           LD      HL,(S2.PAR1)
  9359    ED 5B B28E                        LD      DE,(S2.DL)
  935D    19                                ADD     HL,DE
  935E    22 B28E                           LD      (S2.DL),HL
                                ;
  9361    CD 9C5D                           CALL    D0.AH2
  9364    18 B9                             JR      D0.ADD
                                
                                            TITLE   'Funktion :   SUB '
                                            PAGE
'Funktion :   SUB '	MACRO-80 3.44	09-Dec-81	PAGE	1-9


                                
                                ;****************************************************************
                                ;*	                     D E B U G   -   Funktion :  SUB        *
                                ;****************************************************************
  9366    53 55 42 20           D0.TSB1:    DB      'SUB     A'
  936A    20 20 20 20           
  936E    41                    
  936F    53 55 42 09           D0.TSB2:    DB      'SUB	-B'
  9373    2D 42                 
  9375    CD 9C1D               D0.SUB:     CALL    D0.TA03
  9378    21 9380                           LD      HL,D0.SBPQ1
  937B    11 9366                           LD      DE,D0.TSB1
  937E    18 A8                 D0.SUB1:    JR      D0.ADD1
                                ;
                                ;
                                ;
  9380    06 07                 D0.SBPQ1:   LD      B,7
  9382    21 9366                           LD      HL,D0.TSB1
  9385    CD 9710                           CALL    D0.PQ14
  9388    06 01                             LD      B,1
  938A    21 9375                           LD      HL,D0.TSB2+6
  938D    CD CB10                           CALL    MO.MONI
  9390    21 9398                           LD      HL,D0.SBPQ2
  9393    11 936F                           LD      DE,D0.TSB2
  9396    18 E6                             JR      D0.SUB1
                                ;
                                ;
                                ;
  9398    CD 9A05               D0.SBPQ2:   CALL    D0.AS
  939B    21 0E0A                           LD      HL,00E0AH           ;ZPOS = 10 , SPOS = 14
  939E    CD 98C6                           CALL    D0.DDU19
  93A1    CD 9C5D                           CALL    D0.AH2
  93A4    06 01                             LD      B,1
  93A6    21 931E                           LD      HL,D0.TAD2+8
  93A9    CD CB10                           CALL    MO.MONI
                                ;
  93AC    2A B290                           LD      HL,(S2.PAR1)
  93AF    ED 5B B28E                        LD      DE,(S2.DL)
  93B3    AF                                XOR     A
  93B4    ED 52                             SBC     HL,DE
  93B6    22 B28E                           LD      (S2.DL),HL
                                ;
  93B9    CD 9C5D                           CALL    D0.AH2
  93BC    18 B7                             JR      D0.SUB
                                
                                            TITLE   'Funktionen :   MeDC und ROMT '
                                            PAGE
'Funktionen :   MeDC und ROMT '	MACRO-80 3.44	09-Dec-81	PAGE	1-10


                                
                                ;****************************************************************
                                ;*	                     D E B U G   -   Funktion :  MeDC       *
                                ;****************************************************************
  93BE    41 6E 66 2E           D0.TME:     DB      'Anf.Adr.'
  93C2    41 64 72 2E           
  93C6    CD 9C1D               D0.MEDC:    CALL    D0.TA03
  93C9    21 93D1                           LD      HL,D0.MEPQ
  93CC    11 93BE                           LD      DE,D0.TME
  93CF    18 AD                 D0.MEDC1:   JR      D0.SUB1
                                ;
                                ;
                                ;
  93D1    CD 9A05               D0.MEPQ:    CALL    D0.AS
  93D4    3E 02                             LD      A,2                 ;Zeile  1 bis 22  loeschen            
  93D6    32 B198                           LD      (MS.CMD),A
  93D9    CD CB10                           CALL    MO.MONI
  93DC    3E 05                             LD      A,5
  93DE    32 B198                           LD      (MS.CMD),A	
  93E1    CD CB10                           CALL    MO.MONI
  93E4    ED 5B B28E                        LD      DE,(S2.DL)          ;DE <== Anfangsadresse fuer MEMO           
  93E8    3E 01                             LD      A,1
                                            ;JP      D1.MEMO             ;???
  93EA    76                                HALT
                                
                                ;****************************************************************
                                ;*	                     D E B U G   -   Funktion :  ROMT       *
                                ;****************************************************************
  93EB    52 4F 4D 2D           D0.RT1:     DB      'ROM-Anf.'
  93EF    41 6E 66 2E           
  93F3    52 4F 4D 2D           D0.RT2:     DB      'ROM-Byte'
  93F7    42 79 74 65           
  93FB    20 20 4B 6F           D0.RT3:     DB      '  Kontrollsume: '
  93FF    6E 74 72 6F           
  9403    6C 6C 73 75           
  9407    6D 65 3A 20           
  940B    CD 9C1D               D0.ROMT:    CALL    D0.TA03
  940E    21 9416                           LD      HL,D0.RTPQ1
  9411    11 93EB                           LD      DE,D0.RT1
  9414    18 B9                 D0.ROM1:    JR      D0.MEDC1
                                ;
                                ;
                                ;
  9416    06 08                 D0.RTPQ1:   LD      B,8
  9418    21 93EB                           LD      HL,D0.RT1
  941B    CD 9710                           CALL    D0.PQ14
  941E    21 9431                           LD      HL,D0.RTPQ2
  9421    11 93F3                           LD      DE,D0.RT2
  9424    22 B223                           LD      (TS.TAB4),HL
  9427    ED 53 B28C                        LD      (S2.TE),DE
  942B    21 0400                           LD      HL,00400H
  942E    C3 9262                           JP      D0.IN2
                                ;
                                ;
                                ;
  9431    CD 9A05               D0.RTPQ2:   CALL    D0.AS
  9434    21 0F0A                           LD      HL,00F0AH           ;ZPOS = 10 , SPOS = 15
  9437    CD 98C6                           CALL    D0.DDU19
  943A    06 08                             LD      B,8
  943C    21 93F3                           LD      HL,D0.RT2
  943F    CD CB10                           CALL    MO.MONI
'Funktionen :   MeDC und ROMT '	MACRO-80 3.44	09-Dec-81	PAGE	1-11


  9442    06 02                             LD      B,2
  9444    21 924D                           LD      HL,D0.TPQ
  9447    CD CB10                           CALL    MO.MONI
  944A    CD 9C5D                           CALL    D0.AH2
  944D    2A B290                           LD      HL,(S2.PAR1)
  9450    ED 4B B28E                        LD      BC,(S2.DL)
  9454    CD 966B                           CALL    D0.CHK
  9457    18 B2                             JR      D0.ROMT
                                
                                            TITLE   'Funktion :   PROM '
                                            PAGE
'Funktion :   PROM '	MACRO-80 3.44	09-Dec-81	PAGE	1-12


                                
                                ;****************************************************************
                                ;*	                     D E B U G   -   Funktion :  PROM       *
                                ;****************************************************************
  9459    50 52 4F 4D           D0.PR1:     DB      'PROMAnf.'
  945D    41 6E 66 2E           
  9461    4B 6F 6E 74           D0.PRT1:    DB      'KontLiesProg------------'
  9465    4C 69 65 73           
  9469    50 72 6F 67           
  946D    2D 2D 2D 2D           
  9471    2D 2D 2D 2D           
  9475    2D 2D 2D 2D           
  9479    2D 2D 2D 2D                       DB      '------------------------'
  947D    2D 2D 2D 2D           
  9481    2D 2D 2D 2D           
  9485    2D 2D 2D 2D           
  9489    2D 2D 2D 2D           
  948D    2D 2D 2D 2D           
  9491    2D 2D 2D 2D                       DB      '------------------------'
  9495    2D 2D 2D 2D           
  9499    2D 2D 2D 2D           
  949D    2D 2D 2D 2D           
  94A1    2D 2D 2D 2D           
  94A5    2D 2D 2D 2D           
  94A9    2D 2D 2D 2D                       DB      '------------------------'
  94AD    2D 2D 2D 2D           
  94B1    2D 2D 2D 2D           
  94B5    2D 2D 2D 2D           
  94B9    2D 2D 2D 2D           
  94BD    2D 2D 2D 2D           
  94C1    2D 2D 2D 2D                       DB      '------------------------'
  94C5    2D 2D 2D 2D           
  94C9    2D 2D 2D 2D           
  94CD    2D 2D 2D 2D           
  94D1    2D 2D 2D 2D           
  94D5    2D 2D 2D 2D           
  94D9    2D 2D 2D 2D                       DB      '------------------------'
  94DD    2D 2D 2D 2D           
  94E1    2D 2D 2D 2D           
  94E5    2D 2D 2D 2D           
  94E9    2D 2D 2D 2D           
  94ED    2D 2D 2D 2D           
  94F1    2D 2D 2D 2D                       DB      '------------------------'
  94F5    2D 2D 2D 2D           
  94F9    2D 2D 2D 2D           
  94FD    2D 2D 2D 2D           
  9501    2D 2D 2D 2D           
  9505    2D 2D 2D 2D           
  9509    2D 2D 2D 2D                       DB      '------------------------'
  950D    2D 2D 2D 2D           
  9511    2D 2D 2D 2D           
  9515    2D 2D 2D 2D           
  9519    2D 2D 2D 2D           
  951D    2D 2D 2D 2D           
  9521    9545                  D0.PRT2:    DW      D0.PRK
  9523    9579                              DW      D0.PRL
  9525    95B1                              DW      D0.PRP
  9527    21 945D               D0.PROM:    LD      HL,D0.PRT1-4
  952A    11 9521                           LD      DE,D0.PRT2
  952D    01 0006                           LD      BC,6            
  9530    CD 9C26                           CALL    D0.TA04
'Funktion :   PROM '	MACRO-80 3.44	09-Dec-81	PAGE	1-13


  9533    21 0000                           LD      HL,0
  9536    22 B18C                           LD      (MS.ZPOS),HL
  9539    21 901C                           LD      HL,D0.DD
  953C    22 B21D                           LD      (TS.TAB3+6),HL
  953F    3E 80                             LD      A,080H
  9541    32 B23F                           LD      (TS.SPMER),A
  9544    C9                                RET
                                ;
                                ;
                                ;            
  9545    CD 96A4               D0.PRK:     CALL    D0.PRUP1            ;EPROM - Kontrollieren
  9548    CD 96B1               D0.PRK1:    CALL    D0.PRUP2
  954B    20 15                             JR      NZ,D0.PRF
  954D    3C                                INC     A
  954E    20 12                             JR      NZ,D0.PRF
  9550    13                                INC     DE
  9551    CB 52                             BIT     2,D
  9553    28 F3                             JR      Z,D0.PRK1
                                ;
  9555    AF                    D0.PRR:     XOR     A                   ;Ende des PROM - Programmteiles
  9556    D3 E1                             OUT     (S0.PROM+1),A
  9558    18 CD                             JR      D0.PROM
                                ;
  955A    46 65 68 6C           D0.PRF1:    DB      'Fehler: '
  955E    65 72 3A 20           
  9562    21 000A               D0.PRF:     LD      HL,0000AH           ;Fehler anzeigen
  9565    ED 53 B28E                        LD      (S2.DL),DE
  9569    CD 98C6                           CALL    D0.DDU19
  956C    06 08                             LD      B,8
  956E    21 955A                           LD      HL,D0.PRF1
  9571    CD CB10                           CALL    MO.MONI
  9574    CD 9C5D                           CALL    D0.AH2
  9577    18 DC                             JR      D0.PRR
                                
                                            PAGE
'Funktion :   PROM '	MACRO-80 3.44	09-Dec-81	PAGE	1-14


                                
  9579    CD 9C1D               D0.PRL:     CALL    D0.TA03             ;EPROM - lesen
  957C    21 9585                           LD      HL,D0.PRPQ1
  957F    11 9459                           LD      DE,D0.PR1
  9582    C3 9258               D0.PRL1:    JP      D0.IN1
                                ;
  9585    06 08                 D0.PRPQ1:   LD      B,8
  9587    21 9459                           LD      HL,D0.PR1
  958A    CD 9710                           CALL    D0.PQ14
  958D    2A B28E                           LD      HL,(S2.DL)
  9590    CD 96A4                           CALL    D0.PRUP1
  9593    CD 96B1               D0.PRL2:    CALL    D0.PRUP2
  9596    20 CA                             JR      NZ,D0.PRF
  9598    77                                LD      (HL),A
  9599    BE                                CP      (HL)
  959A    20 DD                             JR      NZ,D0.PRL
  959C    23                                INC     HL
  959D    13                                INC     DE
  959E    CB 52                             BIT     2,D
  95A0    28 F1                             JR      Z,D0.PRL2
  95A2    01 0400                           LD      BC,00400H
  95A5    2A B28E                           LD      HL,(S2.DL)
  95A8    CD 966B                           CALL    D0.CHK
  95AB    18 A8                             JR      D0.PRR
                                ;            
  95AD    E5                    D0.PRL3:    PUSH    HL
  95AE    D1                                POP     DE
  95AF    18 B1                             JR      D0.PRF
                                ;
                                ;
                                ;
  95B1    CD 9C1D               D0.PRP:     CALL    D0.TA03             ;EPROM - programmieren
  95B4    21 95BC                           LD      HL,D0.PRPQ2
  95B7    11 9459                           LD      DE,D0.PR1
  95BA    18 C6                             JR      D0.PRL1
                                ;
  95BC    06 08                 D0.PRPQ2:   LD      B,8
  95BE    21 9459                           LD      HL,D0.PR1
  95C1    CD 9710                           CALL    D0.PQ14
  95C4    2A B28E                           LD      HL,(S2.DL)
  95C7    0E 10                 	        LD      C,010H
  95C9    CD 96CB               D0.PRP2:    CALL    D0.PRUP3
  95CC    C5                                PUSH    BC
  95CD    CD 96FC                           CALL    D0.PRUP4
  95D0    C1                                POP     BC
  95D1    28 06                             JR      Z,D0.PRP3
  95D3    0D                                DEC     C
  95D4    20 F3                             JR      NZ,D0.PRP2
  95D6    C3 9562                           JP      D0.PRF              ;Fehlerauswertung
                                ;            
  95D9    CD 96CB               D0.PRP3:    CALL    D0.PRUP3
  95DC    01 0400                           LD      BC,00400H
  95DF    2A B28E                           LD      HL,(S2.DL)
  95E2    CD 966B                           CALL    D0.CHK
  95E5    C3 9555                           JP      D0.PRR
                                
                                            TITLE   'Funktion :   RAMT '
                                            PAGE
'Funktion :   RAMT '	MACRO-80 3.44	09-Dec-81	PAGE	1-15


                                
                                ;****************************************************************
                                ;*	                     D E B U G   -   Funktion :  RAMT       *
                                ;****************************************************************
  95E8    21 95F4               D0.RAMT:    LD      HL,D0.RAMT1
  95EB    22 B24B                           LD      (TS.BFOL2),HL
  95EE    3E FF                             LD      A,0FFH
  95F0    32 B247                           LD      (TS.MIO),A
  95F3    C9                                RET
                                ;            
  95F4    CD                    D0.RAMT1:   DB      0CDH                ;SYS-Taste
  95F5    4C 50 31                          DB      'LP1'
  95F8    B0                                DB      0B0H                ;POS QUIT
  95F9    52 41 4D 42                       DB      'RAMBUG'
  95FD    55 47                 
  95FF    B0                                DB      0B0H
  9600    52 41 4D 42                       DB      'RAMB'
  9604    B0                                DB      0B0H
                                ;
  9605    9605                              DW      $
  9607    52 41 4D 42                       DB      'RAMB'
  960B    F3                                DI
  960C    AF                                XOR     A
  960D    32 B247                           LD      (TS.MIO),A
  9610    21 CD99                           LD      HL,MO.ROLL
  9613    22 B19A                           LD      (MS.RADR),HL
  9616    21 B197                           LD      HL,MS.DIRES
  9619    CB EE                             SET     5,(HL)
  961B    21 9629                           LD      HL,D0.RAMT2
  961E    11 0103                           LD      DE,00103H
  9621    01 0011                           LD      BC,17
  9624    ED B0                             LDIR
  9626    C3 0100                           JP      00100H
                                ;            
  9629    C3 963A               D0.RAMT2:   JP      D0.CON
  962C    C3 E657                           JP      S9.CIN
  962F    C3 E68B                           JP      S9.CSTSX
  9632    C3 963E                           JP      D0.CADR
  9635    C3 9643                           JP      D0.CHOM
  9638    16                                DB      22
  9639    50                                DB      80
                                ;
  963A    4F                    D0.CON:     LD      C,A
  963B    C3 E6A6                           JP      S9.CON
                                ;
  963E    ED 53 B18C            D0.CADR:    LD      (MS.ZPOS),DE
  9642    C9                                RET
                                ;
  9643    CD EE58               D0.CHOM:    CALL    S9.SAVE
  9646    3E 05                             LD      A,5
  9648    32 B198                           LD      (MS.CMD),A
  964B    CD CB10                           CALL    MO.MONI
  964E    21 0000                           LD      HL,0
  9651    22 B18C                           LD      (MS.ZPOS),HL
  9654    3E 06                             LD      A,6
  9656    32 B198                           LD      (MS.CMD),A
  9659    CD CB10                           CALL    MO.MONI
  965C    CD EE78                           CALL    S9.LOAD
  965F    C9                                RET
                                ;
  9660                          D0.RCDC     EQU     $
'Funktion :   RAMT '	MACRO-80 3.44	09-Dec-81	PAGE	1-16


  9660                          D0.LOAD     EQU     $
  9660                          D0.SAVE     EQU     $
  9660                          D0.REAS     EQU     $
  9660    C9                                RET
                                ;            
  9661                          D0.RGDC     EQU     $
  9661    CD 9966               D0.UCPU:    CALL    D0.DDU30
  9664    21 901C                           LD      HL,D0.DD
  9667    22 B21D                           LD      (TS.TAB3+6),HL
  966A    C9                                RET
                                
                                            TITLE 'Unterprogramme'
                                            PAGE
'Unterprogramme'	MACRO-80 3.44	09-Dec-81	PAGE	1-17


                                
                                ;****************************************************************
                                ;*	                     Kontrollsumme berechnen                *
                                ;****************************************************************
  966B    11 FFFF               D0.CHK:     LD      DE,0FFFFH
  966E    7E                    D0.CHK1:    LD      A,(HL)
  966F    AA                                XOR     D
  9670    57                                LD      D,A
  9671    0F                                RRCA
  9672    0F                                RRCA
  9673    0F                                RRCA
  9674    0F                                RRCA
  9675    E6 0F                             AND     00FH
  9677    AA                                XOR     D
  9678    57                                LD      D,A
  9679    0F                                RRCA
  967A    0F                                RRCA
  967B    0F                                RRCA
  967C    F5                                PUSH    AF
  967D    E6 1F                             AND     01FH
  967F    AB                                XOR     E
  9680    5F                                LD      E,A
  9681    F1                                POP     AF
  9682    F5                                PUSH    AF
  9683    0F                                RRCA
  9684    E6 F0                             AND     0F0H
  9686    AB                                XOR     E
  9687    5F                                LD      E,A
  9688    F1                                POP     AF
  9689    E6 E0                             AND     0E0H
  968B    AA                                XOR     D
  968C    53                                LD      D,E
  968D    5F                                LD      E,A
  968E    23                                INC     HL
  968F    0B                                DEC     BC
  9690    78                                LD      A,B
  9691    B1                                OR      C
  9692    20 DA                             JR      NZ,D0.CHK1          ; Ergebnis in < DE >
  9694    ED 53 B28E                        LD      (S2.DL),DE
  9698    06 11                             LD      B,17
  969A    21 93FB                           LD      HL,D0.RT3
  969D    CD CB10                           CALL    MO.MONI
  96A0    CD 9C5D                           CALL    D0.AH2
  96A3    C9                                RET
                                
                                            PAGE
'Unterprogramme'	MACRO-80 3.44	09-Dec-81	PAGE	1-18


                                
                                ;**********************************************************************
                                ;*	                     Unterprogramme fuer EPROM - Anschlusseinheit *
                                ;**********************************************************************
  96A4    3E 18                 D0.PRUP1:   LD      A,018H
  96A6    D3 E1                             OUT     (S0.PROM+1),A
  96A8    11 03E8                           LD      DE,003E8H
  96AB    1B                    D0.PRU11:   DEC     DE
  96AC    7A                                LD      A,D
  96AD    B3                                OR      E
  96AE    20 FB                             JR      NZ,D0.PRU11
  96B0    C9                                RET
                                ;
  96B1    7B                    D0.PRUP2:   LD      A,E
  96B2    D3 E2                             OUT     (S0.PROM+2),A
  96B4    7A                                LD      A,D
  96B5    0F                                RRCA
  96B6    0F                                RRCA
  96B7    F6 18                             OR      018H
  96B9    D3 E1                             OUT     (S0.PROM+1),A
  96BB    06 06                             LD      B,6
  96BD    10 03                 D0.PRU21:   DJNZ    D0.PRU22
  96BF    F6 01                             OR      1
  96C1    C9                                RET
                                ;
  96C2    DB E3                 D0.PRU22:   IN      A,(S0.PROM+3)
  96C4    4F                                LD      C,A
  96C5    DB E3                             IN      A,(S0.PROM+3)
  96C7    B9                                CP      C
  96C8    20 F3                             JR      NZ,D0.PRU21
  96CA    C9                                RET
                                ;
  96CB    06 0C                 D0.PRUP3:   LD      B,00CH
  96CD    2A B28E               D0.PRU31:   LD      HL,(S2.DL)
  96D0    11 0000                           LD      DE ,0
  96D3    7B                    D0.PRU32:   LD      A,E
  96D4    D3 E2                             OUT     (S0.PROM+2),A
  96D6    7A                                LD      A,D
  96D7    0F                                RRCA
  96D8    0F                                RRCA
  96D9    F6 1B                             OR      01BH
  96DB    D3 E1                             OUT     (S0.PROM+1),A
  96DD    F5                                PUSH    AF
  96DE    7E                                LD      A,(HL)
  96DF    D3 E3                             OUT     (S0.PROM+3),A
  96E1    F1                                POP     AF
  96E2    F5                                PUSH    AF
  96E3    F6 1F                             OR      01FH
  96E5    D3 E1                             OUT     (S0.PROM+1),A
  96E7    3E 18                             LD      A,018H
  96E9    3D                    D0.PRU33:   DEC     A
  96EA    20 FD                             JR      NZ,D0.PRU33
  96EC    F1                                POP     AF
  96ED    D3 E1                             OUT     (S0.PROM+1),A
  96EF    23                                INC     HL
  96F0    13                                INC     DE
  96F1    CB 52                             BIT     2,D
  96F3    28 DE                             JR      Z,D0.PRU32
  96F5    10 D6                             DJNZ    D0.PRU31
  96F7    E6 FD                             AND     0FDH
  96F9    D3 E1                             OUT     (S0.PROM+1),A
'Unterprogramme'	MACRO-80 3.44	09-Dec-81	PAGE	1-19


  96FB    C9                                RET
                                ;
  96FC    2A B28E               D0.PRUP4:   LD      HL,(S2.DL)
  96FF    CD 96A4                           CALL    D0.PRUP1
  9702    CD 96B1               D0.PRU41:   CALL    D0.PRUP2
  9705    C0                                RET     NZ
  9706    BE                                CP      (HL)
  9707    C0                                RET     NZ
  9708    23                                INC     HL
  9709    13                                INC     DE
  970A    CB 52                             BIT     2,D
  970C    28 F4                             JR      Z,D0.PRU41
  970E    AF                                XOR     A
  970F    C9                                RET
                                            
                                            PAGE
'Unterprogramme'	MACRO-80 3.44	09-Dec-81	PAGE	1-20


                                
                                ;**********************************************************************
                                ;*                                                                    *
                                ;**********************************************************************
  9710    E5                    D0.PQ14:    PUSH    HL
  9711    C5                                PUSH    BC
  9712    CD 9A05                           CALL    D0.AS
  9715    2A B28E                           LD      HL,(S2.DL)
  9718    22 B290                           LD      (S2.PAR1),HL
  971B    21 000A                           LD      HL,0000AH           ;ZPOS = 10 , SPOS = 0
  971E    CD 98C6                           CALL    D0.DDU19
  9721    C1                                POP     BC
  9722    E1                                POP     HL
  9723    CD CB10                           CALL    MO.MONI
  9726    06 02                             LD      B,2
  9728    21 924D                           LD      HL,D0.TPQ
  972B    CD CB10                           CALL    MO.MONI
  972E    CD 9C5D                           CALL    D0.AH2
  9731    C9                                RET
                                ;**********************************************************************
                                ;*	                     <B>-malige Anzeige von <A> in Richtung <C>   *
                                ;**********************************************************************
  9732    32 B199               D0.DDU01:   LD      (MS.TK),A
  9735    79                                LD      A,C
  9736    32 B197                           LD      (MS.DIRES),A
  9739    CD CB10               D0.DDU02:   CALL    MO.MONI
  973C    10 FB                             DJNZ    D0.DDU02
  973E    C9                                RET
                                
                                            PAGE
'Unterprogramme'	MACRO-80 3.44	09-Dec-81	PAGE	1-21


                                
                                ;**********************************************************************
                                ;*	                     Rahmengrundelemente                          *
                                ;**********************************************************************
                                ;           Anzeige :    $$$$$
  973F    22 B18C               D0.DDU03:   LD      (MS.ZPOS),HL
  9742    3E 01                             LD      A,001H              ;Zeichen : $ 	           (03)
  9744    0E C0                             LD      C,0C0H              ;Richtung: Ost
  9746    CD 9732                           CALL    D0.DDU01
                                ;           Anzeige :    $
                                ;                        $
                                ;                        $
  9749    22 B18C               D0.DDU04:   LD      (MS.ZPOS),HL
  974C    AF                                XOR     A                   ;Zeichen : $
  974D    0E C6                             LD      C,0C6H              ;Richtung: Sued
  974F    CD 9732                           CALL    D0.DDU01
  9752    C9                                RET
                                ;           Anzeige :    $$$$$
  9753    0E C0                 D0.DDU05:   LD      C,0C0H              ;Richtung: Ost
  9755    C5                                PUSH    BC
  9756    22 B18C                           LD      (MS.ZPOS),HL
  9759    3E 02                             LD      A,002H              ;Zeichen : $
  975B    06 01                             LD      B,1
  975D    CD 9732                           CALL    D0.DDU01
  9760    2A B18C                           LD      HL,(MS.ZPOS)
  9763    C1                                POP     BC
  9764    CD 973F                           CALL    D0.DDU03
  9767    3E 03                             LD      A,003H              ;Zeichen : $ 	           (01)
  9769    01 0100                           LD      BC,00100H
  976C    CD 9732                           CALL    D0.DDU01
  976F    C9                                RET
                                ;
  9770    0E C0                 D0.DDU17:   LD      C,0C0H
  9772    C5                                PUSH    BC
  9773    22 B18C                           LD      (MS.ZPOS),HL
  9776    3E 0A                             LD      A,00AH
  9778    06 01                             LD      B,1
  977A    CD 9732                           CALL    D0.DDU01
  977D    2A B18C                           LD      HL,(MS.ZPOS)
  9780    C1                                POP     BC
  9781    CD 973F                           CALL    D0.DDU03
  9784    3E 0B                             LD      A,00BH
  9786    01 0100                           LD      BC,00100H
  9789    CD 9732                           CALL    D0.DDU01
  978C    C9                                RET
                                ;           Anzeige :    $
                                ;                        $
                                ;                        $
  978D    0E C6                 D0.DDU06:   LD      C,0C6H              ;Richtung: Sued
  978F    C5                                PUSH    BC
  9790    22 B18C                           LD      (MS.ZPOS),HL
  9793    3E 01                             LD      A,001H              ;Zeichen : $	           (05)
  9795    06 01                             LD      B,1
  9797    CD 9732                           CALL    D0.DDU01
  979A    2A B18C                           LD      HL,(MS.ZPOS)
  979D    C1                                POP     BC
  979E    CD 9749                           CALL    D0.DDU04
  97A1    3E 01                             LD      A,001H              ;Zeichen : $	           (04)
  97A3    01 0100                           LD      BC,00100H
  97A6    CD 9732                           CALL    D0.DDU01
  97A9    C9                                RET
'Unterprogramme'	MACRO-80 3.44	09-Dec-81	PAGE	1-22


                                ;
  97AA    01 0E04               D0.DDU07:   LD      BC,00E04H
  97AD    CD 98A3                           CALL    D0.DDU18
  97B0    2A B29A                           LD      HL,(S2.DM1)
  97B3    7C                                LD      A,H
  97B4    C6 05                             ADD     A,5
  97B6    67                                LD      H,A
  97B7    06 04                             LD      B,4
  97B9    CD 978D                           CALL    D0.DDU06
  97BC    2A B29A                           LD      HL,(S2.DM1)
  97BF    7C                                LD      A,H
  97C0    C6 0A                             ADD     A,10
  97C2    67                                LD      H,A
  97C3    06 04                             LD      B,4
  97C5    CD 978D                           CALL    D0.DDU06
  97C8    C9                                RET
                                ;
  97C9    3E 14                 D0.DDU08:   LD      A,20
  97CB    32 B198                           LD      (MS.CMD),A
  97CE    21 0203                           LD      HL,00203H           ;ZPOS = 3 , SPOS = 2
  97D1    CD 97AA                           CALL    D0.DDU07            ;                    Rahmen Ebene 0
  97D4    21 1603                           LD      HL,01603H           ;ZPOS = 3 , SPOS = 22
  97D7    CD 97AA                           CALL    D0.DDU07            ;                    Rahmen Ebene 1
  97DA    21 2A03                           LD      HL,02A03H           ;ZPOS = 3 , SPOS = 42
  97DD    CD 97AA                           CALL    D0.DDU07            ;                    Rahmen Ebene 2
  97E0    21 3E03                           LD      HL,03E03H           ;ZPOS = 3 , SPOS = 62
  97E3    CD 97AA                           CALL    D0.DDU07            ;                    Rahmen Ebene 3
  97E6    3E 18                             LD      A,24
  97E8    32 B198                           LD      (MS.CMD),A
  97EB    21 0602                           LD      HL,00602H           ;ZPOS = 2 , SPOS = 6
  97EE    CD 982B                           CALL    D0.DDU10
  97F1    21 1A02                           LD      HL,01A02H           ;ZPOS = 2 , SPOS = 26
  97F4    CD 982B                           CALL    D0.DDU10
  97F7    21 2E02                           LD      HL,02E02H           ;ZPOS = 2 , SPOS = 46
  97FA    CD 982B                           CALL    D0.DDU10
  97FD    21 4202                           LD      HL,04202H           ;ZPOS = 2 , SPOS = 66
  9800    CD 982B                           CALL    D0.DDU10
  9803    3E 14                             LD      A,20
  9805    32 B198                           LD      (MS.CMD),A
  9808    3E 2F                             LD      A,'/'
  980A    32 B199                           LD      (MS.TK),A
  980D    21 0D02                           LD      HL,00D02H           ;ZPOS = 2 , SPOS = 13
  9810    CD 9837                           CALL    D0.DDU11
  9813    21 2102                           LD      HL,02102H           ;ZPOS = 2 , SPOS = 33
  9816    CD 9837                           CALL    D0.DDU11
  9819    21 3502                           LD      HL,03502H           ;ZPOS = 2 , SPOS = 53
  981C    CD 9837                           CALL    D0.DDU11
  981F    21 4902                           LD      HL,04902H           ;ZPOS = 2 , SPOS = 73
  9822    CD 9837                           CALL    D0.DDU11
  9825    C9                                RET
                                ;
  9826    45 62 65 6E           D0.DDU09:   DB      'Ebene'
  982A    65                    
  982B    22 B18C               D0.DDU10:   LD      (MS.ZPOS),HL
  982E    06 05                             LD      B,5
  9830    21 9826                           LD      HL,D0.DDU09
  9833    CD CB10                           CALL    MO.MONI
  9836    C9                                RET
                                 ;
                                 ;
                                 ;
  9837    22 B18C                D0.DDU11:  LD      (MS.ZPOS),HL
'Unterprogramme'	MACRO-80 3.44	09-Dec-81	PAGE	1-23


  983A    21 B199                           LD      HL,MS.TK
  983D    34                                INC     (HL)
  983E    CD CB10                           CALL    MO.MONI
  9841    C9                                RET
                                ;
                                ;
                                ;
  9842    2A B29A               D0.DDU12:   LD      HL,(S2.DM1)
  9845    11 0004                           LD      DE,4
  9848    19                                ADD     HL,DE
  9849    22 B29A                           LD      (S2.DM1),HL
  984C    06 04                             LD      B,4
  984E    CD CB10                           CALL    MO.MONI
  9851    C9                                RET
                                ;
                                ;
                                ;
  9852    22 B18C               D0.DDU13:   LD      (MS.ZPOS),HL
  9855    06 04                             LD      B,4
  9857    C5                    D0.DDU14:   PUSH    BC
  9858    CD 9842                           CALL    D0.DDU12
  985B    DD 34 00                          INC     (IX)
  985E    CD 9842                           CALL    D0.DDU12
  9861    DD 34 00                          INC     (IX)
  9864    CD 9842                           CALL    D0.DDU12
  9867    FD 34 00                          INC     (IY)
  986A    06 0E                             LD      B,14
  986C    DD 35 00              D0.DDU15:   DEC     (IX)
  986F    10 FB                             DJNZ    D0.DDU15
  9871    C1                                POP     BC
  9872    10 E3                             DJNZ    D0.DDU14
  9874    C9                                RET
                                ;
                                ;
                                ;
  9875    3E 18                 D0.DDU16:   LD      A,24
  9877    32 B198                           LD      (MS.CMD),A
  987A    3E C0                             LD      A,0C0H
  987C    32 B197                           LD      (MS.DIRES),A
  987F    22 B29A                           LD      (S2.DM1),HL         ;Bedeutungstabelle
  9882    FD 21 B18C                        LD      IY,MS.ZPOS
  9886    DD 21 B18D                        LD      IX,MS.SPOS
  988A    21 0304                           LD      HL,00304H           ;ZPOS = 4 , SPOS = 3
  988D    CD 9852                           CALL    D0.DDU13
  9890    21 1704                           LD      HL,01704H           ;ZPOS = 4 , SPOS = 23
  9893    CD 9852                           CALL    D0.DDU13
  9896    21 2B04                           LD      HL,02B04H           ;ZPOS = 4 , SPOS = 43
  9899    CD 9852                           CALL    D0.DDU13
  989C    21 3F04                           LD      HL,03F04H           ;ZPOS = 4 , SPOS = 63
  989F    CD 9852                           CALL    D0.DDU13
  98A2    C9                                RET
                                
                                            PAGE
'Unterprogramme'	MACRO-80 3.44	09-Dec-81	PAGE	1-24


                                
  98A3    C5                    D0.DDU18:   PUSH    BC                  ; |---------|
  98A4    22 B29A                           LD      (S2.DM1),HL         ; |         | < C >   anzeigen
  98A7    CD 9753                           CALL    D0.DDU05            ; |---------|
  98AA    2A B18C                           LD      HL,(MS.ZPOS)        ;    < B >
  98AD    2C                                INC     L
  98AE    C1                                POP     BC
  98AF    C5                                PUSH    BC
  98B0    41                                LD      B,C
  98B1    CD 9749                           CALL    D0.DDU04
  98B4    2A B29A                           LD      HL,(S2.DM1)
  98B7    2C                                INC     L
  98B8    C1                                POP     BC
  98B9    C5                                PUSH    BC
  98BA    41                                LD      B,C
  98BB    CD 9749                           CALL    D0.DDU04
  98BE    2A B18C                           LD      HL,(MS.ZPOS)
  98C1    C1                                POP     BC
  98C2    CD 9770                           CALL    D0.DDU17
  98C5    C9                                RET
                                ;
                                ;
                                ;
  98C6    E5                    D0.DDU19:   PUSH    HL
  98C7    3E 02                             LD      A,2
  98C9    32 B198                           LD      (MS.CMD),A
  98CC    CD CB10                           CALL    MO.MONI
  98CF    3E 18                             LD      A,24
  98D1    32 B198                           LD      (MS.CMD),A
  98D4    E1                                POP     HL
  98D5    22 B18C                           LD      (MS.ZPOS),HL
  98D8    C9                                RET
                                ;
                                ;
                                ;
  98D9    CD 97C9               D0.DDU20:   CALL    D0.DDU08
  98DC    21 9181                           LD      HL,D0.DDPTB-4
  98DF    CD 9875                           CALL    D0.DDU16
  98E2    C9                                RET
                                ;
                                ;
                                ;
  98E3    3A B28B               D0.DDU21:   LD      A,(S2.BZ)
  98E6    FE 02                             CP      2
  98E8    28 04                             JR      Z,D0.DDU22
  98EA    06 00                             LD      B,0
  98EC    18 02                             JR      D0.DDU23
                                ;            
  98EE    06 05                 D0.DDU22:   LD      B,5
  98F0    3A B28A               D0.DDU23:   LD      A,(S2.AFOR)
  98F3    80                                ADD     A,B
  98F4    87                                ADD     A,A
  98F5    4F                                LD      C,A
  98F6    06 00                             LD      B,0
  98F8    09                                ADD     HL,BC
  98F9    7E                                LD      A,(HL)
  98FA    23                                INC     HL
  98FB    66                                LD      H,(HL)
  98FC    6F                                LD      L,A
  98FD    C9                                RET
                                ;
'Unterprogramme'	MACRO-80 3.44	09-Dec-81	PAGE	1-25


  98FE    3E 2C                 D0.DDU24:   LD      A,44
  9900    32 B198                           LD      (MS.CMD),A
  9903    22 B18A                           LD      (MS.ZPOL),HL
  9906    21 B29A                           LD      HL,S2.DM1
  9909    CD CB10                           CALL    MO.MONI
  990C    C9                                RET
                                ;**********************************************************************
                                ;*	                     Eingabefeld loeschen und ":" anzeigen        *
                                ;**********************************************************************
  990D    CD 9C33               D0.DDU25:   CALL    D0.MO01
  9910    3E 05                             LD      A,5
  9912    32 B198                           LD      (MS.CMD),A
  9915    CD CB10                           CALL    MO.MONI
  9918    3E 14                             LD      A,20
  991A    32 B198                           LD      (MS.CMD),A
  991D    3E 3A                             LD      A,':'
  991F    32 B199                           LD      (MS.TK),A
  9922    21 3D14                           LD      HL,03D14H           ;ZPOS = 20 , SPOS = 61
  9925    22 B18C                           LD      (MS.ZPOS),HL
  9928    CD CB10                           CALL    MO.MONI
  992B    21 3513                           LD      HL,03513H           ;ZPOS = 19 , SPOS = 53
  992E    22 B18C                           LD      (MS.ZPOS),HL
  9931    C9                                RET
                                ;**********************************************************************
                                ;*	                     Spaltennummern und Text anzeigen             *
                                ;**********************************************************************
  9932    78                    D0.DDU26:   LD      A,B
  9933    FE 0A                             CP      10
  9935    38 0C                             JR      C,D0.DDU27
  9937    3E 37                             LD      A,55
  9939    80                                ADD     A,B
  993A    32 B199                           LD      (MS.TK),A
  993D    CD CB10                           CALL    MO.MONI
  9940    05                                DEC     B
  9941    18 EF                             JR      D0.DDU26
                                ;
  9943    3E 2F                 D0.DDU27:   LD      A,'/'
  9945    80                                ADD     A,B
  9946    32 B199                           LD      (MS.TK),A
  9949    CD CB10               D0.DDU28:   CALL    MO.MONI
  994C    21 B199                           LD      HL,MS.TK
  994F    35                                DEC     (HL)
  9950    10 F7                             DJNZ    D0.DDU28
  9952    3E 18                             LD      A,24
  9954    32 B198                           LD      (MS.CMD),A
  9957    06 08                             LD      B,8
  9959    2A B28C                           LD      HL, (S2.TE)
  995C    CD CB10                           CALL    MO.MONI
  995F    21 4F15                           LD      HL,04F15H
  9962    22 B190                           LD      (MS.ZMAX),HL
  9965    C9                                RET
                                
                                            PAGE
'Unterprogramme'	MACRO-80 3.44	09-Dec-81	PAGE	1-26


                                
  9966    21 000B               D0.DDU30:   LD      HL,0000BH
  9969    22 B18E                           LD      (MS.ZMIN),HL
  996C    21 5016                           LD      HL,05016H
  996F    22 B190                           LD      (MS.ZMAX),HL
  9972    3E 05                             LD      A,5
  9974    32 B198                           LD      (MS.CMD),A
  9977    CD CB10                           CALL    MO.MONI
  997A    3E 02                             LD      A,2
  997C    32 B198                           LD      (MS.CMD),A
  997F    CD CB10                           CALL    MO.MONI
  9982    3E 14                             LD      A,20
  9984    32 B198                           LD      (MS.CMD),A
  9987    21 000A                           LD      HL,0000AH           ;ZPOS = 10 , SPOS = 0
  998A    01 4E0A                           LD      BC,04E0AH           ;Laenge:78 , Breite:10
  998D    CD 98A3                           CALL    D0.DDU18
  9990    21 0012                           LD      HL,00012H           ;ZPOS = 18 , SPOS = 0
  9993    06 4E                             LD      B,78                ;Laenge:78
  9995    CD 9753                           CALL    D0.DDU05
  9998    21 250A                           LD      HL,0250AH           ;ZPOS = 10 , SPOS = 37
  999B    06 07                             LD      B,7
  999D    CD 978D                           CALL    D0.DDU06
  99A0    21 3412                           LD      HL,03412H           ;ZPOS = 18 , SPOS = 52
  99A3    06 02                             LD      B,2
  99A5    CD 978D                           CALL    D0.DDU06
  99A8    21 000C                           LD      HL,0000CH           ;ZPOS = 12 , SPOS = 0
  99AB    06 24                             LD      B,36
  99AD    CD 9753                           CALL    D0.DDU05
  99B0    21 000F                           LD      HL,0000FH           ;ZPOS = 15 , SPOS = 0
  99B3    06 24                             LD      B,36
  99B5    CD 9753                           CALL    D0.DDU05
  99B8    21 0A0F                           LD      HL,00A0FH           ;ZPOS = 15 , SPOS = 10
  99BB    06 05                             LD      B,5
  99BD    CD 978D                           CALL    D0.DDU06
  99C0    21 0D0A                           LD      HL,00D0AH           ;ZPOS = 10 , SPOS = 13
  99C3    06 04                             LD      B,4
  99C5    CD 978D                           CALL    D0.DDU06
  99C8    21 150A                           LD      HL,0150AH           ;ZPOS = 10 , SPOS = 21
  99CB    06 04                             LD      B,4
  99CD    CD 978D                           CALL    D0.DDU06
  99D0    21 1D0A                           LD      HL,01D0AH           ;ZPOS = 10 , SPOS = 29
  99D3    06 04                             LD      B,4
  99D5    CD 978D                           CALL    D0.DDU06
  99D8    21 170F                           LD      HL,0170FH           ;ZPOS = 15 , SPOS = 23
  99DB    06 02                             LD      B,2
  99DD    CD 978D                           CALL    D0.DDU06
  99E0    21 090C                           LD      HL,0090CH           ;ZPOS = 12 , SPOS = 9
  99E3    CD 99F9                           CALL    D0.DDU31
  99E6    21 110C                           LD      HL,0110CH           ;ZPOS = 12 , SPOS = 17
  99E9    CD 99F9                           CALL    D0.DDU31
  99EC    21 190C                           LD      HL,0190CH           ;ZPOS = 12 , SPOS = 25
  99EF    CD 99F9                           CALL    D0.DDU31
  99F2    21 210C                           LD      HL,0210CH           ;ZPOS = 12 , SPOS = 33
  99F5    CD 99F9                           CALL    D0.DDU31
  99F8    C9                                RET
                                ;
  99F9    22 B18C               D0.DDU31:   LD      (MS.ZPOS),HL
  99FC    3E 7C                             LD      A,07CH
  99FE    01 03C6                           LD      BC,003C6H
  9A01    CD 9732                           CALL    D0.DDU01
  9A04    C9                                RET
'Unterprogramme'	MACRO-80 3.44	09-Dec-81	PAGE	1-27


                                
                                            PAGE
'Unterprogramme'	MACRO-80 3.44	09-Dec-81	PAGE	1-28


                                
                                ;**********************************************************************
                                ;*	                     Anzeige im Eingabebereich retten             *
                                ;**********************************************************************
  9A05    21 9A0C               D0.AS:      LD      HL,D0.ASTAB
  9A08    CD 98E3                           CALL    D0.DDU21
  9A0B    E9                                JP      (HL)
                                ;
                                ;
                                ;
  9A0C    9A20                  D0.ASTAB:   DW      D0.ASH1
  9A0E    9A4F                              DW      D0.ASD1
  9A10    9AA5                              DW      D0.ASO1
  9A12    9AA5                              DW      D0.ASB1
  9A14    9A7D                              DW      D0.ASA1
                                ;
  9A16    9A36                              DW      D0.ASH2
  9A18    9A66                              DW      D0.ASD2
  9A1A    9AA5                              DW      D0.ASO2
  9A1C    9AA5                              DW      D0.ASB2
  9A1E    9A90                              DW      D0.ASA2
                                ;
                                ;
                                ;
  9A20    21 4D14               D0.ASH1:    LD      HL,04D14H
  9A23    06 02                             LD      B,2
  9A25    CD 98FE                           CALL    D0.DDU24
  9A28    21 B29A                           LD      HL,S2.DM1
  9A2B    CD C5CC                           CALL    S1.HBKON
  9A2E    32 B28E                           LD      (S2.DL),A
  9A31    AF                                XOR     A
  9A32    32 B28F                           LD      (S2.DH),A
  9A35    C9                                RET
                                ;
  9A36    21 4B14               D0.ASH2:    LD      HL,04B14H
  9A39    06 04                             LD      B,4
  9A3B    CD 98FE                           CALL    D0.DDU24
  9A3E    21 B29A                           LD      HL,S2.DM1
  9A41    CD C5CC                           CALL    S1.HBKON
  9A44    32 B28F                           LD      (S2.DH),A
  9A47    23                                INC     HL
  9A48    CD C5CC                           CALL    S1.HBKON
  9A4B    32 B28E                           LD      (S2.DL),A
  9A4E    C9                                RET
                                ;
                                ;
                                ;
  9A4F    21 4C14               D0.ASD1:    LD      HL,04C14H
  9A52    06 03                             LD      B,3
  9A54    CD 98FE                           CALL    D0.DDU24
  9A57    3E 20                             LD      A,' '
  9A59    32 B29D                           LD      (S2.DM1+3),A
  9A5C    11 B29A                           LD      DE,S2.DM1
  9A5F    CD C592                           CALL    S1.IDH
  9A62    22 B28E                           LD      (S2.DL),HL
  9A65    C9                                RET
                                ;
  9A66    21 4A14               D0.ASD2:    LD      HL,04A14H
  9A69    06 05                             LD      B,5
  9A6B    CD 98FE                           CALL    D0.DDU24
  9A6E    3E 20                             LD      A,' '
'Unterprogramme'	MACRO-80 3.44	09-Dec-81	PAGE	1-29


  9A70    32 B29F                           LD      (S2.DM1+5),A
  9A73    11 B29A                           LD      DE,S2.DM1
  9A76    CD C592                           CALL    S1.IDH
  9A79    22 B28E                           LD      (S2.DL),HL
  9A7C    C9                                RET
                                ;
                                ;
                                ;
  9A7D    21 4E14               D0.ASA1:    LD      HL,04E14H
  9A80    06 01                             LD      B,1
  9A82    CD 98FE                           CALL    D0.DDU24
  9A85    AF                                XOR     A
  9A86    32 B28F                           LD      (S2.DH),A
  9A89    3A B29A                           LD      A,(S2.DM1)
  9A8C    32 B28E                           LD      (S2.DL),A
  9A8F    C9                                RET
                                ;
  9A90    21 4D14               D0.ASA2:    LD      HL,04D14H
  9A93    06 02                             LD      B,2
  9A95    CD 98FE                           CALL    D0.DDU24
  9A98    3A B29A                           LD      A,(S2.DM1)
  9A9B    32 B28F                           LD      (S2.DH),A
  9A9E    3A B29B                           LD      A,(S2.DM1+1)
  9AA1    32 B28E                           LD      (S2.DL),A
  9AA4    C9                                RET
                                ;
                                ;
                                ;
  9AA5                          D0.ASO1     EQU     $
  9AA5                          D0.ASO2     EQU     $
  9AA5                          D0.ASB1     EQU     $
  9AA5                          D0.ASB2     EQU     $
  9AA5    C9                                RET
                                
                                            PAGE
'Unterprogramme'	MACRO-80 3.44	09-Dec-81	PAGE	1-30


                                
                                ;**********************************************************************
                                ;*	                     Anzeige im Eingabebereich laden              *
                                ;**********************************************************************
  9AA6    21 9AAD               D0.AL:      LD      HL,D0.ALTAB
  9AA9    CD 98E3                           CALL    D0.DDU21
  9AAC    E9                                JP      (HL)
                                ;
                                ;
                                ;
  9AAD    9AC1                  D0.ALTAB:   DW      D0.ALH1
  9AAF    9B17                              DW      D0.ALD1
  9AB1    9B6D                              DW      D0.ALO1
  9AB3    9B6D                              DW      D0.ALB1
  9AB5    9B6E                              DW      D0.ALA1
                                ;
  9AB7    9AF1                              DW      D0.ALH2
  9AB9    9B47                              DW      D0.ALD2
  9ABB    9B6D                              DW      D0.ALO2
  9ABD    9B6D                              DW      D0.ALB2
  9ABF    9BA3                              DW      D0.ALA2
                                ;
                                ;
                                ;
  9AC1    CD 990D               D0.ALH1:    CALL    D0.DDU25
  9AC4    3E 48                             LD      A,'H'
  9AC6    32 B199                           LD      (MS.TK),A
  9AC9    CD CB10                           CALL    MO.MONI
  9ACC    3E 4D                             LD      A,77
  9ACE    32 B18D                           LD      (MS.SPOS),A
  9AD1    06 02                             LD      B,2
  9AD3    CD 9932                           CALL    D0.DDU26
  9AD6    21 4E15                           LD      HL,04E15H
  9AD9    22 B18E                           LD      (MS.ZMIN),HL
  9ADC    21 4D14                           LD      HL,04D14H
  9ADF    22 B18C                           LD      (MS.ZPOS),HL
  9AE2    CD 9C4B                           CALL    D0.AH1
  9AE5    21 9CA0               D0.ALH:     LD      HL,D0.HZEIN
  9AE8    22 B22D                           LD      (TS.EINA),HL
  9AEB    3E A8                             LD      A,0A8H
  9AED    32 B23F                           LD      (TS.SPMER),A
  9AF0    C9                                RET
                                ;
  9AF1    CD 990D               D0.ALH2:    CALL    D0.DDU25
  9AF4    3E 48                             LD      A,'H'
  9AF6    32 B199                           LD      (MS.TK),A
  9AF9    CD CB10                           CALL    MO.MONI
  9AFC    3E 4B                             LD      A,75
  9AFE    32 B18D                           LD      (MS.SPOS),A
  9B01    06 04                             LD      B,4
  9B03    CD 9932                           CALL    D0.DDU26
  9B06    21 4C15                           LD      HL,04C15H
  9B09    22 B18E                           LD      (MS.ZMIN),HL
  9B0C    21 4B14                           LD      HL,04B14H
  9B0F    22 B18C                           LD      (MS.ZPOS),HL
  9B12    CD 9C5D                           CALL    D0.AH2
  9B15    18 CE                             JR      D0.ALH
                                ;
                                ;
                                ;            
  9B17    CD 990D               D0.ALD1:    CALL    D0.DDU25
'Unterprogramme'	MACRO-80 3.44	09-Dec-81	PAGE	1-31


  9B1A    3E 44                             LD      A,'D'
  9B1C    32 B199                           LD      (MS.TK),A
  9B1F    CD CB10                           CALL    MO.MONI
  9B22    3E 4C                             LD      A,76
  9B24    32 B18D                           LD      (MS.SPOS),A
  9B27    06 03                             LD      B,3
  9B29    CD 9932                           CALL    D0.DDU26
  9B2C    21 4D15                           LD      HL,04D15H
  9B2F    22 B18E                           LD      (MS.ZMIN),HL
  9B32    21 4C14                           LD      HL,04C14H
  9B35    22 B18C                           LD      (MS.ZPOS),HL
  9B38    CD 9C76                           CALL    D0.AD1
  9B3B    21 9CB2               D0.ALD:     LD      HL,D0.DZEIN
  9B3E    22 B22D                           LD      (TS.EINA),HL
  9B41    3E 88                             LD      A,088H
  9B43    32 B23F                           LD      (TS.SPMER),A
  9B46    C9                                RET
                                ;
  9B47    CD 990D               D0.ALD2:    CALL    D0.DDU25
  9B4A    3E 44                             LD      A,'D'
  9B4C    32 B199                           LD      (MS.TK),A
  9B4F    CD CB10                           CALL    MO.MONI
  9B52    3E 4A                             LD      A,74
  9B54    32 B18D                           LD      (MS.SPOS),A
  9B57    06 05                             LD      B,5
  9B59    CD 9932                           CALL    D0.DDU26
  9B5C    21 4B15                           LD      HL,04B15H
  9B5F    22 B18E                           LD      (MS.ZMIN),HL
  9B62    21 4A14                           LD      HL,04A14H
  9B65    22 B18C                           LD      (MS.ZPOS),HL
  9B68    CD 9C8B                           CALL    D0.AD2
  9B6B    18 CE                             JR      D0.ALD
                                ;
  9B6D                          D0.ALO1     EQU     $
  9B6D                          D0.ALO2     EQU     $
  9B6D                          D0.ALB1     EQU     $
  9B6D    C9                    D0.ALB2:    RET
                                ;
                                ;
                                ;
  9B6E    CD 990D               D0.ALA1:    CALL    D0.DDU25
  9B71    3E 41                             LD      A,'A'
  9B73    32 B199                           LD      (MS.TK),A
  9B76    CD CB10                           CALL    MO.MONI
  9B79    3E 4E                             LD      A,78
  9B7B    32 B18D                           LD      (MS.SPOS),A
  9B7E    06 01                             LD      B,1
  9B80    CD 9932                           CALL    D0.DDU26
  9B83    21 4F15                           LD      HL,04F15H
  9B86    22 B18E                           LD      (MS.ZMIN),HL
  9B89    21 4E14                           LD      HL,04E14H
  9B8C    22 B18C                           LD      (MS.ZPOS),HL
  9B8F    06 01                             LD      B,1
  9B91    21 B28E                           LD      HL,S2.DL
  9B94    CD CB10                           CALL    MO.MONI
  9B97    21 9CB2               D0.ALA:     LD      HL,D0.AZEIN
  9B9A    22 B22D                           LD      (TS.EINA),HL
  9B9D    3E FF                             LD      A,0FFH
  9B9F    32 B23F                           LD      (TS.SPMER),A
  9BA2    C9                                RET
                                ;
  9BA3    CD 990D               D0.ALA2:    CALL    D0.DDU25
'Unterprogramme'	MACRO-80 3.44	09-Dec-81	PAGE	1-32


  9BA6    3E 41                             LD      A,'A'
  9BA8    32 B199                           LD      (MS.TK),A
  9BAB    CD CB10                           CALL    MO.MONI
  9BAE    3E 4D                             LD      A,77
  9BB0    32 B18D                           LD      (MS.SPOS),A
  9BB3    06 02                             LD      B,2
  9BB5    CD 9932                           CALL    D0.DDU26
  9BB8    21 4E15                           LD      HL,04E15H
  9BBB    22 B18E                           LD      (MS.ZMIN),HL
  9BBE    21 4D14                           LD      HL,04D14H
  9BC1    22 B18C                           LD      (MS.ZPOS),HL
  9BC4    3A B28F                           LD      A,(S2.DH)
  9BC7    32 B29A                           LD      (S2.DM1),A
  9BCA    3A B28E                           LD      A,(S2.DL)
  9BCD    32 B29B                           LD	    (S2.DM1+1),A
  9BD0    06 02                             LD      B,2
  9BD2    21 B29A                           LD      HL,S2.DM1
  9BD5    CD CB10                           CALL    MO.MONI
  9BD8    18 BD                             JR      D0.ALA
                                ;
                                ;
                                ;
  9BDA    CD 9A05               D0.AW:      CALL    D0.AS
  9BDD    3A B23C                           LD      A,(TS.TK)
  9BE0    32 B28A                           LD      (S2.AFOR),A
  9BE3    CD 9AA6                           CALL    D0.AL
  9BE6    C9                                RET
                                ;
                                ;
                                ;
  9BE7    21 C2D3               D0.TA01:    LD      HL,S1.CNLS
  9BEA    22 B20D                           LD      (TS.TAB2+14),HL
  9BED    21 C2B4                           LD      HL,S1.CNRS
  9BF0    22 B211                           LD      (TS.TAB2+18),HL
  9BF3    21 C334                           LD      HL,S1.NN
  9BF6    22 B217                           LD      (TS.TAB3),HL
  9BF9    21 C345                           LD      HL,S1.NNN
  9BFC    22 B219                           LD      (TS.TAB3+2),HL
  9BFF    C9                                RET
                                ;
                                ;
                                ;
  9C00    C5                    D0.TA02:    PUSH    BC
  9C01    D5                                PUSH    DE
  9C02    E5                                PUSH    HL
  9C03    CD D408                           CALL    TA.LOE
  9C06    3E 02                             LD      A,2	
  9C08    32 B198                           LD      (MS.CMD),A	
  9C0B    CD CB10                           CALL    MO.MONI
  9C0E    CD 97C9                           CALL    D0.DDU08            ;Rahmen P-Tasten anzeigen
  9C11    E1                                POP     HL                  ;Rahmen fuellen
  9C12    CD 9875                           CALL    D0.DDU16
  9C15    E1                                POP     HL
  9C16    11 B19F                           LD      DE,TS.TAB1
  9C19    C1                                POP     BC
  9C1A    ED B0                             LDIR
  9C1C    C9                                RET
                                ;
                                ;
                                ;
  9C1D    21 90C1               D0.TA03:    LD      HL,D0.DDPT3-4
  9C20    11 90BB                           LD      DE,D0.DDPT2
'Unterprogramme'	MACRO-80 3.44	09-Dec-81	PAGE	1-33


  9C23    01 000A                           LD      BC,10
  9C26    CD 9C00               D0.TA04:    CALL    D0.TA02
  9C29    AF                                XOR     A                   ;Anzeigeformat auf hexa
  9C2A    32 B28A                           LD      (S2.AFOR),A
  9C2D    3E 02                             LD      A,2                 ;Eingabe auf 2 Byte
  9C2F    32 B28B                           LD      (S2.BZ),A
  9C32    C9                                RET
                                ;
                                ;
                                ;
                                ;**********************************************************************
                                ;*	                     Fenster gleich Eingabebereich definieren     *
                                ;**********************************************************************
  9C33    21 3614               D0.MO01:    LD      HL,03614H           ;ZMIN = 20 , SMIN = 54
  9C36    22 B18E                           LD      (MS.ZMIN),HL
  9C39    21 4F15                           LD      HL,04F15H           ;ZMAX = 21 , SMAX = 79
  9C3C    22 B190                           LD      (MS.ZMAX),HL
  9C3F    21 3513                           LD      HL,03513H           ;ZPOS = 19 , SPOS = 53
  9C42    22 B18C                           LD      (MS.ZPOS),HL
  9C45    3E C0                             LD      A,0C0H
  9C47    32 B197                           LD      (MS.DIRES),A
  9C4A    C9                                RET
                                ;**********************************************************************
                                ;*	                     Anzeige von   <S2.DL>   hexadezimal          *
                                ;**********************************************************************
  9C4B    3A B28E               D0.AH1:     LD      A,(S2.DL)
  9C4E    21 B29A                           LD      HL,S2.DM1
  9C51    CD C5FF                           CALL    S1.BHKON
  9C54    06 02                             LD      B,2
  9C56    21 B29A                           LD      HL,S2.DM1
  9C59    CD CB10                           CALL    MO.MONI
  9C5C    C9                                RET
                                ;**********************************************************************
                                ;*	                     Anzeige von   <S2.DH,S2.DL>   hexadezimal    *
                                ;**********************************************************************
  9C5D    3A B28F               D0.AH2:     LD      A,(S2.DH)
  9C60    21 B29A                           LD      HL,S2.DM1
  9C63    CD C5FF                           CALL    S1.BHKON
  9C66    3A B28E                           LD      A,(S2.DL)
  9C69    23                                INC     HL
  9C6A    CD C5FF                           CALL    S1.BHKON
  9C6D    06 04                             LD      B,4
  9C6F    21 B29A                           LD      HL,S2.DM1
  9C72    CD CB10                           CALL    MO.MONI
  9C75    C9                                RET
                                ;
                                ;
                                ;
  9C76    2A B28E               D0.AD1:     LD      HL,(S2.DL)
  9C79    11 B29A                           LD      DE,S2.DM1
  9C7C    3E 41                             LD      A,'A'
  9C7E    12                                LD      (DE) ,A
  9C7F    CD C54E                           CALL    S1.HDI
  9C82    06 03                             LD      B,3
  9C84    21 B29D                           LD      HL,S2.DM1+3
  9C87    CD CB10                           CALL    MO.MONI
  9C8A    C9                                RET
                                ;
  9C8B    2A B28E               D0.AD2:     LD      HL,(S2.DL)
  9C8E    11 B29A                           LD      DE,S2.DM1
  9C91    3E 41                             LD      A,'A'
  9C93    12                                LD      (DE),A
'Unterprogramme'	MACRO-80 3.44	09-Dec-81	PAGE	1-34


  9C94    CD C54E                           CALL    S1.HDI
  9C97    06 05                             LD      B,5
  9C99    21 B29B                           LD      HL,S2.DM1+1
  9C9C    CD CB10                           CALL    MO.MONI
  9C9F    C9                                RET
                                ;
                                ;
                                ;
  9CA0    3A B23C               D0.HZEIN:   LD      A,(TS.TK)
  9CA3    FE 47                             CP      'G'
  9CA5    D0                                RET     NC
  9CA6    FE 41                             CP      'A'
  9CA8    30 08                             JR      NC,D0.DZEIN
  9CAA    FE 3A                             CP      ':'
  9CAC    D0                                RET     NC
  9CAD    FE 30                             CP      '0'
  9CAF    30 01                             JR      NC,D0.DZEIN
  9CB1    C9                                RET
                                ;
  9CB2                          D0.AZEIN    EQU     $
  9CB2    CD C328               D0.DZEIN:   CALL    S1.AEIN
  9CB5    3E 01                             LD      A,1
  9CB7    32 B242                           LD      (TS.ZSMER),A
  9CBA    C9                                RET
                                ;
  9CBB    3A B23C               D0.OZEIN:   LD      A,(TS.TK)
  9CBE    FE 38                             CP      '8'
  9CC0    D0                                RET     NC
  9CC1    18 EF                             JR      D0.DZEIN
                                ;
  9CC3    3A B23C               D0.BZEIN:   LD      A,(TS.TK)
  9CC6    FE 32                             CP      '2'
  9CC8    D0                                RET     NC
  9CC9    18 E7                             JR      D0.DZEIN
                                ;
                                            .DEPHASE
                                ;
                                            END
'Unterprogramme'	MACRO-80 3.44	09-Dec-81	PAGE	S


Macros:

Symbols:
9C76 	D0.AD1          9C8B 	D0.AD2          931F 	D0.ADD          
9328 	D0.ADD1         932A 	D0.ADPQ1        9342 	D0.ADPQ2        
9C4B 	D0.AH1          9C5D 	D0.AH2          9AA6 	D0.AL           
9B97 	D0.ALA          9B6E 	D0.ALA1         9BA3 	D0.ALA2         
9B6D 	D0.ALB1         9B6D 	D0.ALB2         9B3B 	D0.ALD          
9B17 	D0.ALD1         9B47 	D0.ALD2         9AE5 	D0.ALH          
9AC1 	D0.ALH1         9AF1 	D0.ALH2         9B6D 	D0.ALO1         
9B6D 	D0.ALO2         9AAD 	D0.ALTAB        9A05 	D0.AS           
9A7D 	D0.ASA1         9A90 	D0.ASA2         9AA5 	D0.ASB1         
9AA5 	D0.ASB2         9A4F 	D0.ASD1         9A66 	D0.ASD2         
9A20 	D0.ASH1         9A36 	D0.ASH2         9AA5 	D0.ASO1         
9AA5 	D0.ASO2         9A0C 	D0.ASTAB        9BDA 	D0.AW           
9CB2 	D0.AZEIN        9CC3 	D0.BZEIN        963E 	D0.CADR         
966B 	D0.CHK          966E 	D0.CHK1         9643 	D0.CHOM         
963A 	D0.CON          901C 	D0.DD           9099 	D0.DDPT         
90BB 	D0.DDPT2        90C5 	D0.DDPT3        9185 	D0.DDPTB        
9732 	D0.DDU01        9739 	D0.DDU02        973F 	D0.DDU03        
9749 	D0.DDU04        9753 	D0.DDU05        978D 	D0.DDU06        
97AA 	D0.DDU07        97C9 	D0.DDU08        9826 	D0.DDU09        
982B 	D0.DDU10        9837 	D0.DDU11        9842 	D0.DDU12        
9852 	D0.DDU13        9857 	D0.DDU14        986C 	D0.DDU15        
9875 	D0.DDU16        9770 	D0.DDU17        98A3 	D0.DDU18        
98C6 	D0.DDU19        98D9 	D0.DDU20        98E3 	D0.DDU21        
98EE 	D0.DDU22        98F0 	D0.DDU23        98FE 	D0.DDU24        
990D 	D0.DDU25        9932 	D0.DDU26        9943 	D0.DDU27        
9949 	D0.DDU28        9966 	D0.DDU30        99F9 	D0.DDU31        
9CB2 	D0.DZEIN        9CA0 	D0.HZEIN        924F 	D0.IN           
9258 	D0.IN1          9262 	D0.IN2          9272 	D0.INPQ         
9660 	D0.LOAD         93C6 	D0.MEDC         93CF 	D0.MEDC1        
93D1 	D0.MEPQ         9C33 	D0.MO01         92C0 	D0.OUPQ1        
92E7 	D0.OUPQ2        92B5 	D0.OUT          92BE 	D0.OUT1         
9CBB 	D0.OZEIN        9710 	D0.PQ14         9459 	D0.PR1          
9562 	D0.PRF          955A 	D0.PRF1         9545 	D0.PRK          
9548 	D0.PRK1         9579 	D0.PRL          9582 	D0.PRL1         
9593 	D0.PRL2         95AD 	D0.PRL3         9527 	D0.PROM         
95B1 	D0.PRP          95C9 	D0.PRP2         95D9 	D0.PRP3         
9585 	D0.PRPQ1        95BC 	D0.PRPQ2        9555 	D0.PRR          
9461 	D0.PRT1         9521 	D0.PRT2         96AB 	D0.PRU11        
96BD 	D0.PRU21        96C2 	D0.PRU22        96CD 	D0.PRU31        
96D3 	D0.PRU32        96E9 	D0.PRU33        9702 	D0.PRU41        
96A4 	D0.PRUP1        96B1 	D0.PRUP2        96CB 	D0.PRUP3        
96FC 	D0.PRUP4        95E8 	D0.RAMT         95F4 	D0.RAMT1        
9629 	D0.RAMT2        9660 	D0.RCDC         9660 	D0.REAS         
9661 	D0.RGDC         9414 	D0.ROM1         940B 	D0.ROMT         
93EB 	D0.RT1          93F3 	D0.RT2          93FB 	D0.RT3          
9416 	D0.RTPQ1        9431 	D0.RTPQ2        9660 	D0.SAVE         
9380 	D0.SBPQ1        9398 	D0.SBPQ2        9375 	D0.SUB          
937E 	D0.SUB1         9BE7 	D0.TA01         9C00 	D0.TA02         
9C1D 	D0.TA03         9C26 	D0.TA04         930E 	D0.TAD1         
9316 	D0.TAD2         9245 	D0.TIN1         92AD 	D0.TIO1         
93BE 	D0.TME          92A5 	D0.TOUT1        924D 	D0.TPQ          
9366 	D0.TSB1         936F 	D0.TSB2         9661 	D0.UCPU         
9068 	DD1             CB3F 	MO.BWSUS        CB10 	MO.MONI         
CD99 	MO.ROLL         B198 	MS.CMD          B19E 	MS.CZEIT        
B197 	MS.DIRES        B19D 	MS.MCUR         B19C 	MS.MCZ          
B19A 	MS.RADR         B18B 	MS.SPOL         B18D 	MS.SPOS         
B199 	MS.TK           B190 	MS.ZMAX         B18E 	MS.ZMIN         
B18A 	MS.ZPOL         B18C 	MS.ZPOS         A000 	S0.BWSA         
'Unterprogramme'	MACRO-80 3.44	09-Dec-81	PAGE	S-1


00E0 	S0.PROM         0050 	S0.SPANZ        0018 	S0.ZANZ         
C328 	S1.AEIN         C3BF 	S1.ANZEI        C5FF 	S1.BHKON        
C2D3 	S1.CNLS         C2B4 	S1.CNRS         C5CC 	S1.HBKON        
C54E 	S1.HDI          C592 	S1.IDH          C532 	S1.INPTR        
C334 	S1.NN           C345 	S1.NNN          C114 	S1.SYSTB        
B26E 	S2.AADR         B28A 	S2.AFOR         B28B 	S2.BZ           
B28F 	S2.DH           B28E 	S2.DL           B29A 	S2.DM1          
B270 	S2.KADR         B290 	S2.PAR1         B273 	S2.SP1          
B274 	S2.SP2          B275 	S2.SP3          B28C 	S2.TE           
B272 	S2.ZP           E657 	S9.CIN          E6A6 	S9.CON          
E68B 	S9.CSTSX        EE78 	S9.LOAD         EE58 	S9.SAVE         
D408 	TA.LOE          B249 	TS.BFOL1        B24B 	TS.BFOL2        
B22D 	TS.EINA         B23E 	TS.EMERK        B241 	TS.KGMER        
B248 	TS.MBF          B247 	TS.MIO          B231 	TS.NEWL         
B23B 	TS.PTAST        B23D 	TS.PTK          B23F 	TS.SPMER        
B19F 	TS.TAB1         B1FF 	TS.TAB2         B217 	TS.TAB3         
B223 	TS.TAB4         B233 	TS.TAB5         B22F 	TS.TABU         
B23C 	TS.TK           B240 	TS.UMERK        B245 	TS.ZEI21        
B243 	TS.ZEIT1        B244 	TS.ZEIT2        B242 	TS.ZSMER        
B246 	TS.ZSTC         



No Fatal error(s)


