'SYS3 - MEOS1521'	MACRO-80 3.44	09-Dec-81	PAGE	1


                                	TITLE	'SYS3 - MEOS1521'
                                	PAGE	87
'SYS3 - MEOS1521'	MACRO-80 3.44	09-Dec-81	PAGE	1-1


                                
                                
                         C      	INCLUDE	incANF.MAC
                         C      	TITLE	'SYS3 - MEOS1521 ---> Anfangslader'
                         C      	PAGE
'SYS3 - MEOS1521 ---> Anfangslader'	MACRO-80 3.44	09-Dec-81	PAGE	1-2


                         C      
                         C          ORG 0A000H
  A000*                  C      AA000:
  A000*   00 00          C          DB  0,0     ;   OUT	(0F9H),A
  A002*   C3 012A        C      	JP	0012AH
                         C      ;
                         C          ORG 0A008H
  A008*                  C      AA008:
  A008*   00 00          C          DB  0,0     ;   OUT	(0F9H),A
  A00A*   ED 73 F25E     C      	LD	(0F25EH),SP
  A00E*   C3 0100        C      	JP	00100H
                         C      ;
                         C      	ORG	0A028H
  A028*                  C      AA028:
  A028*   00 00          C          DB  0,0     ;   OUT	(0F9H),A
  A02A*   ED 73 F25E     C      	LD	(0F25EH),SP
  A02E*   31 F25E        C      	LD	SP,0F25EH
  A031*   F5             C      	PUSH	AF
  A032*   3E 08          C      	LD	A,008H
  A034*   32 F26B        C      	LD	(0F26BH),A
  A037*   F1             C      	POP	AF
  A038*   C3 0100        C      	JP	00100H
                         C      ;
                         C      	ORG	0A066H
  A066*                  C      AA066:
  A066*   ED 45          C      	RETN
                         C      ;
  A068*                  C      AA068:
  A068*   0F             C      	DB	00FH
                         C      ;
  A069*   CF             C      	DB	0CFH
  A06A*   20             C      	DB	020H
  A06B*   E8             C      	DB	0E8H
  A06C*   F7             C      	DB	0F7H
  A06D*   DF             C      	DB	0DFH
                         C      ;
  A06E*   CF             C      	DB	0CFH
  A06F*   0F             C      	DB	00FH
                         C      ;
  A070*   0F             C      	DB	00FH
  A071*   03             C      	DB	003H
                         C      ;
  A072*   4F             C      	DB	04FH
  A073*   03             C      	DB	003H
                         C      ;
  A074*                  C      AA074:
  A074*   DD 4E 02       C      	LD	C,(IX+02)	;Programm KP
  A077*   0C             C      	INC	C
  A078*   0C             C      	INC	C
  A079*   06 03          C      	LD	B,3
  A07B*   21 D09F        C      	LD	HL,0D09FH
  A07E*   F3             C      	DI
  A07F*   ED B3          C      	OTIR
  A081*   0C             C      	INC	C
  A082*   06 03          C      	LD	B,3
  A084*   ED B3          C      	OTIR
  A086*   0C             C      	INC	C
  A087*   0C             C      	INC	C
  A088*   0C             C      	INC	C
  A089*   06 05          C      	LD	B,5
  A08B*   ED B3          C      	OTIR
  A08D*   0C             C      	INC	C
  A08E*   06 05          C      	LD	B,5
  A090*   ED B3          C      	OTIR
  A092*   FB             C      	EI
  A093*   0D             C      	DEC	C
  A094*   0D             C      	DEC	C
  A095*   0D             C      	DEC	C
  A096*   3E 03          C      	LD	A,3
  A098*   ED 79          C      	OUT	(C),A
  A09A*   0C             C      	INC	C
  A09B*   AF             C      	XOR	A
  A09C*   ED 79          C      	OUT	(C),A
  A09E*   C9             C      	RET
                         C      ;
  A09F*                  C      AA09F:
  A09F*   D0             C      	DB	0D0H
  A0A0*   0F             C      	DB	00FH
  A0A1*   03             C      	DB	003H
                         C      ;
  A0A2*   D4             C      	DB	0D4H
  A0A3*   4F             C      	DB	04FH
'SYS3 - MEOS1521 ---> Anfangslader'	MACRO-80 3.44	09-Dec-81	PAGE	1-3


  A0A4*   03             C      	DB	003H
                         C      ;
  A0A5*   D8             C      	DB	0D8H
  A0A6*   CF             C      	DB	0CFH
  A0A7*   80             C      	DB	080H
  A0A8*   17             C      	DB	017H
  A0A9*   7F             C      	DB	07FH
                         C      ;
  A0AA*   D6             C      	DB	0D6H
  A0AB*   CF             C      	DB	0CFH
  A0AC*   FD             C      	DB	0FDH
  A0AD*   37             C      	DB	037H
  A0AE*   BF             C      	DB	0BFH
                         C      ;
                         C      	ORG	0A100H
                         C      	.phase	00100H
  0100                   C      A0100:
  0100    31 F25E        C      	LD	SP,0F25EH
  0103    F5             C      	PUSH	AF
  0104    ED 57          C      	LD	A,I
  0106    F3             C      	DI
  0107    32 F262        C      	LD	(0F262H),A
  010A    3E 44          C      	LD	A,044H
  010C    E2 0110        C      	JP	PO,00110H
  010F    3C             C      	INC	A
  0110    32 F264        C      	LD	(0F264H),A
  0113    F1             C      	POP	AF
  0114    DD E5          C      	PUSH	IX
  0116    FD E5          C      	PUSH	IY
  0118    C5             C      	PUSH	BC
  0119    D5             C      	PUSH	DE
  011A    E5             C      	PUSH	HL
  011B    F5             C      	PUSH	AF
  011C    08             C      	EX	AF,AF'
  011D    D9             C      	EXX
  011E    C5             C      	PUSH	BC
  011F    D5             C      	PUSH	DE
  0120    E5             C      	PUSH	HL
  0121    F5             C      	PUSH	AF
  0122    08             C      	EX	AF,AF'
  0123    D9             C      	EXX
  0124    31 F262        C      	LD	SP,0F262H
  0127    C3 F000        C      	JP	0F000H
                         C      ;
  012A                   C      A012A:
  012A    31 F7D0        C      	LD	SP,0F7D0H
  012D    3A 03C0        C      	LD	A,(003C0H)
  0130    47             C      	LD	B,A
  0131    11 03C1        C      	LD	DE,003C1H
  0134                   C      A0134:
  0134    1A             C      	LD	A,(DE)
  0135    67             C      	LD	H,A
  0136    2E 00          C      	LD	L,0
  0138    13             C      	INC	DE
  0139    E5             C      	PUSH	HL
  013A    1A             C      	LD	A,(DE)
  013B    6F             C      	LD	L,A
  013C    13             C      	INC	DE
  013D    1A             C      	LD	A,(DE)
  013E    67             C      	LD	H,A
  013F    13             C      	INC	DE
  0140    E3             C      	EX	(SP),HL
  0141    E5             C      	PUSH	HL
  0142    D9             C      	EXX
  0143    E1             C      	POP	HL
  0144    E5             C      	PUSH	HL
  0145    01 0400        C      	LD	BC,1024
  0148    16 FF          C      	LD	D,0FFH
  014A    5A             C      	LD	E,D
  014B                   C      A014B:
  014B    7E             C      	LD	A,(HL)
  014C    AA             C      	XOR	D
  014D    57             C      	LD	D,A
  014E    0F             C      	RRCA
  014F    0F             C      	RRCA
  0150    0F             C      	RRCA
  0151    0F             C      	RRCA
  0152    E6 0F          C      	AND	00FH
  0154    AA             C      	XOR	D
  0155    57             C      	LD	D,A
  0156    0F             C      	RRCA
  0157    0F             C      	RRCA
  0158    0F             C      	RRCA
'SYS3 - MEOS1521 ---> Anfangslader'	MACRO-80 3.44	09-Dec-81	PAGE	1-4


  0159    F5             C      	PUSH	AF
  015A    E6 1F          C      	AND	01FH
  015C    AB             C      	XOR	E
  015D    5F             C      	LD	E,A
  015E    F1             C      	POP	AF
  015F    F5             C      	PUSH	AF
  0160    0F             C      	RRCA
  0161    E6 F0          C      	AND	0F0H
  0163    AB             C      	XOR	E
  0164    5F             C      	LD	E,A
  0165    F1             C      	POP	AF
  0166    E6 E0          C      	AND	0E0H
  0168    AA             C      	XOR	D
  0169    53             C      	LD	D,E
  016A    5F             C      	LD	E,A
  016B    23             C      	INC	HL
  016C    0B             C      	DEC	BC
  016D    78             C      	LD	A,B
  016E    B1             C      	OR	C
  016F    20 DA          C      	JR	NZ,A014B
  0171    C1             C      	POP	BC
  0172    E1             C      	POP	HL
  0173    AF             C      	XOR	A
  0174    ED 52          C      	SBC	HL,DE
  0176    20 06          C      	JR	NZ,A017E
  0178                   C      A0178:
  0178    D9             C      	EXX
  0179    05             C      	DEC	B
  017A    20 B8          C      	JR	NZ,A0134
  017C    18 47          C      	JR	A01C5
  017E                   C      A017E:
  017E    C5             C      	PUSH	BC
  017F    ED 5B 0406     C      	LD	DE,(00406H)
  0183    21 01B0        C      	LD	HL,001B0H
  0186    01 0015        C      	LD	BC,00015H
  0189    ED B0          C      	LDIR
  018B    E1             C      	POP	HL
  018C    7C             C      	LD	A,H
  018D    0F             C      	RRCA
  018E    0F             C      	RRCA
  018F    0F             C      	RRCA
  0190    0F             C      	RRCA
  0191    E6 0F          C      	AND	00FH
  0193    C6 30          C      	ADD	A,030H
  0195    FE 3A          C      	CP	03AH
  0197    38 02          C      	JR	C,A019B
  0199    C6 07          C      	ADD	A,007H
  019B                   C      A019B:
  019B    12             C      	LD	(DE),A
  019C    13             C      	INC	DE
  019D    7C             C      	LD	A,H
  019E    E6 0F          C      	AND	00FH
  01A0    C6 30          C      	ADD	A,030H
  01A2    FE 3A          C      	CP	03AH
  01A4    38 02          C      	JR	C,A01A8
  01A6    C6 07          C      	ADD	A,007H
  01A8                   C      A01A8:
  01A8    12             C      	LD	(DE),A
  01A9    13             C      	INC	DE
  01AA    3E 20          C      	LD	A,020H
  01AC    12             C      	LD	(DE),A
  01AD    76             C      	HALT
  01AE    18 C8          C      	JR	A0178
                         C      ;
  01B0                   C      D01B0:
  01B0    20 20 20 20    C      	DB	"     PROM ERROR"
  01B4    20 50 52 4F    C      
  01B8    4D 20 45 52    C      
  01BC    52 4F 52       C      
  01BF    20 43 48 49    C      	DB	" CHIP "
  01C3    50 20          C      
  01C5                   C      A01C5:
  01C5    3E 01          C      	LD	A,1
  01C7    32 F26B        C      	LD	(0F26BH),A
  01CA    21 F2D9        C      	LD	HL,0F2D9H
  01CD    36 00          C      	LD	(HL),0
  01CF    23             C      	INC	HL
  01D0    36 00          C      	LD	(HL),0
  01D2    23             C      	INC	HL
  01D3    36 80          C      	LD	(HL),080H
  01D5    23             C      	INC	HL
  01D6    06 09          C      	LD	B,9
  01D8                   C      A01D8:
'SYS3 - MEOS1521 ---> Anfangslader'	MACRO-80 3.44	09-Dec-81	PAGE	1-5


  01D8    36 00          C      	LD	(HL),0
  01DA    23             C      	INC	HL
  01DB    10 FB          C      	DJNZ	A01D8
  01DD    3E 02          C      	LD	A,2
  01DF    01 00FB        C      	LD	BC,000FBH
  01E2    21 F2E5        C      	LD	HL,0F2E5H
  01E5                   C      A01E5:
  01E5    F5             C      	PUSH	AF
  01E6                   C      A01E6:
  01E6    2B             C      	DEC	HL
  01E7    56             C      	LD	D,(HL)
  01E8    2B             C      	DEC	HL
  01E9    5E             C      	LD	E,(HL)
  01EA    2B             C      	DEC	HL
  01EB                   C      A01EB:
  01EB    CB 0A          C      	RRC	D
  01ED    17             C      	RLA
  01EE    CB 0B          C      	RRC	E
  01F0    17             C      	RLA
  01F1    CB 0E          C      	RRC	(HL)
  01F3    17             C      	RLA
  01F4    E6 07          C      	AND	007H
  01F6    ED 79          C      	OUT	(C),A
  01F8    04             C      	INC	B
  01F9    78             C      	LD	A,B
  01FA    FE 08          C      	CP	008H
  01FC    38 ED          C      	JR	C,A01EB
  01FE    28 E6          C      	JR	Z,A01E6
  0200    FE 10          C      	CP	010H
  0202    38 E7          C      	JR	C,A01EB
  0204    0D             C      	DEC	C
  0205    06 00          C      	LD	B,0
  0207    F1             C      	POP	AF
  0208    3D             C      	DEC	A
  0209    20 DA          C      	JR	NZ,A01E5
  020B    AF             C      	XOR	A
  020C    32 F335        C      	LD	(0F335H),A
  020F    21 F305        C      	LD	HL,0F305H
  0212    06 06          C      	LD	B,6
  0214                   C      A0214:
  0214    36 FF          C      	LD	(HL),0FFH
  0216    23             C      	INC	HL
  0217    10 FB          C      	DJNZ	A0214
  0219    36 FE          C      	LD	(HL),0FEH
  021B    23             C      	INC	HL
  021C    36 FF          C      	LD	(HL),0FFH
                         C      ;
  021E    21 F2E5        C      	LD	HL,0F2E5H
  0221    11 F315        C      	LD	DE,0F315H
  0224    01 0020        C      	LD	BC,00020H
  0227    ED B0          C      	LDIR
  0229    06 04          C      	LD	B,4
  022B    3A F335        C      	LD	A,(0F335H)
  022E    11 F2E5        C      	LD	DE,0F2E5H
  0231    C5             C      	PUSH	BC
  0232    21 F305        C      	LD	HL,0F305H
  0235    01 0008        C      	LD	BC,8
  0238    0F             C      	RRCA
  0239    30 02          C      	JR	NC,$+04	;023D
  023B    62             C      	LD	H,D
  023C    6B             C      	LD	L,E
  023D    ED B0          C      	LDIR
  023F    C1             C      	POP	BC
  0240    10 EF          C      	DJNZ	$-15	;0231
  0242    21 F2E5        C      	LD	HL,0F2E5H
  0245    0E F4          C      	LD	C,0F4H
  0247    06 00          C      	LD	B,0
  0249    16 00          C      	LD	D,0
  024B    C5             C      	PUSH	BC
  024C    E5             C      	PUSH	HL
  024D    0E 04          C      	LD	C,4
  024F    7E             C      	LD	A,(HL)
  0250    F5             C      	PUSH	AF
  0251    23             C      	INC	HL
  0252    A6             C      	AND	(HL)
  0253    E6 0F          C      	AND	00FH
  0255    5F             C      	LD	E,A
  0256    78             C      	LD	A,B
  0257    A6             C      	AND	(HL)
  0258    E6 0F          C      	AND	00FH
  025A    BB             C      	CP	E
  025B    20 02          C      	JR	NZ,$+04	;025F
  025D    CB E2          C      	SET	4,D
'SYS3 - MEOS1521 ---> Anfangslader'	MACRO-80 3.44	09-Dec-81	PAGE	1-6


  025F    F1             C      	POP	AF
  0260    A6             C      	AND	(HL)
  0261    E6 F0          C      	AND	0F0H
  0263    5F             C      	LD	E,A
  0264    78             C      	LD	A,B
  0265    A6             C      	AND	(HL)
  0266    E6 F0          C      	AND	0F0H
  0268    BB             C      	CP	E
  0269    20 02          C      	JR	NZ,$+04	;026D
  026B    CB C2          C      	SET	0,D
  026D    CB 0A          C      	RRC	D
  026F    C5             C      	PUSH	BC
  0270    01 0007        C      	LD	BC,7
  0273    09             C      	ADD	HL,BC
  0274    C1             C      	POP	BC
  0275    0D             C      	DEC	C
  0276    20 D7          C      	JR	NZ,$-39	;024F
  0278    E1             C      	POP	HL
  0279    C1             C      	POP	BC
  027A    7A             C      	LD	A,D
  027B    ED 79          C      	OUT	(C),A
  027D    78             C      	LD	A,B
  027E    C6 11          C      	ADD	A,011H
  0280    47             C      	LD	B,A
  0281    30 C6          C      	JR	NC,$-56	;0249
  0283    23             C      	INC	HL
  0284    23             C      	INC	HL
  0285    79             C      	LD	A,C
  0286    C6 01          C      	ADD	A,001H
  0288    4F             C      	LD	C,A
  0289    FE F8          C      	CP	0F8H
  028B    20 BA          C      	JR	NZ,$-68	;0247
  028D    21 F315        C      	LD	HL,0F315H
  0290    11 F2E5        C      	LD	DE,0F2E5H
  0293    01 0020        C      	LD	BC,00020H
  0296    ED B0          C      	LDIR
  0298    3E F8          C      	LD	A,0F8H      ;F8 ==> F0
  029A    D3 F0          C      	OUT	(0F0H),A
  029C    01 04F0        C      	LD	BC,004F0H   ;47,00 ==> F0,F1,F2,F3
  029F    3E 47          C      	LD	A,047H
  02A1    16 00          C      	LD	D,000H
                         C      ;
  02A3                   C      A02A3:
  02A3    ED 79          C      	OUT	(C),A
  02A5    ED 51          C      	OUT	(C),D
  02A7    0C             C      	INC	C
  02A8    10 F9          C      	DJNZ	A02A3
  02AA    3E E0          C      	LD	A,0E0H      ;E0 ==> 80
  02AC    D3 80          C      	OUT	(080H),A
  02AE    3E F7          C      	LD	A,0F7H
  02B0    ED 47          C      	LD	I,A
  02B2    ED 5E          C      	IM	2
  02B4    F3             C      	DI
  02B5    21 A068'       C      	LD	HL,AA068    ;0F ==> DE
  02B8    0E DE          C      	LD	C,0DEH
  02BA    ED A3          C      	OUTI
  02BC    3E FF          C      	LD	A,0FFH      ;FF ==> DC
  02BE    D3 DC          C      	OUT	(0DCH),A
  02C0    06 05          C      	LD	B,5         ;CF,20,E8,F7,DF ==> DE
  02C2    ED B3          C      	OTIR
  02C4    0C             C      	INC	C           ;CF,0F          ==> DF
  02C5    06 02          C      	LD	B,2
  02C7    ED B3          C      	OTIR
  02C9    0E DA          C      	LD	C,0DAH      ;0F,03          ==> DA
  02CB    ED A3          C      	OUTI
  02CD    ED A3          C      	OUTI
  02CF    0C             C      	INC	C           ;4F,03          ==> DB
  02D0    ED A3          C      	OUTI
  02D2    ED A3          C      	OUTI
  02D4    DB D9          C      	IN	A,(0D9H)    ;               <== D9
  02D6    DB E0          C      	IN	A,(0E0H)    ;               <== E0
  02D8    3E 07          C      	LD	A,007H      ;07             ==> E0
  02DA    D3 E0          C      	OUT	(0E0H),A
  02DC    3E 02          C      	LD	A,2
  02DE    21 0400        C      	LD	HL,00400H
  02E1                   C      A02E1:
  02E1    5E             C      	LD	E,(HL)
  02E2    23             C      	INC	HL
  02E3    56             C      	LD	D,(HL)
  02E4    23             C      	INC	HL
  02E5    4E             C      	LD	C,(HL)
  02E6    23             C      	INC	HL
  02E7    46             C      	LD	B,(HL)
'SYS3 - MEOS1521 ---> Anfangslader'	MACRO-80 3.44	09-Dec-81	PAGE	1-7


  02E8    23             C      	INC	HL
  02E9    F5             C      	PUSH	AF
  02EA    78             C      	LD	A,B
  02EB    B1             C      	OR	C
  02EC    28 05          C      	JR	Z,A02F3
  02EE    F1             C      	POP	AF
  02EF    ED B0          C      	LDIR
  02F1    18 EE          C      	JR	A02E1
                         C      ;
  02F3                   C      A02F3:
  02F3    F1             C      	POP	AF
  02F4    21 035A        C      	LD	HL,0035AH
  02F7    3D             C      	DEC	A
  02F8    20 E7          C      	JR	NZ,A02E1
  02FA    21 F234        C      	LD	HL,0F234H
  02FD    06 0D          C      	LD	B,00DH
  02FF    54             C      	LD	D,H
  0300    5D             C      	LD	E,L
  0301    48             C      	LD	C,B
  0302                   C      A0302:
  0302    7E             C      	LD	A,(HL)
  0303    FE 20          C      	CP	020H
  0305    38 09          C      	JR	C,A0310
  0307    FE 7F          C      	CP	07FH
  0309    30 05          C      	JR	NC,A0310
  030B    23             C      	INC	HL
  030C    10 F4          C      	DJNZ	A0302
  030E    18 07          C      	JR	A0317
  0310                   C      A0310:
  0310    EB             C      	EX	DE,HL
  0311                   C      A0311:
  0311    36 20          C      	LD	(HL),' '
  0313    23             C      	INC	HL
  0314    0D             C      	DEC	C
  0315    20 FA          C      	JR	NZ,A0311
  0317                   C      A0317:
  0317    21 0F00        C      	LD	HL,00F00H
  031A                   C      A031A:
  031A    24             C      	INC	H
  031B    7E             C      	LD	A,(HL)
  031C    47             C      	LD	B,A
  031D    2F             C      	CPL
  031E    77             C      	LD	(HL),A
  031F    BE             C      	CP	(HL)
  0320    70             C      	LD	(HL),B
  0321    28 F7          C      	JR	Z,A031A
  0323    2B             C      	DEC	HL
  0324    22 F011        C      	LD	(0F011H),HL
  0327    F9             C      	LD	SP,HL
  0328    33             C      	INC	SP
  0329    2A 0406        C      	LD	HL,(00406H)
  032C    ED 4B 0408     C      	LD	BC,(00408H)
  0330    41             C      	LD	B,C
  0331                   C      A0331:
  0331    36 20          C      	LD	(HL),' '
  0333    23             C      	INC	HL
  0334    10 FB          C      	DJNZ	A0331
                         C      ;
  0336    DD 21 F99D     C      	LD	IX,0F99DH
  033A    CD A074'       C      	CALL	AA074
                         C      ;
  033D    01 0000        C      	LD	BC,0
  0340    11 0000        C      	LD	DE,0
  0343    21 0000        C      	LD	HL,0
  0346    C5             C      	PUSH	BC
  0347    F1             C      	POP	AF
  0348    DD 21 0000     C      	LD	IX,0
  034C    FD 21 0000     C      	LD	IY,0
  0350    03             C      	INC	BC
  0351    C5             C      	PUSH	BC
  0352    0B             C      	DEC	BC
  0353    ED 73 F25E     C      	LD	(0F25EH),SP
  0357    C3 0100        C      	JP	A0100
                         C      ;
  035A                   C      D035A:
  035A    F1E6           C      	DW	0F1E6H
  035C    0020           C      	DW	00020H
  035E    F243           C      	DW	0F243H
  0360    F248           C      	DW	0F248H
  0362    F222           C      	DW	0F222H
  0364    F232           C      	DW	0F232H
  0366    F222           C      	DW	0F222H
  0368    F229           C      	DW	0F229H
'SYS3 - MEOS1521 ---> Anfangslader'	MACRO-80 3.44	09-Dec-81	PAGE	1-8


  036A    F222           C      	DW	0F222H
  036C    F228           C      	DW	0F228H
  036E    F23D           C      	DW	0F23DH
  0370    F23F           C      	DW	0F23FH
  0372    F243           C      	DW	0F243H
  0374    F243           C      	DW	0F243H
  0376    F222           C      	DW	0F222H
  0378    F224           C      	DW	0F224H
  037A    F222           C      	DW	0F222H
  037C    F22A           C      	DW	0F22AH
                         C      ;
  037E                   C      D037E:
  037E    F7D0           C      	DW	0F7D0H
  0380    000C           C      	DW	0000CH
  0382    E353           C      	DW	0E353H
  0384    E3D1           C      	DW	0E3D1H
  0386    E408           C      	DW	0E408H
  0388    E4E1           C      	DW	0E4E1H
  038A    E4FC           C      	DW	0E4FCH
  038C    E517           C      	DW	0E517H
                         C      ;
  038E                   C      D038E:
  038E    F9AC           C      	DW	0F9ACH
  0390    0001           C      	DW	00001H
  0392    00             C      	DB	000H
                         C      ;
  0393                   C      D0393:
  0393    FA4C           C      	DW	0FA4CH
  0395    0001           C      	DW	00001H
  0397    00             C      	DB	000H
                         C      ;
  0398                   C      D0398:
  0398    F99D           C      	DW	0F99DH
  039A    0003           C      	DW	00003H
  039C    0000           C      	DW	00000H
  039E    D0             C      	DB	0D0H
                         C      ;
  039F                   C      D039F:
  039F    0000           C      	DW	00000H
  03A1    0000           C      	DW	00000H
                         C      ;
  03A3    FFFF           C      	DW	0FFFFH
  03A5    FFFF           C      	DW	0FFFFH
  03A7    FFFF           C      	DW	0FFFFH
  03A9    FFFF           C      	DW	0FFFFH
  03AB    FFFF           C      	DW	0FFFFH
  03AD    FFFF           C      	DW	0FFFFH
  03AF    FFFF           C      	DW	0FFFFH
  03B1    FFFF           C      	DW	0FFFFH
  03B3    FFFF           C      	DW	0FFFFH
  03B5    FFFF           C      	DW	0FFFFH
                         C      ;
  03B7                   C      D03B7:
  03B7    30 31 2E 53    C      	DB	'01.SEP.81'
  03BB    45 50 2E 38    C      
  03BF    31             C      
                         C      ;
  03C0                   C      D03C0:
  03C0    12             C      	DB	18
  03C1    00             C      	DB	000H
  03C2    0000           C      	DW	00000H
  03C4    04             C      	DB	004H
  03C5    342C           C      	DW	0342CH
                         C      ;
  03C7    B0             C      	DB	0B0H
  03C8    0083           C      	DW	00083H
  03CA    B4             C      	DB	0B4H
  03CB    8A10           C      	DW	08A10H
  03CD    B8             C      	DB	0B8H
  03CE    FBAC           C      	DW	0FBACH
  03D0    BC             C      	DB	0BCH
  03D1    ABD7           C      	DW	0ABD7H
                         C      ;
  03D3    C0             C      	DB	0C0H
  03D4    8577           C      	DW	08577H
  03D6    C4             C      	DB	0C4H
  03D7    A9C9           C      	DW	0A9C9H
  03D9    C8             C      	DB	0C8H
  03DA    4A8B           C      	DW	04A8BH
  03DC    CC             C      	DB	0CCH
  03DD    C668           C      	DW	0C668H
                         C      ;
  03DF    D0             C      	DB	0D0H
'SYS3 - MEOS1521 ---> Anfangslader'	MACRO-80 3.44	09-Dec-81	PAGE	1-9


  03E0    46D7           C      	DW	046D7H
  03E2    D4             C      	DB	0D4H
  03E3    64FD           C      	DW	064FDH
  03E5    D8             C      	DB	0D8H
  03E6    62B0           C      	DW	062B0H
  03E8    DC             C      	DB	0DCH
  03E9    9301           C      	DW	09301H
                         C      ;
  03EB    E0             C      	DB	0E0H
  03EC    6CED           C      	DW	06CEDH
  03EE    E4             C      	DB	0E4H
  03EF    6508           C      	DW	06508H
  03F1    E8             C      	DB	0E8H
  03F2    45E0           C      	DW	045E0H
  03F4    EC             C      	DB	0ECH
  03F5    3423           C      	DW	03423H
                         C      ;
                         C      ;	ORG	003FEH
  03F7                   C      	DEFS	7
  03FE                   C      D03FE:
  03FE    1803           C      	DW	01803H
                         C      ;
  0400                   C      D0400:
  0400    F013           C      	DW	0F013H
  0402    001D           C      	DW	0001DH
  0404    F70C           C      	DW	0F70CH
  0406    AFC0           C      	DW	0AFC0H
  0408    0040           C      	DW	00040H
  040A    4881           C      	DW	04881H
  040C    0000           C      	DW	00000H
  040E    08             C      	DB	008H
  040F    10             C      	DB	010H
  0410    18             C      	DB	018H
  0411    20             C      	DB	020H
  0412    28             C      	DB	028H
  0413    30             C      	DB	030H
  0414    38             C      	DB	038H
  0415    40             C      	DB	040H
  0416    48             C      	DB	048H
  0417    50             C      	DB	050H
  0418    58             C      	DB	058H
  0419    60             C      	DB	060H
  041A    68             C      	DB	068H
  041B    70             C      	DB	070H
  041C    78             C      	DB	078H
  041D    00             C      	DB	000H
  041E    AC             C      	DB	0ACH
  041F    40             C      	DB	040H
  0420    10             C      	DB	010H
                         C      ;
  0421                   C      D0421:
  0421    FB14           C      	DW	0FB14H
  0423    0006           C      	DW	00006H
  0425    CD D862        C      	CALL	0D862H
  0428    00             C      	NOP
  0429    00             C      	NOP
  042A    05             C      	DB	005H
                         C      ;
  042B                   C      A042B:
  042B    F5D0           C      	DW	0F5D0H
  042D    000E           C      	DW	0000EH
  042F    00DC           C      	DW	000DCH
  0431    00DC           C      	DW	000DCH
  0433    00DC           C      	DW	000DCH
  0435    6FDD           C      	DW	06FDDH
  0437    05D8           C      	DW	005D8H
  0439    85FB           C      	DW	085FBH
  043B    04D9           C      	DW	004D9H
                         C      ;
  043D                   C      D043D:
  043D    FBF5           C      	DW	0FBF5H
  043F    0002           C      	DW	00002H
  0441    0000           C      	DW	00000H
                         C      ;
  0443                   C      D0443:
  0443    F4B2           C      	DW	0F4B2H
  0445    0068           C      	DW	00068H
  0447    4B 44 53 61    C      	DB	"KDSabclep****  "
  044B    62 63 6C 65    C      
  044F    70 2A 2A 2A    C      
  0453    2A 20 20       C      
  0456    58 58 58 58    C      	DB	"XXXX       "	
  045A    20 20 20 20    C      
'SYS3 - MEOS1521 ---> Anfangslader'	MACRO-80 3.44	09-Dec-81	PAGE	1-10


  045E    20 20 20       C      
                         C      ;
                         C      	;ORG	$+42	;BER	42
  0461                   C      	DEFS	42
  048B    E7B8           C      	DW	0E7B8H
  048D    FFFF           C      	DW	0FFFFH
  048F    5353           C      	DW	05353H
  0491    E7B0           C      	DW	0E7B0H
  0493    FFFF           C      	DW	0FFFFH
  0495    5252           C      	DW	05252H
  0497    D381           C      	DW	0D381H
  0499    FFFF           C      	DW	0FFFFH
  049B    5151           C      	DW	05151H
  049D    D378           C      	DW	0D378H
  049F    FFFF           C      	DW	0FFFFH
  04A1    5050           C      	DW	05050H
  04A3    CF82           C      	DW	0CF82H
  04A5    FFFF           C      	DW	0FFFFH
  04A7    7000           C      	DW	07000H
  04A9    CED5           C      	DW	0CED5H
  04AB    FFFF           C      	DW	0FFFFH
  04AD    0010           C      	DW	00010H
                         C      ;
  04AF                   C      D04AF:
  04AF    F51A           C      	DW	0F51AH
  04B1    000D           C      	DW	0000DH
  04B3    0000           C      	DW	00000H
  04B5    0000           C      	DW	00000H
  04B7    00             C      	DB	000H
  04B8    0003           C      	DW	00003H
  04BA    0303           C      	DW	00303H
  04BC    0101           C      	DW	00101H
  04BE    0000           C      	DW	00000H
                         C      ;
  04C0                   C      D04C0:
  04C0    F52D           C      	DW	0F52DH
  04C2    000A           C      	DW	0000AH
  04C4    20 45 52 52    C      	DB	' ERROR '
  04C8    4F 52 20       C      
  04CB    0000           C      	DW	00000H
  04CD    20             C      	DB	' '
                         C      ;
  04CE                   C      D04CE:
  04CE    F803           C      	DW	0F803H
  04D0    0004           C      	DW	00004H
  04D2    F80D           C      	DW	0F80DH
  04D4    0001           C      	DW	00001H
                         C      ;
  04D6                   C      D04D6:
  04D6    F80E           C      	DW	0F80EH
  04D8    000A           C      	DW	0000AH
  04DA    CD D862        C      	CALL	0D862H
  04DD    00             C      	DB	000H
  04DE    00             C      	DB	000H
  04DF    03             C      	DB	003H
  04E0    F80D           C      	DW	0F80DH
  04E2    0001           C      	DW	00001H
                         C      ;
  04E4                   C      D04E4:
  04E4    F818           C      	DW	0F818H
  04E6    0004           C      	DW	00004H
  04E8    C9FF           C      	DW	0C9FFH
  04EA    C9C9           C      	DW	0C9C9H
                         C      ;
  04EC                   C      D04EC:
  04EC    F539           C      	DW	0F539H
  04EE    0090           C      	DW	00090H
  04F0    100B           C      	DW	0100BH
  04F2    D9BB           C      	DW	0D9BBH
  04F4    00E0           C      	DW	000E0H
  04F6    0000           C      	DW	00000H
  04F8    0000           C      	DW	00000H
  04FA    0000           C      	DW	00000H
  04FC    0000           C      	DW	00000H
  04FE    6650           C      	DW	06650H
  0500    D8DB           C      	DW	0D8DBH
  0502    00DC           C      	DW	000DCH
  0504    0000           C      	DW	00000H
  0506    8000           C      	DW	08000H
  0508    0000           C      	DW	00000H
  050A    5100           C      	DW	05100H
  050C    DB6B           C      	DW	0DB6BH
  050E    DCD8           C      	DW	0DCD8H
'SYS3 - MEOS1521 ---> Anfangslader'	MACRO-80 3.44	09-Dec-81	PAGE	1-11


  0510    0000           C      	DW	00000H
  0512    0000           C      	DW	00000H
  0514    0080           C      	DW	00080H
  0516    0000           C      	DW	00000H
  0518    7000           C      	DW	07000H
  051A    D8DB           C      	DW	0D8DBH
  051C    00DC           C      	DW	000DCH
  051E    0000           C      	DW	00000H
  0520    8000           C      	DW	08000H
  0522    0000           C      	DW	00000H
  0524    0000           C      	DW	00000H
  0526    DB75           C      	DW	0DB75H
  0528    DCD8           C      	DW	0DCD8H
  052A    0000           C      	DW	00000H
  052C    0000           C      	DW	00000H
  052E    0080           C      	DW	00080H
  0530    0000           C      	DW	00000H
  0532    0070           C      	DW	00070H
  0534    0000           C      	DW	00000H
  0536    0000           C      	DW	00000H
  0538    0000           C      	DW	00000H
  053A    0000           C      	DW	00000H
  053C    0000           C      	DW	00000H
  053E    5200           C      	DW	05200H
  0540    0000           C      	DW	00000H
  0542    0000           C      	DW	00000H
  0544    0000           C      	DW	00000H
  0546    0000           C      	DW	00000H
  0548    0000           C      	DW	00000H
  054A    0000           C      	DW	00000H
  054C    0053           C      	DW	00053H
  054E    0000           C      	DW	00000H
  0550    0000           C      	DW	00000H
  0552    0000           C      	DW	00000H
  0554    0000           C      	DW	00000H
  0556    0000           C      	DW	00000H
  0558    0000           C      	DW	00000H
  055A    0000           C      	DW	00000H
  055C    0000           C      	DW	00000H
  055E    0000           C      	DW	00000H
  0560    0000           C      	DW	00000H
  0562    0000           C      	DW	00000H
  0564    0000           C      	DW	00000H
  0566    0000           C      	DW	00000H
  0568    0000           C      	DW	00000H
  056A    0000           C      	DW	00000H
  056C    0000           C      	DW	00000H
  056E    0000           C      	DW	00000H
  0570    0000           C      	DW	00000H
  0572    0000           C      	DW	00000H
  0574    0000           C      	DW	00000H
  0576    0000           C      	DW	00000H
  0578    0000           C      	DW	00000H
  057A    0000           C      	DW	00000H
  057C    0000           C      	DW	00000H
  057E    0000           C      	DW	00000H
                         C      ;
  0580                   C      D0580:
  0580    F206           C      	DW	0F206H
  0582    0006           C      	DW	00006H
  0584    CD D862        C      	CALL	0D862H
  0587    00             C      	NOP
  0588    00             C      	NOP
  0589    00             C      	NOP
                         C      ;
  058A                   C      D058A:
  058A    F212           C      	DW	0F212H
  058C    0010           C      	DW	00010H
  058E    33 33 33 33    C      	DB	'3333333333333333'
  0592    33 33 33 33    C      
  0596    33 33 33 33    C      
  059A    33 33 33 33    C      
                         C      ;
  059E                   C      D059E:
  059E    F241           C      	DW	0F241H
  05A0    0002           C      	DW	00002H
  05A2    0150           C      	DW	00150H
                         C      ;
  05A4                   C      D05A4:
  05A4    F295           C      	DW	0F295H
  05A6    0001           C      	DW	00001H
  05A8    00             C      	DB	000H
                         C      ;
'SYS3 - MEOS1521 ---> Anfangslader'	MACRO-80 3.44	09-Dec-81	PAGE	1-12


  05A9                   C      D05A9:
  05A9    F2D5           C      	DW	0F2D5H
  05AB    0001           C      	DW	00001H
  05AD    00             C      	DB	000H
                         C      ;
  05AE                   C      D05AE:
  05AE    F3C6           C      	DW	0F3C6H
  05B0    0001           C      	DW	00001H
  05B2    00             C      	DB	000H
                         C      ;
  05B3                   C      D05B3:
  05B3    F4AA           C      	DW	0F4AAH
  05B5    0001           C      	DW	00001H
  05B7    00             C      	DB	000H
                         C      ;
  05B8                   C      D05B8:
  05B8    F005           C      	DW	0F005H
  05BA    000C           C      	DW	0000CH
  05BC    31 F7D0        C      	LD	SP,0F7D0H
  05BF    CD C352        C      	CALL	0C352H
  05C2    00             C      	NOP
  05C3    00             C      	NOP
  05C4    00             C      	NOP
  05C5    C3 C341        C      	JP	0C341H
                         C      ;
  05C8                   C      D05C8:
  05C8    F000           C      	DW	0F000H
  05CA    0005           C      	DW	00005H
  05CC    C3 C20E        C      	JP	0C20EH
  05CF    C267           C      	DW	0C267H
                         C      ;
  05D1                   C      D05D1:
  05D1    F297           C      	DW	0F297H
  05D3    003E           C      	DW	0003EH
                         C      	;ORG	0060BH
  05D5                   C      	DEFS	54	;036H
  060B    FF             C      	RST	38H
  060C    FF             C      	RST	38H
  060D    00             C      	NOP
  060E    00             C      	NOP
  060F    00             C      	NOP
  0610    00             C      	NOP
  0611    00             C      	NOP
  0612    00             C      	NOP
                         C      ;
  0613                   C      D0613:
  0613    FB36           C      	DW	0FB36H
  0615    0001           C      	DW	00001H
  0617    00             C      	DB	000H
                         C      ;
  0618                   C      D0618:
  0618    FB4B           C      	DW	0FB4BH
  061A    0001           C      	DW	00001H
  061C    00             C      	DB	000H
                         C      ;
  061D                   C      D061D:
  061D    FB60           C      	DW	0FB60H
  061F    0001           C      	DW	00001H
  0621    00             C      	DB	000H
                         C      ;
  0622                   C      D0622:
  0622    FB75           C      	DW	0FB75H
  0624    0001           C      	DW	00001H
  0626    00             C      	DB	000H
                         C      ;
  0627                   C      D0627:
  0627    FB8A           C      	DW	0FB8AH
  0629    0001           C      	DW	00001H
  062B    00             C      	DB	000H
                         C      ;
  062C                   C      D062C:
  062C    FB9F           C      	DW	0FB9FH
  062E    0001           C      	DW	00001H
  0630    00             C      	DB	000H
                         C      ;
  0631                   C      D0631:
  0631    FBB4           C      	DW	0FBB4H
  0633    0001           C      	DW	00001H
  0635    00             C      	DB	000H
                         C      ;
  0636                   C      D0636:
  0636    FBC9           C      	DW	0FBC9H
  0638    0001           C      	DW	00001H
'SYS3 - MEOS1521 ---> Anfangslader'	MACRO-80 3.44	09-Dec-81	PAGE	1-13


  063A    00             C      	DB	000H
                         C      ;
  063B                   C      D063B:
  063B    FBDE           C      	DW	0FBDEH
  063D    0001           C      	DW	00001H
  063F    00             C      	DB	000H
                         C      ;
  0640                   C      A0640:
  0640    F030           C      	DW	0F030H
  0642    010A           C      	DW	0010AH
  0644    20 20 20 4D    C      	DB	"   MEOS 1521"
  0648    45 4F 53 20    C      
  064C    31 35 32 31    C      
  0650    20 20 20 20    C      	DB	"     V4.2   "
  0654    20 56 34 2E    C      
  0658    32 20 20 20    C      
  065C    04             C      	DB	004H
  065D    52 45 53 45    C      	DB	"RESET  BREAK  "
  0661    54 20 20 42    C      
  0665    52 45 41 4B    C      
  0669    20 20          C      
  066B    54 49 4D 45    C      	DB	"TIMEOUT"
  066F    4F 55 54       C      
  0672    53 42 52 45    C      	DB	"SBREAK TEMO   "
  0676    41 4B 20 54    C      
  067A    45 4D 4F 20    C      
  067E    20 20          C      
  0680    4F 53 2D 4D    C      	DB	"OS-MODE"
  0684    4F 44 45       C      
  0687    49 20 20 20    C      	DB	"I   IM I=PC=SP="
  068B    49 4D 20 49    C      
  068F    3D 50 43 3D    C      
  0693    53 50 3D       C      
  0696    49 58 3D 49    C      	DB	"IX=IY="
  069A    59 3D          C      
  069C    42 43 3D 44    C      	DB	"BC=DE=HL= A="
  06A0    45 3D 48 4C    C      
  06A4    3D 20 41 3D    C      
  06A8    53 20 20 5A    C      	DB	"S  Z  H P/V N "
  06AC    20 20 48 20    C      
  06B0    50 2F 56 20    C      
  06B4    4E 20          C      
  06B6    43 59 20 46    C      	DB	"CY F="
  06BA    3D             C      
  06BB    0C             C      	DB	00CH
  06BC    19             C      	DB	019H
  06BD    2A 20          C      	DB	'* '
  06BF    04             C      	DB	004H
  06C0    18             C      	DB	018H
  06C1    18             C      	DB	018H
  06C2    3D             C      	DB	'='
  06C3    04             C      	DB	004H
  06C4    3A 20          C      	DB	': '
  06C6    04             C      	DB	004H
  06C7    41 44 44 52    C      	DB	'ADDRESS'
  06CB    45 53 53       C      
  06CE    04             C      	DB	004H
  06CF    3D 3D 3D 3D    C      	DB	'======='
  06D3    3D 3D 3D       C      
  06D6    04             C      	DB	004H
  06D7    53 4F 55 52    C      	DB	'SOURCE:  '
  06DB    43 45 3A 20    C      
  06DF    20             C      
  06E0    04             C      	DB	004H
  06E1    44 52 41 49    C      	DB	'DRAIN:   '
  06E5    4E 3A 20 20    C      
  06E9    20             C      
  06EA    04             C      	DB	004H
  06EB    42 59 54 45    C      	DB	'BYTES:   '
  06EF    53 3A 20 20    C      
  06F3    20             C      
  06F4    04             C      	DB	004H
  06F5    46 52 4F 4D    C      	DB	'FROM UMM:'
  06F9    20 55 4D 4D    C      
  06FD    3A             C      
  06FE    04             C      	DB	004H
  06FF    54 4F 20 4F    C      	DB	'TO OSM:  '
  0703    53 4D 3A 20    C      
  0707    20             C      
  0708    04             C      	DB	004H
  0709    49 4E 20 20    C      	DB	'IN  '
  070D    04             C      	DB	004H
  070E    4F 55 54 20    C      	DB	'OUT '
'SYS3 - MEOS1521 ---> Anfangslader'	MACRO-80 3.44	09-Dec-81	PAGE	1-14


  0712    04             C      	DB	004H
  0713    18             C      	DB	018H
  0714    18             C      	DB	018H
  0715    18             C      	DB	018H
  0716    20 3D 20       C      	DB	' = '
  0719    04             C      	DB	004H
  071A    43 42 59 54    C      	DB	"CBYTEDATA H-ADDL"
  071E    45 44 41 54    C      
  0722    41 20 48 2D    C      
  0726    41 44 44 4C    C      
  072A    2D 41 44 44    C      	DB	"-ADD4321 MR1"
  072E    34 33 32 31    C      
  0732    20 4D 52 31    C      
  0736    1A10           C      	DW	01A10H
  0738    1A10           C      	DW	01A10H
  073A    1A10           C      	DW	01A10H
  073C    1A10           C      	DW	01A10H
  073E    1A10           C      	DW	01A10H
  0740    1A10           C      	DW	01A10H
  0742    1A10           C      	DW	01A10H
  0744    1A10           C      	DW	01A10H
  0746    1A10           C      	DW	01A10H
  0748    1A10           C      	DW	01A10H
  074A    1A10           C      	DW	01A10H
  074C    0410           C      	DW	00410H
                         C      ;
  074E                   C      D074E:
  074E    F13A           C      	DW	0F13AH
  0750    00AA           C      	DW	000AAH
  0752    01 DC08        C      	LD	BC,0DC08H
  0755    4B             C      	LD	C,E
  0756    02             C      	LD	(BC),A
  0757    74             C      	LD	(HL),H
  0758    B3             C      	OR	E
  0759    E0             C      	RET	PO
  075A    D9             C      	EXX
  075B    BD             C      	CP	L
  075C    26 8D          C      	LD	H,08DH
  075E    5D             C      	LD	E,L
  075F    BF             C      	CP	A
  0760    4C             C      	LD	C,H
  0761    49             C      	LD	C,C
  0762    82             C      	ADD	A,D
  0763    16 02          C      	LD	D,002H
  0765    08             C      	EX	AF,AF'
  0766    18 0E          C      	JR	$+16	;0776
  0768    30 6A          C      	JR	NC,$+108	;07D4
  076A    9B             C      	SBC	A,E
  076B    95             C      	SUB	L
  076C    A0             C      	AND	B
  076D    A0             C      	AND	B
  076E    24             C      	INC	H
  076F    EB             C      	EX	DE,HL
  0770    A9             C      	XOR	C
  0771    D8             C      	RET	C
  0772    D6 53          C      	SUB	053H
  0774    2B             C      	DEC	HL
  0775    BE             C      	CP	(HL)
  0776    03             C      	INC	BC
  0777    19             C      	ADD	HL,DE
  0778    32 5A12        C      	LD	(05A12H),A
  077B    36 A0          C      	LD	(HL),0A0H
  077D    02             C      	LD	(BC),A
  077E    F1             C      	POP	AF
  077F    A8             C      	XOR	B
  0780    F6 83          C      	OR	083H
  0782    92             C      	SUB	D
  0783    C3 600D        C      	JP	0600DH
  0786    5B             C      	LD	E,E
  0787    F4 F2FA        C      	CALL	P,0F2FAH
  078A    B9             C      	CP	C
  078B    BC             C      	CP	H
  078C    19             C      	ADD	HL,DE
  078D    F9             C      	LD	SP,HL
  078E    58             C      	LD	E,B
  078F    31 74F8        C      	LD	SP,074F8H
  0792    59             C      	LD	E,C
  0793    72             C      	LD	(HL),D
  0794    18 BA          C      	JR	$-68	;0750
  0796    5A             C      	LD	E,D
  0797    B7             C      	OR	A
  0798    DC 3C2B        C      	CALL	C,03C2BH
  079B    E5             C      	PUSH	HL
'SYS3 - MEOS1521 ---> Anfangslader'	MACRO-80 3.44	09-Dec-81	PAGE	1-15


  079C    3E 63          C      	LD	A,063H
  079E    A2             C      	AND	D
  079F    84             C      	ADD	A,H
  07A0    5B             C      	LD	E,E
  07A1    94             C      	SUB	H
  07A2    EF             C      	RST	28H
  07A3    E2 7933        C      	JP	PO,07933H
  07A6    19             C      	ADD	HL,DE
  07A7    0D             C      	DEC	C
  07A8    B9             C      	CP	C
  07A9    48             C      	LD	C,B
  07AA    7A             C      	LD	A,D
  07AB    C6 62          C      	ADD	A,062H
  07AD    C6 62          C      	ADD	A,062H
  07AF    C4 BD87        C      	CALL	NZ,0BD87H
  07B2    A3             C      	AND	E
  07B3    C4 BED6        C      	CALL	NZ,0BED6H
  07B6    05             C      	DEC	B
  07B7    C4 C267        C      	CALL	NZ,0C267H
  07BA    C4 B9B7        C      	CALL	NZ,0B9B7H
  07BD    BA             C      	CP	D
  07BE    0F             C      	RRCA
  07BF    B4             C      	OR	H
  07C0    2F             C      	CPL
  07C1    B8             C      	CP	B
  07C2    77             C      	LD	(HL),A
  07C3    BF             C      	CP	A
  07C4    E7             C      	RST	20H
  07C5    BE             C      	CP	(HL)
  07C6    C2 ACBE        C      	JP	NZ,0ACBEH
  07C9    C0             C      	RET	NZ
  07CA    60             C      	LD	H,B
  07CB    F2 F25E        C      	JP	P,0F25EH
  07CE    5A             C      	LD	E,D
  07CF    F2 F25C        C      	JP	P,0F25CH
  07D2    58             C      	LD	E,B
  07D3    F2 F256        C      	JP	P,0F256H
  07D6    54             C      	LD	D,H
  07D7    F2 F254        C      	JP	P,0F254H
  07DA    55             C      	LD	D,L
  07DB    F2 F256        C      	JP	P,0F256H
  07DE    57             C      	LD	D,A
  07DF    F2 F258        C      	JP	P,0F258H
  07E2    59             C      	LD	E,C
  07E3    F2 F252        C      	JP	P,0F252H
  07E6    53             C      	LD	D,E
  07E7    F2 F262        C      	JP	P,0F262H
  07EA    80             C      	ADD	A,B
  07EB    00             C      	NOP
  07EC    04             C      	INC	B
  07ED    00             C      	NOP
  07EE    40             C      	LD	B,B
  07EF    00             C      	NOP
  07F0    01 6300        C      	LD	BC,06300H
  07F3    F2 F263        C      	JP	P,0F263H
  07F6    63             C      	LD	H,E
  07F7    F2 F264        C      	JP	P,0F264H
  07FA    64             C      	LD	H,H
  07FB    F2             C      	DB	0F2H
                         C      ;
  07FC                   C      D07FC:
  07FC    0000           C      	DW	00000H
  07FE    0000           C      	DW	00000H
                         C      	.dephase
                         C      
  A800*                  C      ENDE1 EQU $
                                
                         C      	INCLUDE	incMEOS.MAC
                         C      	TITLE	'SYS3 - MEOS1521 ---> MEOS-System'
                         C      	PAGE
'SYS3 - MEOS1521 ---> MEOS-System'	MACRO-80 3.44	09-Dec-81	PAGE	1-16


                         C      
                         C      	ORG	0B400H
  B400*                  C      B400:
  B400*   01 FC02        C      	LD	BC,0FC02H		;PC SB	REAL
  B403*                  C      B403:    
  B403*   DB F9          C      	IN	A,(0F9H)
  B405*   0C             C      	INC	C
  B406*   20 FB          C      	JR	NZ,B403
  B408*   04             C      	INC	B
  B409*   20 F8          C      	JR	NZ,B403
  B40B*   15             C      	DEC	D
  B40C*   20 F2          C      	JR	NZ,B400
  B40E*   C9             C      	RET
                         C      ;
                         C          PAGE
'SYS3 - MEOS1521 ---> MEOS-System'	MACRO-80 3.44	09-Dec-81	PAGE	1-17


                         C      
                         C      ;	===>
  B40F*                  C      B40F:
  B40F*   DB F9          C      	IN	A,(0F9H)		;"REAL  "
  B411*   DD 21 F3B8     C      	LD	IX,0F3B8H
  B415*   CD C15B        C      	CALL	0C15BH
  B418*   21 B141        C      	LD	HL,0B141H
  B41B*   11 F336        C      	LD	DE,0F336H
  B41E*   0E 12          C      	LD	C,012H
  B420*   ED B0          C      	LDIR
  B422*   0E 0E          C      	LD	C,00EH
  B424*   21 B062        C      	LD	HL,0B062H
  B427*   ED B0          C      	LDIR
  B429*   01 0420        C      	LD	BC,00420H
  B42C*   CD C16C        C      	CALL	0C16CH
  B42F*   21 F377        C      	LD	HL,0F377H
  B432*   0E 00          C      	LD	C,000H
  B434*   DB F8          C      	IN	A,(0F8H)
  B436*   47             C      	LD	B,A
  B437*   DB F9          C      	IN	A,(0F9H)
  B439*   5F             C      	LD	E,A
  B43A*   DB F8          C      	IN	A,(0F8H)
  B43C*   77             C      	LD	(HL),A
  B43D*   23             C      	INC	HL
  B43E*   DB F9          C      	IN	A,(0F9H)
  B440*   77             C      	LD	(HL),A
  B441*   23             C      	INC	HL
  B442*   70             C      	LD	(HL),B
  B443*   23             C      	INC	HL
  B444*   73             C      	LD	(HL),E
  B445*   23             C      	INC	HL
  B446*   0C             C      	INC	C
  B447*   CB 63          C      	BIT	4,E
  B449*   20 15          C      	JR	NZ,$+23	;B460
  B44B*   79             C      	LD	A,C
  B44C*   FE 08          C      	CP	008H
  B44E*   38 E4          C      	JR	C,$-26	;B434
  B450*   C5             C      	PUSH	BC
  B451*   21 F37B        C      	LD	HL,0F37BH
  B454*   11 F377        C      	LD	DE,0F377H
  B457*   01 001C        C      	LD	BC,0001CH
  B45A*   ED B0          C      	LDIR
  B45C*   C1             C      	POP	BC
  B45D*   EB             C      	EX	DE,HL
  B45E*   18 D4          C      	JR	$-42	;B434
  B460*   2B             C      	DEC	HL
  B461*   E5             C      	PUSH	HL
  B462*   11 F3B8        C      	LD	DE,0F3B8H
  B465*   06 04          C      	LD	B,004H
  B467*   2B             C      	DEC	HL
  B468*   7E             C      	LD	A,(HL)
  B469*   12             C      	LD	(DE),A
  B46A*   2B             C      	DEC	HL
  B46B*   2B             C      	DEC	HL
  B46C*   2B             C      	DEC	HL
  B46D*   13             C      	INC	DE
  B46E*   10 F7          C      	DJNZ	$-07	;B467
  B470*   E1             C      	POP	HL
  B471*   79             C      	LD	A,C
  B472*   FE 07          C      	CP	007H
  B474*   38 02          C      	JR	C,$+04	;B478
  B476*   3E 06          C      	LD	A,006H
  B478*   5F             C      	LD	E,A
  B479*   16 06          C      	LD	D,006H
  B47B*   01 0620        C      	LD	BC,00620H
  B47E*   D5             C      	PUSH	DE
  B47F*   D5             C      	PUSH	DE
  B480*   C5             C      	PUSH	BC
  B481*   E5             C      	PUSH	HL
  B482*   CB 5E          C      	BIT	3,(HL)
  B484*   28 60          C      	JR	Z,$+98	;B4E6
  B486*   B7             C      	OR	A
  B487*   28 17          C      	JR	Z,$+25	;B4A0
  B489*   2B             C      	DEC	HL
  B48A*   2B             C      	DEC	HL
  B48B*   46             C      	LD	B,(HL)
  B48C*   2B             C      	DEC	HL
  B48D*   4E             C      	LD	C,(HL)
  B48E*   ED 43 F3C2     C      	LD	(0F3C2H),BC
  B492*   CD B580        C      	CALL	0B580H
  B495*   21 F3C9        C      	LD	HL,0F3C9H
  B498*   11 F336        C      	LD	DE,0F336H
'SYS3 - MEOS1521 ---> MEOS-System'	MACRO-80 3.44	09-Dec-81	PAGE	1-18


  B49B*   01 0013        C      	LD	BC,00013H
  B49E*   ED B0          C      	LDIR
  B4A0*   E1             C      	POP	HL
  B4A1*   E5             C      	PUSH	HL
  B4A2*   7E             C      	LD	A,(HL)
  B4A3*   E6 07          C      	AND	007H
  B4A5*   21 B040        C      	LD	HL,0B040H
  B4A8*   01 0012        C      	LD	BC,00012H
  B4AB*   ED B1          C      	CPIR
  B4AD*   28 2D          C      	JR	Z,$+47	;B4DC
  B4AF*   11 F349        C      	LD	DE,0F349H
  B4B2*   E1             C      	POP	HL
  B4B3*   CD C392        C      	CALL	0C392H
  B4B6*   13             C      	INC	DE
  B4B7*   7E             C      	LD	A,(HL)
  B4B8*   E6 60          C      	AND	060H
  B4BA*   07             C      	RLCA
  B4BB*   07             C      	RLCA
  B4BC*   07             C      	RLCA
  B4BD*   F6 30          C      	OR	030H
  B4BF*   12             C      	LD	(DE),A
  B4C0*   13             C      	INC	DE
  B4C1*   06 03          C      	LD	B,003H
  B4C3*   13             C      	INC	DE
  B4C4*   2B             C      	DEC	HL
  B4C5*   CD C392        C      	CALL	0C392H
  B4C8*   10 F9          C      	DJNZ	$-05	;B4C3
  B4CA*   2B             C      	DEC	HL
  B4CB*   C1             C      	POP	BC
  B4CC*   CD C16C        C      	CALL	0C16CH
  B4CF*   D1             C      	POP	DE
  B4D0*   AF             C      	XOR	A
  B4D1*   15             C      	DEC	D
  B4D2*   1D             C      	DEC	E
  B4D3*   20 AA          C      	JR	NZ,$-84	;B47F
  B4D5*   BA             C      	CP	D
  B4D6*   28 1B          C      	JR	Z,$+29	;B4F3
  B4D8*   1C             C      	INC	E
  B4D9*   D5             C      	PUSH	DE
  B4DA*   18 F0          C      	JR	$-14	;B4CC
  B4DC*   0E 02          C      	LD	C,002H
  B4DE*   11 F349        C      	LD	DE,0F349H
  B4E1*   ED B0          C      	LDIR
  B4E3*   E1             C      	POP	HL
  B4E4*   18 D0          C      	JR	$-46	;B4B6
  B4E6*   21 B05E        C      	LD	HL,0B05EH
  B4E9*   11 F33B        C      	LD	DE,0F33BH
  B4EC*   01 0004        C      	LD	BC,00004H
  B4EF*   ED B0          C      	LDIR
  B4F1*   18 BC          C      	JR	$-66	;B4AF
  B4F3*   D1             C      	POP	DE
  B4F4*   53             C      	LD	D,E
  B4F5*   CD C81B        C      	CALL	0C81BH
  B4F8*   FE 08          C      	CP	008H
  B4FA*   28 25          C      	JR	Z,$+39	;B521
  B4FC*   FE 1F          C      	CP	01FH
  B4FE*   20 0A          C      	JR	NZ,$+12	;B50A
  B500*   16 01          C      	LD	D,001H
  B502*   CD B400        C      	CALL	0B400H
  B505*   DB F9          C      	IN	A,(0F9H)
  B507*   C3 C267        C      	JP	0C267H
  B50A*   FE 18          C      	CP	018H
  B50C*   20 E7          C      	JR	NZ,$-23	;B4F5
  B50E*   14             C      	INC	D
  B50F*   1E 02          C      	LD	E,002H
  B511*   CD B400        C      	CALL	0B400H
  B514*   DB F9          C      	IN	A,(0F9H)
  B516*   CB 67          C      	BIT	4,A
  B518*   DB F9          C      	IN	A,(0F9H)
  B51A*   16 02          C      	LD	D,002H
  B51C*   28 F3          C      	JR	Z,$-11	;B511
  B51E*   1D             C      	DEC	E
  B51F*   20 F0          C      	JR	NZ,$-14	;B511
  B521*   C3 B415        C      	JP	0B415H
                         C          PAGE
'SYS3 - MEOS1521 ---> MEOS-System'	MACRO-80 3.44	09-Dec-81	PAGE	1-19


                         C      
                         C      ;
  B524*                  C      B524:
  B524*   21 F296        C      	LD	HL,0F296H		;PC SC   TEMO
  B527*   36 00          C      	LD	(HL),000H
  B529*   0E 07          C      	LD	C,007H
  B52B*   23             C      	INC	HL
  B52C*   56             C      	LD	D,(HL)
  B52D*   23             C      	INC	HL
  B52E*   5E             C      	LD	E,(HL)
  B52F*   23             C      	INC	HL
  B530*   7E             C      	LD	A,(HL)
  B531*   23             C      	INC	HL
  B532*   3C             C      	INC	A
  B533*   28 35          C      	JR	Z,$+55	;B56A
  B535*   3D             C      	DEC	A
  B536*   FE 42          C      	CP	042H
  B538*   28 04          C      	JR	Z,$+06	;B53E
  B53A*   FE 54          C      	CP	054H
  B53C*   20 2C          C      	JR	NZ,$+46	;B56A
  B53E*   47             C      	LD	B,A
  B53F*   C5             C      	PUSH	BC
  B540*   46             C      	LD	B,(HL)
  B541*   CD E875        C      	CALL	0E875H
  B544*   EB             C      	EX	DE,HL
  B545*   CD E87B        C      	CALL	0E87BH
  B548*   12             C      	LD	(DE),A
  B549*   ED 4B F260     C      	LD	BC,(0F260H)
  B54D*   B7             C      	OR	A
  B54E*   ED 42          C      	SBC	HL,BC
  B550*   C1             C      	POP	BC
  B551*   62             C      	LD	H,D
  B552*   6B             C      	LD	L,E
  B553*   20 15          C      	JR	NZ,$+23	;B56A
  B555*   FE 7F          C      	CP	07FH
  B557*   20 0D          C      	JR	NZ,$+15	;B566
  B559*   78             C      	LD	A,B
  B55A*   FE 54          C      	CP	054H
  B55C*   28 08          C      	JR	Z,$+10	;B566
  B55E*   06 04          C      	LD	B,004H
  B560*   36 FF          C      	LD	(HL),0FFH
  B562*   2B             C      	DEC	HL
  B563*   10 FB          C      	DJNZ	$-03	;B560
  B565*   EB             C      	EX	DE,HL
  B566*   78             C      	LD	A,B
  B567*   32 F296        C      	LD	(0F296H),A
  B56A*   0D             C      	DEC	C
  B56B*   20 BE          C      	JR	NZ,$-64	;B52B
  B56D*   3A F296        C      	LD	A,(0F296H)
  B570*   FE 54          C      	CP	054H
  B572*   C9             C      	RET
  B573*   3E 07          C      	LD	A,007H
  B575*   1E 4B          C      	LD	E,04BH
  B577*   CD CA6E        C      	CALL	0CA6EH
  B57A*   B7             C      	OR	A
  B57B*   C0             C      	RET	NZ
  B57C*   7A             C      	LD	A,D
  B57D*   FE 42          C      	CP	042H
  B57F*   C9             C      	RET
  B580*   06 60          C      	LD	B,060H
  B582*   21 F3C9        C      	LD	HL,0F3C9H
  B585*   36 20          C      	LD	(HL),020H
  B587*   23             C      	INC	HL
  B588*   10 FB          C      	DJNZ	$-03	;B585
  B58A*   21 F3B8        C      	LD	HL,0F3B8H
  B58D*   16 00          C      	LD	D,000H
  B58F*   7E             C      	LD	A,(HL)
  B590*   FE CB          C      	CP	0CBH
  B592*   20 04          C      	JR	NZ,$+06	;B598
  B594*   14             C      	INC	D
  B595*   C3 B64A        C      	JP	0B64AH
  B598*   FE ED          C      	CP	0EDH
  B59A*   20 50          C      	JR	NZ,$+82	;B5EC
  B59C*   16 02          C      	LD	D,002H
  B59E*   23             C      	INC	HL
  B59F*   7E             C      	LD	A,(HL)
  B5A0*   FE 80          C      	CP	080H
  B5A2*   38 16          C      	JR	C,$+24	;B5BA
  B5A4*   CB 5F          C      	BIT	3,A
  B5A6*   28 02          C      	JR	Z,$+04	;B5AA
  B5A8*   D6 04          C      	SUB	004H
  B5AA*   FE B0          C      	CP	0B0H
'SYS3 - MEOS1521 ---> MEOS-System'	MACRO-80 3.44	09-Dec-81	PAGE	1-20


  B5AC*   38 02          C      	JR	C,$+04	;B5B0
  B5AE*   D6 08          C      	SUB	008H
  B5B0*   D6 5A          C      	SUB	05AH
  B5B2*   4F             C      	LD	C,A
  B5B3*   06 00          C      	LD	B,000H
  B5B5*   1E 0D          C      	LD	E,00DH
  B5B7*   C3 B64C        C      	JP	0B64CH
  B5BA*   5F             C      	LD	E,A
  B5BB*   E6 0F          C      	AND	00FH
  B5BD*   F6 70          C      	OR	070H
  B5BF*   4F             C      	LD	C,A
  B5C0*   06 00          C      	LD	B,000H
  B5C2*   21 B000        C      	LD	HL,0B000H
  B5C5*   09             C      	ADD	HL,BC
  B5C6*   7B             C      	LD	A,E
  B5C7*   0E 58          C      	LD	C,058H
  B5C9*   FE 70          C      	CP	070H
  B5CB*   28 12          C      	JR	Z,$+20	;B5DF
  B5CD*   0E 42          C      	LD	C,042H
  B5CF*   FE 56          C      	CP	056H
  B5D1*   28 0C          C      	JR	Z,$+14	;B5DF
  B5D3*   0E 44          C      	LD	C,044H
  B5D5*   FE 67          C      	CP	067H
  B5D7*   28 06          C      	JR	Z,$+08	;B5DF
  B5D9*   0C             C      	INC	C
  B5DA*   FE 6F          C      	CP	06FH
  B5DC*   28 01          C      	JR	Z,$+03	;B5DF
  B5DE*   4E             C      	LD	C,(HL)
  B5DF*   C5             C      	PUSH	BC
  B5E0*   7B             C      	LD	A,E
  B5E1*   C6 40          C      	ADD	A,040H
  B5E3*   4F             C      	LD	C,A
  B5E4*   21 B000        C      	LD	HL,0B000H
  B5E7*   09             C      	ADD	HL,BC
  B5E8*   C1             C      	POP	BC
  B5E9*   46             C      	LD	B,(HL)
  B5EA*   18 5E          C      	JR	$+96	;B64A
  B5EC*   FE DD          C      	CP	0DDH
  B5EE*   28 05          C      	JR	Z,$+07	;B5F5
  B5F0*   FE FD          C      	CP	0FDH
  B5F2*   20 0E          C      	JR	NZ,$+16	;B602
  B5F4*   B7             C      	OR	A
  B5F5*   16 04          C      	LD	D,004H
  B5F7*   28 02          C      	JR	Z,$+04	;B5FB
  B5F9*   16 08          C      	LD	D,008H
  B5FB*   23             C      	INC	HL
  B5FC*   7E             C      	LD	A,(HL)
  B5FD*   FE CB          C      	CP	0CBH
  B5FF*   20 01          C      	JR	NZ,$+03	;B602
  B601*   14             C      	INC	D
  B602*   6F             C      	LD	L,A
  B603*   06 00          C      	LD	B,000H
  B605*   FE C0          C      	CP	0C0H
  B607*   30 1B          C      	JR	NC,$+29	;B624
  B609*   FE 80          C      	CP	080H
  B60B*   38 0B          C      	JR	C,$+13	;B618
  B60D*   E6 38          C      	AND	038H
  B60F*   0F             C      	RRCA
  B610*   0F             C      	RRCA
  B611*   0F             C      	RRCA
  B612*   C6 0D          C      	ADD	A,00DH
  B614*   4F             C      	LD	C,A
  B615*   7D             C      	LD	A,L
  B616*   18 12          C      	JR	$+20	;B62A
  B618*   0E 23          C      	LD	C,023H
  B61A*   FE 76          C      	CP	076H
  B61C*   28 0C          C      	JR	Z,$+14	;B62A
  B61E*   0E 01          C      	LD	C,001H
  B620*   FE 40          C      	CP	040H
  B622*   30 06          C      	JR	NC,$+08	;B62A
  B624*   4D             C      	LD	C,L
  B625*   21 B000        C      	LD	HL,0B000H
  B628*   09             C      	ADD	HL,BC
  B629*   4E             C      	LD	C,(HL)
  B62A*   FE C0          C      	CP	0C0H
  B62C*   30 12          C      	JR	NC,$+20	;B640
  B62E*   06 E2          C      	LD	B,0E2H
  B630*   FE 80          C      	CP	080H
  B632*   30 16          C      	JR	NC,$+24	;B64A
  B634*   06 00          C      	LD	B,000H
  B636*   FE 76          C      	CP	076H
  B638*   28 10          C      	JR	Z,$+18	;B64A
  B63A*   06 E8          C      	LD	B,0E8H
'SYS3 - MEOS1521 ---> MEOS-System'	MACRO-80 3.44	09-Dec-81	PAGE	1-21


  B63C*   FE 40          C      	CP	040H
  B63E*   30 0A          C      	JR	NC,$+12	;B64A
  B640*   C5             C      	PUSH	BC
  B641*   06 00          C      	LD	B,000H
  B643*   4D             C      	LD	C,L
  B644*   21 B100        C      	LD	HL,0B100H
  B647*   09             C      	ADD	HL,BC
  B648*   C1             C      	POP	BC
  B649*   46             C      	LD	B,(HL)
  B64A*   1E 00          C      	LD	E,000H
  B64C*   ED 43 F3BE     C      	LD	(0F3BEH),BC
  B650*   ED 53 F3C0     C      	LD	(0F3C0H),DE
  B654*   11 F3C9        C      	LD	DE,0F3C9H
  B657*   01 F3C3        C      	LD	BC,0F3C3H
  B65A*   CD C395        C      	CALL	0C395H
  B65D*   0B             C      	DEC	BC
  B65E*   CD C395        C      	CALL	0C395H
  B661*   13             C      	INC	DE
  B662*   01 0004        C      	LD	BC,00004H
  B665*   3A F3C1        C      	LD	A,(0F3C1H)
  B668*   21 B300        C      	LD	HL,0B300H
  B66B*   CB 0F          C      	RRC	A
  B66D*   30 6B          C      	JR	NC,$+109	;B6DA
  B66F*   0F             C      	RRCA
  B670*   0F             C      	RRCA
  B671*   3A F3B9        C      	LD	A,(0F3B9H)
  B674*   E2 B67A        C      	JP	PO,0B67AH
  B677*   3A F3BB        C      	LD	A,(0F3BBH)
  B67A*   F5             C      	PUSH	AF
  B67B*   FE 40          C      	CP	040H
  B67D*   30 3F          C      	JR	NC,$+65	;B6BE
  B67F*   E6 38          C      	AND	038H
  B681*   0F             C      	RRCA
  B682*   F6 80          C      	OR	080H
  B684*   C5             C      	PUSH	BC
  B685*   4F             C      	LD	C,A
  B686*   09             C      	ADD	HL,BC
  B687*   C1             C      	POP	BC
  B688*   ED B0          C      	LDIR
  B68A*   13             C      	INC	DE
  B68B*   F1             C      	POP	AF
  B68C*   EA B69B        C      	JP	PE,0B69BH
  B68F*   01 0001        C      	LD	BC,00001H
  B692*   E6 07          C      	AND	007H
  B694*   F6 E0          C      	OR	0E0H
  B696*   6F             C      	LD	L,A
  B697*   FE E6          C      	CP	0E6H
  B699*   20 19          C      	JR	NZ,$+27	;B6B4
  B69B*   3A F3C1        C      	LD	A,(0F3C1H)
  B69E*   E6 0C          C      	AND	00CH
  B6A0*   FE 04          C      	CP	004H
  B6A2*   3E 0D          C      	LD	A,00DH
  B6A4*   38 0B          C      	JR	C,$+13	;B6B1
  B6A6*   2E DA          C      	LD	L,0DAH
  B6A8*   3E 0C          C      	LD	A,00CH
  B6AA*   0E 06          C      	LD	C,006H
  B6AC*   20 03          C      	JR	NZ,$+05	;B6B1
  B6AE*   3D             C      	DEC	A
  B6AF*   2E D4          C      	LD	L,0D4H
  B6B1*   32 F3C0        C      	LD	(0F3C0H),A
  B6B4*   C5             C      	PUSH	BC
  B6B5*   4D             C      	LD	C,L
  B6B6*   21 B300        C      	LD	HL,0B300H
  B6B9*   09             C      	ADD	HL,BC
  B6BA*   C1             C      	POP	BC
  B6BB*   ED B0          C      	LDIR
  B6BD*   C9             C      	RET
                         C      ;
                         C          PAGE
'SYS3 - MEOS1521 ---> MEOS-System'	MACRO-80 3.44	09-Dec-81	PAGE	1-22


                         C      
  B6BE*                  C      B6BE:
  B6BE*   0F             C      	RRCA
  B6BF*   0F             C      	RRCA
  B6C0*   0F             C      	RRCA
  B6C1*   F5             C      	PUSH	AF
  B6C2*   0F             C      	RRCA
  B6C3*   E6 0C          C      	AND	00CH
  B6C5*   F6 70          C      	OR	070H
  B6C7*   C5             C      	PUSH	BC
  B6C8*   4F             C      	LD	C,A
  B6C9*   09             C      	ADD	HL,BC
  B6CA*   C1             C      	POP	BC
  B6CB*   ED B0          C      	LDIR
  B6CD*   13             C      	INC	DE
  B6CE*   F1             C      	POP	AF
  B6CF*   E6 07          C      	AND	007H
  B6D1*   F6 30          C      	OR	030H
  B6D3*   12             C      	LD	(DE),A
  B6D4*   13             C      	INC	DE
  B6D5*   3E 2C          C      	LD	A,02CH
  B6D7*   12             C      	LD	(DE),A
  B6D8*   18 B0          C      	JR	$-78	;B68A
  B6DA*   3A F3BE        C      	LD	A,(0F3BEH)
  B6DD*   FE 40          C      	CP	040H
  B6DF*   30 01          C      	JR	NC,$+03	;B6E2
  B6E1*   25             C      	DEC	H
  B6E2*   E6 3F          C      	AND	03FH
  B6E4*   07             C      	RLCA
  B6E5*   07             C      	RLCA
  B6E6*   C5             C      	PUSH	BC
  B6E7*   4F             C      	LD	C,A
  B6E8*   09             C      	ADD	HL,BC
  B6E9*   C1             C      	POP	BC
  B6EA*   ED B0          C      	LDIR
  B6EC*   13             C      	INC	DE
  B6ED*   21 F3B8        C      	LD	HL,0F3B8H
  B6F0*   7E             C      	LD	A,(HL)
  B6F1*   E6 C7          C      	AND	0C7H
  B6F3*   FE C7          C      	CP	0C7H
  B6F5*   20 08          C      	JR	NZ,$+10	;B6FF
  B6F7*   7E             C      	LD	A,(HL)
  B6F8*   E6 38          C      	AND	038H
  B6FA*   77             C      	LD	(HL),A
  B6FB*   7E             C      	LD	A,(HL)
  B6FC*   C3 C3A8        C      	JP	0C3A8H
  B6FF*   3A F3BF        C      	LD	A,(0F3BFH)
  B702*   B7             C      	OR	A
  B703*   C8             C      	RET	Z
  B704*   FE 04          C      	CP	004H
  B706*   30 1B          C      	JR	NC,$+29	;B723
  B708*   4F             C      	LD	C,A
  B709*   3A F3C1        C      	LD	A,(0F3C1H)
  B70C*   B7             C      	OR	A
  B70D*   28 06          C      	JR	Z,$+08	;B715
  B70F*   0C             C      	INC	C
  B710*   FE 08          C      	CP	008H
  B712*   20 01          C      	JR	NZ,$+03	;B715
  B714*   0C             C      	INC	C
  B715*   79             C      	LD	A,C
  B716*   32 F3C0        C      	LD	(0F3C0H),A
  B719*   3D             C      	DEC	A
  B71A*   07             C      	RLCA
  B71B*   07             C      	RLCA
  B71C*   F6 C0          C      	OR	0C0H
  B71E*   6F             C      	LD	L,A
  B71F*   0E 04          C      	LD	C,004H
  B721*   18 91          C      	JR	$-109	;B6B4
  B723*   FE F0          C      	CP	0F0H
  B725*   21 F3B9        C      	LD	HL,0F3B9H
  B728*   28 D1          C      	JR	Z,$-45	;B6FB
  B72A*   4F             C      	LD	C,A
  B72B*   E6 F0          C      	AND	0F0H
  B72D*   FE E0          C      	CP	0E0H
  B72F*   79             C      	LD	A,C
  B730*   20 3A          C      	JR	NZ,$+60	;B76C
  B732*   CB 09          C      	RRC	C
  B734*   38 0A          C      	JR	C,$+12	;B740
  B736*   2B             C      	DEC	HL
  B737*   47             C      	LD	B,A
  B738*   3A F3C1        C      	LD	A,(0F3C1H)
  B73B*   B7             C      	OR	A
'SYS3 - MEOS1521 ---> MEOS-System'	MACRO-80 3.44	09-Dec-81	PAGE	1-23


  B73C*   28 01          C      	JR	Z,$+03	;B73F
  B73E*   23             C      	INC	HL
  B73F*   78             C      	LD	A,B
  B740*   E5             C      	PUSH	HL
  B741*   F5             C      	PUSH	AF
  B742*   7E             C      	LD	A,(HL)
  B743*   CB 09          C      	RRC	C
  B745*   38 03          C      	JR	C,$+05	;B74A
  B747*   0F             C      	RRCA
  B748*   0F             C      	RRCA
  B749*   0F             C      	RRCA
  B74A*   CD B68F        C      	CALL	0B68FH
  B74D*   F1             C      	POP	AF
  B74E*   E1             C      	POP	HL
  B74F*   FE E4          C      	CP	0E4H
  B751*   D8             C      	RET	C
  B752*   4F             C      	LD	C,A
  B753*   3E 2C          C      	LD	A,02CH
  B755*   12             C      	LD	(DE),A
  B756*   13             C      	INC	DE
  B757*   79             C      	LD	A,C
  B758*   FE E8          C      	CP	0E8H
  B75A*   20 04          C      	JR	NZ,$+06	;B760
  B75C*   7E             C      	LD	A,(HL)
  B75D*   C3 B68F        C      	JP	0B68FH
                         C      ;
                         C          PAGE
'SYS3 - MEOS1521 ---> MEOS-System'	MACRO-80 3.44	09-Dec-81	PAGE	1-24


                         C      
  B760*                  C      B760:
  B760*   23             C      	INC	HL
  B761*   3A F3C1        C      	LD	A,(0F3C1H)
  B764*   B7             C      	OR	A
  B765*   CA B6FB        C      	JP	Z,0B6FBH
  B768*   3E 4E          C      	LD	A,04EH
  B76A*   12             C      	LD	(DE),A
  B76B*   C9             C      	RET
  B76C*   0F             C      	RRCA
  B76D*   0F             C      	RRCA
  B76E*   0F             C      	RRCA
  B76F*   0F             C      	RRCA
  B770*   CD B77F        C      	CALL	0B77FH
  B773*   3A F3BF        C      	LD	A,(0F3BFH)
  B776*   47             C      	LD	B,A
  B777*   E6 0F          C      	AND	00FH
  B779*   C8             C      	RET	Z
  B77A*   3E 2C          C      	LD	A,02CH
  B77C*   12             C      	LD	(DE),A
  B77D*   13             C      	INC	DE
  B77E*   78             C      	LD	A,B
  B77F*   E6 0F          C      	AND	00FH
  B781*   01 0004        C      	LD	BC,00004H
  B784*   B9             C      	CP	C
  B785*   30 10          C      	JR	NC,$+18	;B797
  B787*   F5             C      	PUSH	AF
  B788*   07             C      	RLCA
  B789*   07             C      	RLCA
  B78A*   C6 A0          C      	ADD	A,0A0H
  B78C*   6F             C      	LD	L,A
  B78D*   F1             C      	POP	AF
  B78E*   3C             C      	INC	A
  B78F*   C6 06          C      	ADD	A,006H
  B791*   32 F3C0        C      	LD	(0F3C0H),A
  B794*   C3 B6B4        C      	JP	0B6B4H
  B797*   CB 09          C      	RRC	C
  B799*   FE 09          C      	CP	009H
  B79B*   30 0C          C      	JR	NC,$+14	;B7A9
  B79D*   D6 05          C      	SUB	005H
  B79F*   F5             C      	PUSH	AF
  B7A0*   07             C      	RLCA
  B7A1*   C6 B0          C      	ADD	A,0B0H
  B7A3*   6F             C      	LD	L,A
  B7A4*   F1             C      	POP	AF
  B7A5*   28 E8          C      	JR	Z,$-22	;B78F
  B7A7*   18 EB          C      	JR	$-19	;B794
  B7A9*   20 13          C      	JR	NZ,$+21	;B7BE
  B7AB*   2E B8          C      	LD	L,0B8H
  B7AD*   3A F3C1        C      	LD	A,(0F3C1H)
  B7B0*   E6 0C          C      	AND	00CH
  B7B2*   FE 04          C      	CP	004H
  B7B4*   38 DE          C      	JR	C,$-32	;B794
  B7B6*   2E BA          C      	LD	L,0BAH
  B7B8*   28 DA          C      	JR	Z,$-36	;B794
  B7BA*   2E BC          C      	LD	L,0BCH
  B7BC*   18 D6          C      	JR	$-40	;B794
  B7BE*   0D             C      	DEC	C
  B7BF*   C6 B3          C      	ADD	A,0B3H
  B7C1*   6F             C      	LD	L,A
  B7C2*   18 D0          C      	JR	$-46	;B794
                         C      ;
                         C          PAGE
'SYS3 - MEOS1521 ---> MEOS-System'	MACRO-80 3.44	09-Dec-81	PAGE	1-25


                         C      
                         C      ;	===>
  B7C4*   21 F2D5        C      	LD	HL,0F2D5H		;"TEMO  "   Eingang
  B7C7*   CB C6          C      	SET	0,(HL)
  B7C9*   AF             C      	XOR	A
  B7CA*   32 F46A        C      	LD	(0F46AH),A
  B7CD*   21 F2D5        C      	LD	HL,0F2D5H
  B7D0*   CB 9E          C      	RES	3,(HL)
  B7D2*   2A F260        C      	LD	HL,(0F260H)
  B7D5*   22 F3C2        C      	LD	(0F3C2H),HL
  B7D8*   EB             C      	EX	DE,HL
  B7D9*   3E FF          C      	LD	A,0FFH
  B7DB*   21 F30D        C      	LD	HL,0F30DH
  B7DE*   73             C      	LD	(HL),E
  B7DF*   23             C      	INC	HL
  B7E0*   77             C      	LD	(HL),A
  B7E1*   23             C      	INC	HL
  B7E2*   72             C      	LD	(HL),D
  B7E3*   23             C      	INC	HL
  B7E4*   77             C      	LD	(HL),A
  B7E5*   23             C      	INC	HL
  B7E6*   23             C      	INC	HL
  B7E7*   36 00          C      	LD	(HL),000H
  B7E9*   23             C      	INC	HL
  B7EA*   36 04          C      	LD	(HL),004H
  B7EC*   23             C      	INC	HL
  B7ED*   36 07          C      	LD	(HL),007H
  B7EF*   21 F335        C      	LD	HL,0F335H
  B7F2*   CB E6          C      	SET	4,(HL)
  B7F4*   2A F254        C      	LD	HL,(0F254H)
  B7F7*   22 F3C4        C      	LD	(0F3C4H),HL
  B7FA*   21 F482        C      	LD	HL,0F482H
  B7FD*   11 F488        C      	LD	DE,0F488H
                         C      ;               B800
  B800*   01 0018        C      	LD	BC,00018H
  B803*   ED B8          C      	LDDR
  B805*   34             C      	INC	(HL)
  B806*   3E 05          C      	LD	A,005H
  B808*   BE             C      	CP	(HL)
  B809*   30 01          C      	JR	NC,$+03	;B80C
  B80B*   77             C      	LD	(HL),A
  B80C*   2A F260        C      	LD	HL,(0F260H)
  B80F*   22 F46B        C      	LD	(0F46BH),HL
  B812*   11 F46D        C      	LD	DE,0F46DH
  B815*   01 F3B8        C      	LD	BC,0F3B8H
  B818*   3E 04          C      	LD	A,004H
  B81A*   F5             C      	PUSH	AF
  B81B*   CD E881        C      	CALL	0E881H
  B81E*   12             C      	LD	(DE),A
  B81F*   02             C      	LD	(BC),A
  B820*   23             C      	INC	HL
  B821*   13             C      	INC	DE
  B822*   03             C      	INC	BC
  B823*   F1             C      	POP	AF
  B824*   3D             C      	DEC	A
  B825*   20 F3          C      	JR	NZ,$-11	;B81A
  B827*   3E 10          C      	LD	A,010H
  B829*   32 F26B        C      	LD	(0F26BH),A
  B82C*   C3 C698        C      	JP	0C698H
                         C      ;
                         C          PAGE
'SYS3 - MEOS1521 ---> MEOS-System'	MACRO-80 3.44	09-Dec-81	PAGE	1-26


                         C      
                         C      ;	===>
  B82F*   3A F26B        C      	LD	A,(0F26BH)		;"TEMO  "  Fortsetzung
  B832*   FE 10          C      	CP	010H
  B834*   C2 C34B        C      	JP	NZ,0C34BH
  B837*   18 94          C      	JR	$-106	;B7CD
  B839*   21 F335        C      	LD	HL,0F335H
  B83C*   CB A6          C      	RES	4,(HL)
  B83E*   ED 5B F3C2     C      	LD	DE,(0F3C2H)
  B842*   21 F296        C      	LD	HL,0F296H
  B845*   06 06          C      	LD	B,006H
  B847*   23             C      	INC	HL
  B848*   4E             C      	LD	C,(HL)
  B849*   23             C      	INC	HL
  B84A*   7E             C      	LD	A,(HL)
  B84B*   23             C      	INC	HL
  B84C*   BB             C      	CP	E
  B84D*   20 04          C      	JR	NZ,$+06	;B853
  B84F*   79             C      	LD	A,C
  B850*   BA             C      	CP	D
  B851*   28 11          C      	JR	Z,$+19	;B864
  B853*   23             C      	INC	HL
  B854*   10 F1          C      	DJNZ	$-13	;B847
  B856*   00             C      	NOP
  B857*   CD EFF9        C      	CALL	0EFF9H
  B85A*   28 1C          C      	JR	Z,$+30	;B878
  B85C*   7E             C      	LD	A,(HL)
  B85D*   E6 03          C      	AND	003H
  B85F*   20 19          C      	JR	NZ,$+27	;B87A
  B861*   C3 B7D2        C      	JP	0B7D2H
  B864*   7E             C      	LD	A,(HL)
  B865*   FE 52          C      	CP	052H
  B867*   CA C67F        C      	JP	Z,0C67FH
  B86A*   FE 34          C      	CP	034H
  B86C*   30 E5          C      	JR	NC,$-25	;B853
  B86E*   21 F2D5        C      	LD	HL,0F2D5H
  B871*   CB 4E          C      	BIT	1,(HL)
  B873*   28 02          C      	JR	Z,$+04	;B877
  B875*   CB D7          C      	SET	2,A
  B877*   77             C      	LD	(HL),A
  B878*   CB DE          C      	SET	3,(HL)
  B87A*   CD B580        C      	CALL	0B580H
  B87D*   3A F3C0        C      	LD	A,(0F3C0H)
  B880*   FE 02          C      	CP	002H
  B882*   DA B938        C      	JP	C,0B938H
  B885*   07             C      	RLCA
  B886*   4F             C      	LD	C,A
  B887*   06 00          C      	LD	B,000H
  B889*   21 B8AC        C      	LD	HL,0B8ACH
  B88C*   09             C      	ADD	HL,BC
  B88D*   7E             C      	LD	A,(HL)
  B88E*   23             C      	INC	HL
  B88F*   66             C      	LD	H,(HL)
  B890*   6F             C      	LD	L,A
  B891*   01 B914        C      	LD	BC,0B914H
  B894*   C5             C      	PUSH	BC
  B895*   E5             C      	PUSH	HL
  B896*   C9             C      	RET
                         C      ;
  B897*                  C      B897:
  B897*   0A             C      	LD	A,(BC)
  B898*   16 2B          C      	LD	D,02BH
  B89A*   06 00          C      	LD	B,000H
  B89C*   4F             C      	LD	C,A
  B89D*   CB 7F          C      	BIT	7,A
  B89F*   28 05          C      	JR	Z,$+07	;B8A6
  B8A1*   16 2D          C      	LD	D,02DH
  B8A3*   05             C      	DEC	B
  B8A4*   ED 44          C      	NEG
  B8A6*   F5             C      	PUSH	AF
  B8A7*   09             C      	ADD	HL,BC
  B8A8*   7A             C      	LD	A,D
  B8A9*   11 F3E6        C      	LD	DE,0F3E6H
  B8AC*   12             C      	LD	(DE),A
  B8AD*   13             C      	INC	DE
  B8AE*   F1             C      	POP	AF
  B8AF*   C9             C      	RET
                         C      ;    
  B8B0*   C8             C      	RET	Z
  B8B1*   B8             C      	CP	B
  B8B2*   DC A0B8        C      	CALL	C,	0A0B8H
  B8B5*   B8             C      	CP	B
'SYS3 - MEOS1521 ---> MEOS-System'	MACRO-80 3.44	09-Dec-81	PAGE	1-27


  B8B6*   E4 E8B8        C      	CALL	PO,0E8B8H
  B8B9*   B8             C      	CP	B
  B8BA*   F4 F8B8        C      	CALL	P,0F8B8H
  B8BD*   B8             C      	CP	B
  B8BE*   FC E8B8        C      	CALL	M,0E8B8H
  B8C1*   B8             C      	CP	B
  B8C2*   00             C      	NOP
  B8C3*   B9             C      	CP	C
  B8C4*   0B             C      	DEC	BC
  B8C5*   B9             C      	CP	C
  B8C6*   10 B9          C      	DJNZ	$-69	;B881
  B8C8*   2A F3C2        C      	LD	HL,(0F3C2H)
  B8CB*   23             C      	INC	HL
  B8CC*   23             C      	INC	HL
  B8CD*   01 F3B9        C      	LD	BC,0F3B9H
  B8D0*   CD B897        C      	CALL	0B897H
  B8D3*   28 02          C      	JR	Z,$+04	;B8D7
  B8D5*   D6 04          C      	SUB	004H
  B8D7*   C6 02          C      	ADD	A,002H
  B8D9*   C3 C396        C      	JP	0C396H
  B8DC*   2A F254        C      	LD	HL,(0F254H)
  B8DF*   C9             C      	RET
                         C      ;
  B8E0*                  C      B8E0:
  B8E0*   2A F25C        C      	LD	HL,(0F25CH)
  B8E3*   C9             C      	RET
                         C      ;
  B8E4*   2A F25A        C      	LD	HL,(0F25AH)
  B8E7*   C9             C      	RET
                         C      ;
  B8E8*   2A F3B9        C      	LD	HL,(0F3B9H)
  B8EB*   3A F3C1        C      	LD	A,(0F3C1H)
  B8EE*   B7             C      	OR	A
  B8EF*   C8             C      	RET	Z
  B8F0*   2A F3BA        C      	LD	HL,(0F3BAH)
  B8F3*   C9             C      	RET
                         C      ;
  B8F4*   2A F25E        C      	LD	HL,(0F25EH)
  B8F7*   C9             C      	RET
                         C      ;
  B8F8*   2A F258        C      	LD	HL,(0F258H)
  B8FB*   C9             C      	RET
                         C      ;
  B8FC*   2A F256        C      	LD	HL,(0F256H)
  B8FF*   C9             C      	RET
                         C      ;
  B900*   2A F25C        C      	LD	HL,(0F25CH)
  B903*   01 F3BA        C      	LD	BC,0F3BAH
  B906*   CD B897        C      	CALL	0B897H
  B909*   18 CE          C      	JR	$-48	;B8D9
  B90B*   2A F25A        C      	LD	HL,(0F25AH)
  B90E*   18 F3          C      	JR	$-11	;B903
  B910*   2A F3C4        C      	LD	HL,(0F3C4H)
  B913*   C9             C      	RET
                         C      ;
  B914*   44             C      	LD	B,H
  B915*   4D             C      	LD	C,L
  B916*   11 F3DD        C      	LD	DE,0F3DDH
  B919*   D5             C      	PUSH	DE
  B91A*   7C             C      	LD	A,H
  B91B*   CD C396        C      	CALL	0C396H
  B91E*   7D             C      	LD	A,L
  B91F*   CD C396        C      	CALL	0C396H
  B922*   E1             C      	POP	HL
  B923*   2B             C      	DEC	HL
  B924*   3A F3C0        C      	LD	A,(0F3C0H)
  B927*   FE 07          C      	CP	007H
  B929*   38 0D          C      	JR	C,$+15	;B938
  B92B*   3E 29          C      	LD	A,029H
  B92D*   12             C      	LD	(DE),A
  B92E*   3D             C      	DEC	A
  B92F*   77             C      	LD	(HL),A
  B930*   13             C      	INC	DE
  B931*   13             C      	INC	DE
  B932*   CD E887        C      	CALL	0E887H
  B935*   CD C396        C      	CALL	0C396H
  B938*   3A F2D5        C      	LD	A,(0F2D5H)
  B93B*   CB 4F          C      	BIT	1,A
  B93D*   CA C267        C      	JP	Z,0C267H
  B940*   CB 57          C      	BIT	2,A
  B942*   20 11          C      	JR	NZ,$+19	;B955
  B944*   3E 0D          C      	LD	A,00DH
  B946*   01 0063        C      	LD	BC,00063H
'SYS3 - MEOS1521 ---> MEOS-System'	MACRO-80 3.44	09-Dec-81	PAGE	1-28


  B949*   21 B140        C      	LD	HL,0B140H
  B94C*   11 004C        C      	LD	DE,0004CH
  B94F*   CD CA6E        C      	CALL	0CA6EH
  B952*   B7             C      	OR	A
  B953*   20 60          C      	JR	NZ,$+98	;B9B5
  B955*   21 B36E        C      	LD	HL,0B36EH
  B958*   11 F3EA        C      	LD	DE,0F3EAH
  B95B*   3A F264        C      	LD	A,(0F264H)
  B95E*   12             C      	LD	(DE),A
  B95F*   13             C      	INC	DE
  B960*   01 0005        C      	LD	BC,00005H
  B963*   ED B0          C      	LDIR
  B965*   01 F263        C      	LD	BC,0F263H
  B968*   0A             C      	LD	A,(BC)
  B969*   CD C39D        C      	CALL	0C39DH
  B96C*   13             C      	INC	DE
  B96D*   13             C      	INC	DE
  B96E*   0B             C      	DEC	BC
  B96F*   CD C395        C      	CALL	0C395H
  B972*   0B             C      	DEC	BC
  B973*   0B             C      	DEC	BC
  B974*   26 07          C      	LD	H,007H
  B976*   0B             C      	DEC	BC
  B977*   13             C      	INC	DE
  B978*   CD C395        C      	CALL	0C395H
  B97B*   0B             C      	DEC	BC
  B97C*   CD C315        C      	CALL	0C315H
  B97F*   25             C      	DEC	H
  B980*   20 F4          C      	JR	NZ,$-10	;B976
  B982*   13             C      	INC	DE
  B983*   EB             C      	EX	DE,HL
  B984*   0A             C      	LD	A,(BC)
  B985*   0E 98          C      	LD	C,098H
  B987*   36 30          C      	LD	(HL),030H
  B989*   07             C      	RLCA
  B98A*   20 02          C      	JR	NZ,$+04	;B98E
  B98C*   36 31          C      	LD	(HL),031H
  B98E*   23             C      	INC	HL
  B98F*   23             C      	INC	HL
  B990*   23             C      	INC	HL
  B991*   CB 21          C      	SLA	C
  B993*   38 F2          C      	JR	C,$-12	;B987
  B995*   07             C      	RLCA
  B996*   20 EF          C      	JR	NZ,$-15	;B987
  B998*   21 F3C9        C      	LD	HL,0F3C9H
  B99B*   11 F336        C      	LD	DE,0F336H
  B99E*   01 0060        C      	LD	BC,00060H
  B9A1*   D5             C      	PUSH	DE
  B9A2*   ED B0          C      	LDIR
  B9A4*   3E 0A          C      	LD	A,00AH
  B9A6*   12             C      	LD	(DE),A
  B9A7*   E1             C      	POP	HL
  B9A8*   0E 61          C      	LD	C,061H
  B9AA*   3E 0D          C      	LD	A,00DH
  B9AC*   11 004C        C      	LD	DE,004CH
  B9AF*   CD CA6E        C      	CALL	0CA6EH
  B9B2*   B7             C      	OR	A
  B9B3*   28 08          C      	JR	Z,$+10	;B9BD
  B9B5*   3E 02          C      	LD	A,002H
  B9B7*   32 F26B        C      	LD	(0F26BH),A
  B9BA*   C3 C267        C      	JP	0C267H
  B9BD*   21 F2D5        C      	LD	HL,0F2D5H
  B9C0*   CB D6          C      	SET	2,(HL)
  B9C2*   18 F6          C      	JR	$-08	;B9BA
  B9C4*   21 B141        C      	LD	HL,0B141H
  B9C7*   E5             C      	PUSH	HL
  B9C8*   01 0B20        C      	LD	BC,00B20H
  B9CB*   11 0020        C      	LD	DE,00020H
  B9CE*   CD C185        C      	CALL	0C185H
  B9D1*   E1             C      	POP	HL
  B9D2*   06 04          C      	LD	B,004H
  B9D4*   1E 0D          C      	LD	E,00DH
  B9D6*   CD C185        C      	CALL	0C185H
  B9D9*   21 F46B        C      	LD	HL,0F46BH
  B9DC*   06 0D          C      	LD	B,00DH
  B9DE*   CD BA01        C      	CALL	0BA01H
  B9E1*   3E 04          C      	LD	A,004H
  B9E3*   32 F3DB        C      	LD	(0F3DBH),A
  B9E6*   06 09          C      	LD	B,009H
  B9E8*   3A F46A        C      	LD	A,(0F46AH)
  B9EB*   3D             C      	DEC	A
  B9EC*   C4 BA01        C      	CALL	NZ,0BA01H
  B9EF*   20 FA          C      	JR	NZ,$-04	;B9EB
'SYS3 - MEOS1521 ---> MEOS-System'	MACRO-80 3.44	09-Dec-81	PAGE	1-29


  B9F1*   3E 20          C      	LD	A,020H
  B9F3*   32 F3DB        C      	LD	(0F3DBH),A
  B9F6*   3A F2D5        C      	LD	A,(0F2D5H)
  B9F9*   E6 09          C      	AND	009H
  B9FB*   C2 C30C        C      	JP	NZ,0C30CH
  B9FE*   C3 B7CD        C      	JP	0B7CDH
                         C      ;
  BA01*                  C      BA01:
  BA01*   F5             C      	PUSH	AF
  BA02*   C5             C      	PUSH	BC
  BA03*   5E             C      	LD	E,(HL)
  BA04*   23             C      	INC	HL
  BA05*   56             C      	LD	D,(HL)
  BA06*   ED 53 F3C2     C      	LD	(0F3C2H),DE
  BA0A*   23             C      	INC	HL
  BA0B*   11 F3B8        C      	LD	DE,0F3B8H
  BA0E*   01 0004        C      	LD	BC,00004H
  BA11*   ED B0          C      	LDIR
  BA13*   E5             C      	PUSH	HL
  BA14*   06 12          C      	LD	B,012H
  BA16*   CD B582        C      	CALL	0B582H
  BA19*   E1             C      	POP	HL
  BA1A*   C1             C      	POP	BC
  BA1B*   E5             C      	PUSH	HL
  BA1C*   11 0020        C      	LD	DE,00020H
  BA1F*   21 F3C9        C      	LD	HL,0F3C9H
  BA22*   CD C185        C      	CALL	0C185H
  BA25*   05             C      	DEC	B
  BA26*   05             C      	DEC	B
  BA27*   E1             C      	POP	HL
  BA28*   F1             C      	POP	AF
  BA29*   C9             C      	RET
                         C      ;
                         C          PAGE
'SYS3 - MEOS1521 ---> MEOS-System'	MACRO-80 3.44	09-Dec-81	PAGE	1-30


                         C      
  BA2A*                  C      BA2A:
  BA2A*   22 22F2        C      	LD	(022F2H),HL		;PN SD   BRK
  BA2D*   F2 F222        C      	JP	P,0F222H
  BA30*   25             C      	DEC	H
  BA31*   F2 F222        C      	JP	P,0F222H
  BA34*   26 F2          C      	LD	H,0F2H
  BA36*   21 F2E5        C      	LD	HL,0F2E5H
  BA39*   11 F315        C      	LD	DE,0F315H
  BA3C*   01 0020        C      	LD	BC,00020H
  BA3F*   C5             C      	PUSH	BC
  BA40*   D5             C      	PUSH	DE
  BA41*   E5             C      	PUSH	HL
  BA42*   ED B0          C      	LDIR
  BA44*   0E 04          C      	LD	C,004H
  BA46*   3A F335        C      	LD	A,(0F335H)
  BA49*   D1             C      	POP	DE
  BA4A*   D5             C      	PUSH	DE
  BA4B*   C5             C      	PUSH	BC
  BA4C*   21 F305        C      	LD	HL,0F305H
  BA4F*   0E 08          C      	LD	C,008H
  BA51*   0F             C      	RRCA
  BA52*   30 02          C      	JR	NC,$+04	;BA56
  BA54*   62             C      	LD	H,D
  BA55*   6B             C      	LD	L,E
  BA56*   ED B0          C      	LDIR
  BA58*   C1             C      	POP	BC
  BA59*   0D             C      	DEC	C
  BA5A*   20 EF          C      	JR	NZ,$-15	;BA4B
  BA5C*   0F             C      	RRCA
  BA5D*   30 0A          C      	JR	NC,$+12	;BA69
  BA5F*   21 F30D        C      	LD	HL,0F30DH
  BA62*   11 F2FD        C      	LD	DE,0F2FDH
  BA65*   0E 08          C      	LD	C,008H
  BA67*   ED B0          C      	LDIR
  BA69*   E1             C      	POP	HL
  BA6A*   E5             C      	PUSH	HL
  BA6B*   0E F4          C      	LD	C,0F4H
  BA6D*   06 00          C      	LD	B,000H
  BA6F*   16 00          C      	LD	D,000H
  BA71*   C5             C      	PUSH	BC
  BA72*   E5             C      	PUSH	HL
  BA73*   0E 04          C      	LD	C,004H
  BA75*   7E             C      	LD	A,(HL)
  BA76*   F5             C      	PUSH	AF
  BA77*   23             C      	INC	HL
  BA78*   A6             C      	AND	(HL)
  BA79*   E6 0F          C      	AND	00FH
  BA7B*   5F             C      	LD	E,A
  BA7C*   78             C      	LD	A,B
  BA7D*   A6             C      	AND	(HL)
  BA7E*   E6 0F          C      	AND	00FH
  BA80*   BB             C      	CP	E
  BA81*   20 02          C      	JR	NZ,$+04	;BA85
  BA83*   CB E2          C      	SET	4,D
  BA85*   F1             C      	POP	AF
  BA86*   A6             C      	AND	(HL)
  BA87*   E6 F0          C      	AND	0F0H
  BA89*   5F             C      	LD	E,A
  BA8A*   78             C      	LD	A,B
  BA8B*   A6             C      	AND	(HL)
  BA8C*   E6 F0          C      	AND	0F0H
  BA8E*   BB             C      	CP	E
  BA8F*   20 02          C      	JR	NZ,$+04	;BA93
  BA91*   CB C2          C      	SET	0,D
  BA93*   CB 0A          C      	RRC	D
  BA95*   C5             C      	PUSH	BC
  BA96*   01 0007        C      	LD	BC,00007H
  BA99*   09             C      	ADD	HL,BC
  BA9A*   C1             C      	POP	BC
  BA9B*   0D             C      	DEC	C
  BA9C*   20 D7          C      	JR	NZ,$-39	;BA75
  BA9E*   E1             C      	POP	HL
  BA9F*   C1             C      	POP	BC
  BAA0*   7A             C      	LD	A,D
  BAA1*   ED 79          C      	OUT	(C),A
  BAA3*   78             C      	LD	A,B
  BAA4*   C6 11          C      	ADD	A,011H
  BAA6*   47             C      	LD	B,A
  BAA7*   30 C6          C      	JR	NC,$-56	;BA6F
  BAA9*   23             C      	INC	HL
  BAAA*   23             C      	INC	HL
'SYS3 - MEOS1521 ---> MEOS-System'	MACRO-80 3.44	09-Dec-81	PAGE	1-31


  BAAB*   79             C      	LD	A,C
  BAAC*   C6 01          C      	ADD	A,001H
  BAAE*   4F             C      	LD	C,A
  BAAF*   FE F8          C      	CP	0F8H
  BAB1*   20 BA          C      	JR	NZ,$-68	;BA6D
  BAB3*   D1             C      	POP	DE
  BAB4*   E1             C      	POP	HL
  BAB5*   C1             C      	POP	BC
  BAB6*   ED B0          C      	LDIR
  BAB8*   C9             C      	RET
                         C      ;
                         C          PAGE
'SYS3 - MEOS1521 ---> MEOS-System'	MACRO-80 3.44	09-Dec-81	PAGE	1-32


                         C      
                         C      ;	===>
  BAB9*                  C      BAB9:
  BAB9*   CD C1D3        C      	CALL	0C1D3H		;"BRK   "
  BABC*   CD C389        C      	CALL	0C389H
  BABF*   01 0420        C      	LD	BC,00420H
  BAC2*   21 F297        C      	LD	HL,0F297H
  BAC5*   3E 31          C      	LD	A,031H
  BAC7*   11 F33D        C      	LD	DE,0F33DH
  BACA*   12             C      	LD	(DE),A
  BACB*   F5             C      	PUSH	AF
  BACC*   C5             C      	PUSH	BC
  BACD*   3E 2E          C      	LD	A,02EH
  BACF*   13             C      	INC	DE
  BAD0*   12             C      	LD	(DE),A
  BAD1*   46             C      	LD	B,(HL)
  BAD2*   23             C      	INC	HL
  BAD3*   4E             C      	LD	C,(HL)
  BAD4*   23             C      	INC	HL
  BAD5*   7E             C      	LD	A,(HL)
  BAD6*   23             C      	INC	HL
  BAD7*   FE FF          C      	CP	0FFH
  BAD9*   28 1E          C      	JR	Z,$+32	;BAF9
  BADB*   F5             C      	PUSH	AF
  BADC*   11 F341        C      	LD	DE,0F341H
  BADF*   78             C      	LD	A,B
  BAE0*   CD C396        C      	CALL	0C396H
  BAE3*   79             C      	LD	A,C
  BAE4*   CD C3A8        C      	CALL	0C3A8H
  BAE7*   03             C      	INC	BC
  BAE8*   13             C      	INC	DE
  BAE9*   13             C      	INC	DE
  BAEA*   F1             C      	POP	AF
  BAEB*   12             C      	LD	(DE),A
  BAEC*   11 F34B        C      	LD	DE,0F34BH
  BAEF*   FE 40          C      	CP	040H
  BAF1*   38 06          C      	JR	C,$+08	;BAF9
  BAF3*   CD E887        C      	CALL	0E887H
  BAF6*   CD C3A8        C      	CALL	0C3A8H
  BAF9*   23             C      	INC	HL
  BAFA*   C1             C      	POP	BC
  BAFB*   E5             C      	PUSH	HL
  BAFC*   CD C16C        C      	CALL	0C16CH
  BAFF*   E1             C      	POP	HL
  BB00*   F1             C      	POP	AF
  BB01*   3C             C      	INC	A
  BB02*   FE 37          C      	CP	037H
  BB04*   38 C1          C      	JR	C,$-61	;BAC7
  BB06*   01 0B27        C      	LD	BC,00B27H
  BB09*   21 B1A3        C      	LD	HL,0B1A3H
  BB0C*   11 0011        C      	LD	DE,00011H
  BB0F*   CD C185        C      	CALL	0C185H
  BB12*   01 0D25        C      	LD	BC,00D25H
  BB15*   CD C710        C      	CALL	0C710H
  BB18*   21 B058        C      	LD	HL,0B058H
  BB1B*   CD C6FC        C      	CALL	0C6FCH
  BB1E*   FD 21 BA2A     C      	LD	IY,0BA2AH
  BB22*   AF             C      	XOR	A
  BB23*   CD C721        C      	CALL	0C721H
  BB26*   FE 1F          C      	CP	01FH
  BB28*   CA BCF4        C      	JP	Z,0BCF4H
  BB2B*   FE 1E          C      	CP	01EH
  BB2D*   F5             C      	PUSH	AF
  BB2E*   3A F222        C      	LD	A,(0F222H)
  BB31*   FE 20          C      	CP	020H
  BB33*   20 24          C      	JR	NZ,$+38	;BB59
  BB35*   21 F297        C      	LD	HL,0F297H
  BB38*   F1             C      	POP	AF
  BB39*   20 0A          C      	JR	NZ,$+12	;BB45
  BB3B*   06 18          C      	LD	B,018H
  BB3D*   36 FF          C      	LD	(HL),0FFH
  BB3F*   23             C      	INC	HL
  BB40*   10 FB          C      	DJNZ	$-03	;BB3D
  BB42*   C3 BAB9        C      	JP	0BAB9H
                         C      ;
                         C          PAGE
'SYS3 - MEOS1521 ---> MEOS-System'	MACRO-80 3.44	09-Dec-81	PAGE	1-33


                         C      
  BB45*                  C      BB45:
  BB45*   F5             C      	PUSH	AF
  BB46*   01 0600        C      	LD	BC,00600H
  BB49*   0C             C      	INC	C
  BB4A*   23             C      	INC	HL
  BB4B*   23             C      	INC	HL
  BB4C*   7E             C      	LD	A,(HL)
  BB4D*   FE FF          C      	CP	0FFH
  BB4F*   79             C      	LD	A,C
  BB50*   CA BBB3        C      	JP	Z,0BBB3H
  BB53*   23             C      	INC	HL
  BB54*   23             C      	INC	HL
  BB55*   10 F2          C      	DJNZ	$-12	;BB49
  BB57*   18 15          C      	JR	$+23	;BB6E
  BB59*   FE 31          C      	CP	031H
  BB5B*   38 11          C      	JR	C,$+19	;BB6E
  BB5D*   FE 37          C      	CP	037H
  BB5F*   38 4D          C      	JR	C,$+79	;BBAE
  BB61*   FE 41          C      	CP	041H
  BB63*   38 09          C      	JR	C,$+11	;BB6E
  BB65*   FE 45          C      	CP	045H
  BB67*   DA BC1E        C      	JP	C,0BC1EH
  BB6A*   FE 53          C      	CP	053H
  BB6C*   28 03          C      	JR	Z,$+05	;BB71
  BB6E*   F1             C      	POP	AF
  BB6F*   18 AD          C      	JR	$-81	;BB1E
  BB71*   F1             C      	POP	AF
  BB72*   28 AA          C      	JR	Z,$-84	;BB1E
  BB74*   21 F0AD        C      	LD	HL,0F0ADH
  BB77*   CD C6FC        C      	CALL	0C6FCH
  BB7A*   FD 21 BA2E     C      	LD	IY,0BA2EH
  BB7E*   CD C7B3        C      	CALL	0C7B3H
  BB81*   CA BCF4        C      	JP	Z,0BCF4H
  BB84*   AF             C      	XOR	A
  BB85*   06 04          C      	LD	B,004H
  BB87*   21 F222        C      	LD	HL,0F222H
  BB8A*   11 0440        C      	LD	DE,00440H
  BB8D*   0E 80          C      	LD	C,080H
  BB8F*   F5             C      	PUSH	AF
  BB90*   7E             C      	LD	A,(HL)
  BB91*   1C             C      	INC	E
  BB92*   CB 01          C      	RLC	C
  BB94*   BB             C      	CP	E
  BB95*   28 0C          C      	JR	Z,$+14	;BBA3
  BB97*   15             C      	DEC	D
  BB98*   20 F7          C      	JR	NZ,$-07	;BB91
  BB9A*   FE 20          C      	CP	020H
  BB9C*   0E 00          C      	LD	C,000H
  BB9E*   28 03          C      	JR	Z,$+05	;BBA3
  BBA0*   F1             C      	POP	AF
  BBA1*   18 D7          C      	JR	$-39	;BB7A
  BBA3*   F1             C      	POP	AF
  BBA4*   B1             C      	OR	C
  BBA5*   23             C      	INC	HL
  BBA6*   10 E2          C      	DJNZ	$-28	;BB8A
  BBA8*   32 F335        C      	LD	(0F335H),A
  BBAB*   C3 BAB9        C      	JP	0BAB9H
  BBAE*   3A F222        C      	LD	A,(0F222H)
  BBB1*   E6 07          C      	AND	007H
  BBB3*   21 F293        C      	LD	HL,0F293H
  BBB6*   01 0004        C      	LD	BC,00004H
  BBB9*   09             C      	ADD	HL,BC
  BBBA*   3D             C      	DEC	A
  BBBB*   20 FC          C      	JR	NZ,$-02	;BBB9
  BBBD*   41             C      	LD	B,C
  BBBE*   F1             C      	POP	AF
  BBBF*   CA BB3D        C      	JP	Z,0BB3DH
  BBC2*   01 0D2B        C      	LD	BC,00D2BH
  BBC5*   CD C710        C      	CALL	0C710H
  BBC8*   FD 21 BA32     C      	LD	IY,0BA32H
  BBCC*   CD C875        C      	CALL	0C875H
  BBCF*   CA BCF4        C      	JP	Z,0BCF4H
  BBD2*   D5             C      	PUSH	DE
  BBD3*   01 0D32        C      	LD	BC,00D32H
  BBD6*   CD C710        C      	CALL	0C710H
  BBD9*   FD 21 BA2A     C      	LD	IY,0BA2AH
  BBDD*   CD C7B3        C      	CALL	0C7B3H
  BBE0*   CA BCF4        C      	JP	Z,0BCF4H
  BBE3*   3A F222        C      	LD	A,(0F222H)
  BBE6*   FE 30          C      	CP	030H
  BBE8*   38 E9          C      	JR	C,$-21	;BBD3
'SYS3 - MEOS1521 ---> MEOS-System'	MACRO-80 3.44	09-Dec-81	PAGE	1-34


  BBEA*   FE 34          C      	CP	034H
  BBEC*   D1             C      	POP	DE
  BBED*   4F             C      	LD	C,A
  BBEE*   38 26          C      	JR	C,$+40	;BC16
  BBF0*   FE 52          C      	CP	052H
  BBF2*   28 22          C      	JR	Z,$+36	;BC16
  BBF4*   FE 54          C      	CP	054H
  BBF6*   28 04          C      	JR	Z,$+06	;BBFC
  BBF8*   FE 42          C      	CP	042H
  BBFA*   20 D6          C      	JR	NZ,$-40	;BBD2
  BBFC*   EB             C      	EX	DE,HL
  BBFD*   CD E881        C      	CALL	0E881H
                         C      ;
  BC00*                  C      BC00:
  BC00*   47             C      	LD	B,A
  BC01*   2F             C      	CPL
  BC02*   CD EFC9        C      	CALL	0EFC9H
  BC05*   CD EFCF        C      	CALL	0EFCFH
  BC08*   CD E87B        C      	CALL	0E87BH
  BC0B*   EB             C      	EX	DE,HL
  BC0C*   28 08          C      	JR	Z,$+10	;BC16
  BC0E*   3E 06          C      	LD	A,006H
  BC10*   CD C8A7        C      	CALL	0C8A7H
  BC13*   C3 BB12        C      	JP	0BB12H
  BC16*   72             C      	LD	(HL),D
  BC17*   23             C      	INC	HL
  BC18*   73             C      	LD	(HL),E
  BC19*   23             C      	INC	HL
  BC1A*   71             C      	LD	(HL),C
  BC1B*   C3 BAB9        C      	JP	0BAB9H
  BC1E*   F1             C      	POP	AF
  BC1F*   CA BB1E        C      	JP	Z,0BB1EH
  BC22*   CD C389        C      	CALL	0C389H
  BC25*   21 B3E8        C      	LD	HL,0B3E8H
  BC28*   11 F33F        C      	LD	DE,0F33FH
  BC2B*   01 000C        C      	LD	BC,0000CH
  BC2E*   ED B0          C      	LDIR
  BC30*   3A F222        C      	LD	A,(0F222H)
  BC33*   12             C      	LD	(DE),A
  BC34*   F5             C      	PUSH	AF
  BC35*   01 0420        C      	LD	BC,00420H
  BC38*   CD C169        C      	CALL	0C169H
  BC3B*   21 F11A        C      	LD	HL,0F11AH
  BC3E*   01 0008        C      	LD	BC,00008H
  BC41*   ED B0          C      	LDIR
  BC43*   01 062E        C      	LD	BC,0062EH
  BC46*   CD C16C        C      	CALL	0C16CH
  BC49*   21 F2E3        C      	LD	HL,0F2E3H
  BC4C*   01 0008        C      	LD	BC,00008H
  BC4F*   F1             C      	POP	AF
  BC50*   E6 07          C      	AND	007H
  BC52*   09             C      	ADD	HL,BC
  BC53*   3D             C      	DEC	A
  BC54*   20 FC          C      	JR	NZ,$-02	;BC52
  BC56*   7E             C      	LD	A,(HL)
  BC57*   EE FB          C      	XOR	0FBH
  BC59*   77             C      	LD	(HL),A
  BC5A*   11 F42A        C      	LD	DE,0F42AH
  BC5D*   3E 04          C      	LD	A,004H
  BC5F*   F5             C      	PUSH	AF
  BC60*   01 0858        C      	LD	BC,00858H
  BC63*   3E 30          C      	LD	A,030H
  BC65*   CB 06          C      	RLC	(HL)
  BC67*   30 01          C      	JR	NC,$+03	;BC6A
  BC69*   3C             C      	INC	A
  BC6A*   23             C      	INC	HL
  BC6B*   CB 06          C      	RLC	(HL)
  BC6D*   38 01          C      	JR	C,$+03	;BC70
  BC6F*   79             C      	LD	A,C
  BC70*   2B             C      	DEC	HL
  BC71*   12             C      	LD	(DE),A
  BC72*   13             C      	INC	DE
  BC73*   10 EE          C      	DJNZ	$-16	;BC63
  BC75*   F1             C      	POP	AF
  BC76*   3D             C      	DEC	A
  BC77*   28 04          C      	JR	Z,$+06	;BC7D
  BC79*   2B             C      	DEC	HL
  BC7A*   2B             C      	DEC	HL
  BC7B*   18 E2          C      	JR	$-28	;BC5F
  BC7D*   E5             C      	PUSH	HL
  BC7E*   01 0000        C      	LD	BC,00000H
  BC81*   21 F42A        C      	LD	HL,0F42AH
  BC84*   09             C      	ADD	HL,BC
'SYS3 - MEOS1521 ---> MEOS-System'	MACRO-80 3.44	09-Dec-81	PAGE	1-35


  BC85*   7E             C      	LD	A,(HL)
  BC86*   EE 80          C      	XOR	080H
  BC88*   77             C      	LD	(HL),A
  BC89*   C5             C      	PUSH	BC
  BC8A*   01 0720        C      	LD	BC,00720H
  BC8D*   21 F106        C      	LD	HL,0F106H
  BC90*   11 F42A        C      	LD	DE,0F42AH
  BC93*   C5             C      	PUSH	BC
  BC94*   D5             C      	PUSH	DE
  BC95*   11 F33D        C      	LD	DE,0F33DH
  BC98*   01 0005        C      	LD	BC,00005H
  BC9B*   ED B0          C      	LDIR
  BC9D*   EB             C      	EX	DE,HL
  BC9E*   E1             C      	POP	HL
  BC9F*   D5             C      	PUSH	DE
  BCA0*   11 F346        C      	LD	DE,0F346H
  BCA3*   01 0008        C      	LD	BC,00008H
  BCA6*   ED B0          C      	LDIR
  BCA8*   EB             C      	EX	DE,HL
  BCA9*   E1             C      	POP	HL
  BCAA*   C1             C      	POP	BC
  BCAB*   CD C16C        C      	CALL	0C16CH
  BCAE*   78             C      	LD	A,B
  BCAF*   FE 0B          C      	CP	00BH
  BCB1*   38 E0          C      	JR	C,$-30	;BC93
  BCB3*   CD C81B        C      	CALL	0C81BH
  BCB6*   FE 1F          C      	CP	01FH
  BCB8*   20 7F          C      	JR	NZ,$+129
  BCBA*   C1             C      	POP	BC
  BCBB*   E1             C      	POP	HL
  BCBC*   F5             C      	PUSH	AF
  BCBD*   11 F44A        C      	LD	DE,0F44AH
  BCC0*   0E 04          C      	LD	C,004H
  BCC2*   E5             C      	PUSH	HL
  BCC3*   EB             C      	EX	DE,HL
  BCC4*   06 08          C      	LD	B,008H
  BCC6*   11 0000        C      	LD	DE,00000H
  BCC9*   2B             C      	DEC	HL
  BCCA*   7E             C      	LD	A,(HL)
  BCCB*   E6 7F          C      	AND	07FH
  BCCD*   FE 58          C      	CP	058H
  BCCF*   28 06          C      	JR	Z,$+08	;BCD7
  BCD1*   FE 30          C      	CP	030H
  BCD3*   28 01          C      	JR	Z,$+03	;BCD6
  BCD5*   14             C      	INC	D
  BCD6*   1C             C      	INC	E
  BCD7*   CB 0A          C      	RRC	D
  BCD9*   CB 0B          C      	RRC	E
  BCDB*   10 EC          C      	DJNZ	$-18	;BCC9
  BCDD*   42             C      	LD	B,D
  BCDE*   7B             C      	LD	A,E
  BCDF*   EB             C      	EX	DE,HL
  BCE0*   E1             C      	POP	HL
  BCE1*   70             C      	LD	(HL),B
  BCE2*   23             C      	INC	HL
  BCE3*   77             C      	LD	(HL),A
  BCE4*   23             C      	INC	HL
  BCE5*   0D             C      	DEC	C
  BCE6*   20 DA          C      	JR	NZ,$-36	;BCC2
  BCE8*   2B             C      	DEC	HL
  BCE9*   2B             C      	DEC	HL
  BCEA*   7E             C      	LD	A,(HL)
  BCEB*   EE FB          C      	XOR	0FBH
  BCED*   77             C      	LD	(HL),A
  BCEE*   F1             C      	POP	AF
  BCEF*   FE 1F          C      	CP	01FH
  BCF1*   C2 BAB9        C      	JP	NZ,0BAB9H
  BCF4*   21 F299        C      	LD	HL,0F299H
  BCF7*   06 06          C      	LD	B,006H
  BCF9*   7E             C      	LD	A,(HL)
  BCFA*   23             C      	INC	HL
  BCFB*   23             C      	INC	HL
  BCFC*   23             C      	INC	HL
  BCFD*   23             C      	INC	HL
  BCFE*   FE 34          C      	CP	034H
  BD00*   30 04          C      	JR	NC,$+06	;BD06
  BD02*   CB 4F          C      	BIT	1,A
  BD04*   20 03          C      	JR	NZ,$+05	;BD09
  BD06*   AF             C      	XOR	A
  BD07*   10 F0          C      	DJNZ	$-14	;BCF9
  BD09*   21 F3C6        C      	LD	HL,0F3C6H
  BD0C*   CB 46          C      	BIT	0,(HL)
  BD0E*   1E 4C          C      	LD	E,04CH
'SYS3 - MEOS1521 ---> MEOS-System'	MACRO-80 3.44	09-Dec-81	PAGE	1-36


  BD10*   20 16          C      	JR	NZ,$+24	;BD28
  BD12*   B7             C      	OR	A
  BD13*   28 10          C      	JR	Z,$+18	;BD25
  BD15*   E5             C      	PUSH	HL
  BD16*   3E 03          C      	LD	A,003H
  BD18*   21 C159        C      	LD	HL,0C159H
  BD1B*   CD CA6E        C      	CALL	0CA6EH
  BD1E*   E1             C      	POP	HL
  BD1F*   B7             C      	OR	A
  BD20*   C2 BAB9        C      	JP	NZ,0BAB9H
  BD23*   CB C6          C      	SET	0,(HL)
  BD25*   C3 C267        C      	JP	0C267H
  BD28*   B7             C      	OR	A
  BD29*   20 FA          C      	JR	NZ,$-04	;BD25
  BD2B*   CB 86          C      	RES	0,(HL)
  BD2D*   3E 05          C      	LD	A,005H
  BD2F*   21 F2D5        C      	LD	HL,0F2D5H
  BD32*   CB 8E          C      	RES	1,(HL)
  BD34*   CD CA6E        C      	CALL	0CA6EH
  BD37*   18 EC          C      	JR	$-18	;BD25
  BD39*   FE 1D          C      	CP	01DH
  BD3B*   CA BCBA        C      	JP	Z,0BCBAH
  BD3E*   21 F42A        C      	LD	HL,0F42AH
  BD41*   11 20F8        C      	LD	DE,020F8H
  BD44*   FE 19          C      	CP	019H
  BD46*   28 31          C      	JR	Z,$+51	;BD79
  BD48*   1E FF          C      	LD	E,0FFH
  BD4A*   FE 08          C      	CP	008H
  BD4C*   28 2B          C      	JR	Z,$+45	;BD79
  BD4E*   1E 08          C      	LD	E,008H
  BD50*   FE 1A          C      	CP	01AH
  BD52*   28 25          C      	JR	Z,$+39	;BD79
  BD54*   1E 01          C      	LD	E,001H
  BD56*   FE 18          C      	CP	018H
  BD58*   28 1F          C      	JR	Z,$+33	;BD79
  BD5A*   FE 30          C      	CP	030H
  BD5C*   28 09          C      	JR	Z,$+11	;BD67
  BD5E*   FE 31          C      	CP	031H
  BD60*   28 05          C      	JR	Z,$+07	;BD67
  BD62*   FE 58          C      	CP	058H
  BD64*   C2 BCB3        C      	JP	NZ,0BCB3H
  BD67*   C1             C      	POP	BC
  BD68*   09             C      	ADD	HL,BC
  BD69*   77             C      	LD	(HL),A
  BD6A*   79             C      	LD	A,C
  BD6B*   CB 7B          C      	BIT	7,E
  BD6D*   28 01          C      	JR	Z,$+03	;BD70
  BD6F*   82             C      	ADD	A,D
  BD70*   83             C      	ADD	A,E
  BD71*   BA             C      	CP	D
  BD72*   38 01          C      	JR	C,$+03	;BD75
  BD74*   92             C      	SUB	D
  BD75*   4F             C      	LD	C,A
  BD76*   C3 BC81        C      	JP	0BC81H
  BD79*   C1             C      	POP	BC
  BD7A*   09             C      	ADD	HL,BC
  BD7B*   7E             C      	LD	A,(HL)
  BD7C*   EE 80          C      	XOR	080H
  BD7E*   18 E9          C      	JR	$-21	;BD69
                         C      ;
                         C          PAGE
'SYS3 - MEOS1521 ---> MEOS-System'	MACRO-80 3.44	09-Dec-81	PAGE	1-37


                         C      
  BD80*                  C      BD80:
  BD80*   06 40          C      	LD	B,040H		;PN SO   DEF
  BD82*   3E 20          C      	LD	A,020H
  BD84*   C3 C15F        C      	JP	0C15FH
                         C      ;
  BD87*                  C      BD87:
                         C      ;	===>
  BD87*   3E 1F          C      	LD	A,01FH		;"DEF   "
  BD89*   CD C82E        C      	CALL	0C82EH
  BD8C*   CD BD80        C      	CALL	0BD80H
  BD8F*   21 B1B4        C      	LD	HL,0B1B4H
  BD92*   11 F343        C      	LD	DE,0F343H
  BD95*   0E 06          C      	LD	C,006H
  BD97*   ED B0          C      	LDIR
  BD99*   11 F363        C      	LD	DE,0F363H
  BD9C*   0E 06          C      	LD	C,006H
  BD9E*   ED B0          C      	LDIR
  BDA0*   06 04          C      	LD	B,004H
  BDA2*   CD C16C        C      	CALL	0C16CH
  BDA5*   11 F2D6        C      	LD	DE,0F2D6H
  BDA8*   21 B0AC        C      	LD	HL,0B0ACH
  BDAB*   06 07          C      	LD	B,007H
  BDAD*   3E A0          C      	LD	A,0A0H
  BDAF*   E5             C      	PUSH	HL
  BDB0*   D5             C      	PUSH	DE
  BDB1*   C5             C      	PUSH	BC
  BDB2*   4E             C      	LD	C,(HL)
  BDB3*   F5             C      	PUSH	AF
  BDB4*   CD BD80        C      	CALL	0BD80H
  BDB7*   F1             C      	POP	AF
  BDB8*   21 F339        C      	LD	HL,0F339H
  BDBB*   71             C      	LD	(HL),C
  BDBC*   23             C      	INC	HL
  BDBD*   F5             C      	PUSH	AF
  BDBE*   23             C      	INC	HL
  BDBF*   06 08          C      	LD	B,008H
  BDC1*   13             C      	INC	DE
  BDC2*   13             C      	INC	DE
  BDC3*   13             C      	INC	DE
  BDC4*   1A             C      	LD	A,(DE)
  BDC5*   23             C      	INC	HL
  BDC6*   23             C      	INC	HL
  BDC7*   36 30          C      	LD	(HL),030H
  BDC9*   07             C      	RLCA
  BDCA*   30 02          C      	JR	NC,$+04	;BDCE
  BDCC*   36 31          C      	LD	(HL),031H
  BDCE*   10 F6          C      	DJNZ	$-08	;BDC6
  BDD0*   F1             C      	POP	AF
  BDD1*   CB 27          C      	SLA	A
  BDD3*   38 E8          C      	JR	C,$-22	;BDBD
  BDD5*   21 F359        C      	LD	HL,0F359H
  BDD8*   20 E1          C      	JR	NZ,$-29	;BDBB
  BDDA*   C1             C      	POP	BC
  BDDB*   D1             C      	POP	DE
  BDDC*   CD C16C        C      	CALL	0C16CH
  BDDF*   E1             C      	POP	HL
  BDE0*   23             C      	INC	HL
  BDE1*   13             C      	INC	DE
  BDE2*   04             C      	INC	B
  BDE3*   78             C      	LD	A,B
  BDE4*   FE 0B          C      	CP	00BH
  BDE6*   3E 80          C      	LD	A,080H
  BDE8*   28 C5          C      	JR	Z,$-57	;BDAF
  BDEA*   78             C      	LD	A,B
  BDEB*   FE 0D          C      	CP	00DH
  BDED*   38 BE          C      	JR	C,$-64	;BDAD
  BDEF*   21 B056        C      	LD	HL,0B056H
  BDF2*   CD C6FC        C      	CALL	0C6FCH
  BDF5*   FD 21 B052     C      	LD	IY,0B052H
  BDF9*   CD C7B3        C      	CALL	0C7B3H
  BDFC*   20 31          C      	JR	NZ,$+51	;BE2F
  BDFE*   3E 02          C      	LD	A,002H
  BE00*   01 00FB        C      	LD	BC,000FBH
  BE03*   21 F2E5        C      	LD	HL,0F2E5H
  BE06*   F5             C      	PUSH	AF
  BE07*   2B             C      	DEC	HL
  BE08*   56             C      	LD	D,(HL)
  BE09*   2B             C      	DEC	HL
  BE0A*   5E             C      	LD	E,(HL)
  BE0B*   2B             C      	DEC	HL
  BE0C*   CB 0A          C      	RRC	D
'SYS3 - MEOS1521 ---> MEOS-System'	MACRO-80 3.44	09-Dec-81	PAGE	1-38


  BE0E*   17             C      	RLA
  BE0F*   CB 0B          C      	RRC	E
  BE11*   17             C      	RLA
  BE12*   CB 0E          C      	RRC	(HL)
  BE14*   17             C      	RLA
  BE15*   E6 07          C      	AND	007H
  BE17*   ED 79          C      	OUT	(C),A
  BE19*   04             C      	INC	B
  BE1A*   78             C      	LD	A,B
  BE1B*   FE 08          C      	CP	008H
  BE1D*   38 ED          C      	JR	C,$-17	;BE0C
  BE1F*   28 E6          C      	JR	Z,$-24	;BE07
  BE21*   FE 10          C      	CP	010H
  BE23*   38 E7          C      	JR	C,$-23	;BE0C
  BE25*   0D             C      	DEC	C
  BE26*   06 00          C      	LD	B,000H
  BE28*   F1             C      	POP	AF
  BE29*   3D             C      	DEC	A
  BE2A*   20 DA          C      	JR	NZ,$-36	;BE06
  BE2C*   C3 C267        C      	JP	0C267H
  BE2F*   01 0003        C      	LD	BC,00003H
  BE32*   2A F243        C      	LD	HL,(0F243H)
  BE35*   11 F2DB        C      	LD	DE,0F2DBH
  BE38*   7D             C      	LD	A,L
  BE39*   FE 4D          C      	CP	04DH
  BE3B*   28 0F          C      	JR	Z,$+17	;BE4C
  BE3D*   11 F2E0        C      	LD	DE,0F2E0H
  BE40*   0B             C      	DEC	BC
  BE41*   FE 49          C      	CP	049H
  BE43*   28 07          C      	JR	Z,$+09	;BE4C
  BE45*   3E 03          C      	LD	A,003H
  BE47*   CD C8A7        C      	CALL	0C8A7H
  BE4A*   18 A3          C      	JR	$-91	;BDEF
  BE4C*   7C             C      	LD	A,H
  BE4D*   21 B0AC        C      	LD	HL,0B0ACH
  BE50*   ED B1          C      	CPIR
  BE52*   20 F1          C      	JR	NZ,$-13	;BE45
  BE54*   EB             C      	EX	DE,HL
  BE55*   ED 42          C      	SBC	HL,BC
  BE57*   E5             C      	PUSH	HL
  BE58*   21 F100        C      	LD	HL,0F100H
  BE5B*   CD C6FC        C      	CALL	0C6FCH
  BE5E*   CD C871        C      	CALL	0C871H
  BE61*   28 9B          C      	JR	Z,$-99	;BDFE
  BE63*   E1             C      	POP	HL
  BE64*   72             C      	LD	(HL),D
  BE65*   23             C      	INC	HL
  BE66*   23             C      	INC	HL
  BE67*   23             C      	INC	HL
  BE68*   73             C      	LD	(HL),E
  BE69*   C3 BD8C        C      	JP	0BD8CH
                         C      ;
                         C          PAGE
'SYS3 - MEOS1521 ---> MEOS-System'	MACRO-80 3.44	09-Dec-81	PAGE	1-39


                         C      
  BE6C*                  C      BE6C:
  BE6C*   78             C      	LD	A,B		;PN XD   Register korr.
  BE6D*   FE 03          C      	CP	003H
  BE6F*   30 07          C      	JR	NC,$+09	;BE78
  BE71*   3A F243        C      	LD	A,(0F243H)
  BE74*   77             C      	LD	(HL),A
  BE75*   C3 C267        C      	JP	0C267H
  BE78*   FE 06          C      	CP	006H
  BE7A*   30 07          C      	JR	NC,$+09	;BE83
  BE7C*   3A F245        C      	LD	A,(0F245H)
  BE7F*   E6 03          C      	AND	003H
  BE81*   18 F1          C      	JR	$-13	;BE74
  BE83*   E5             C      	PUSH	HL
  BE84*   21 F0AC        C      	LD	HL,0F0ACH
  BE87*   CD C6FC        C      	CALL	0C6FCH
  BE8A*   E1             C      	POP	HL
  BE8B*   CD C7C9        C      	CALL	0C7C9H
  BE8E*   78             C      	LD	A,B
  BE8F*   FE 0A          C      	CP	00AH
  BE91*   30 1F          C      	JR	NC,$+33	;BEB2
  BE93*   7A             C      	LD	A,D
  BE94*   B7             C      	OR	A
  BE95*   20 14          C      	JR	NZ,$+22	;BEAB
  BE97*   7B             C      	LD	A,E
  BE98*   FE 02          C      	CP	002H
  BE9A*   30 0F          C      	JR	NC,$+17	;BEAB
  BE9C*   ED 44          C      	NEG
  BE9E*   A5             C      	AND	L
  BE9F*   57             C      	LD	D,A
  BEA0*   7D             C      	LD	A,L
  BEA1*   2F             C      	CPL
  BEA2*   21 F252        C      	LD	HL,0F252H
  BEA5*   A6             C      	AND	(HL)
  BEA6*   B2             C      	OR	D
  BEA7*   77             C      	LD	(HL),A
  BEA8*   C3 C267        C      	JP	0C267H
  BEAB*   3E 02          C      	LD	A,002H
  BEAD*   CD C8A7        C      	CALL	0C8A7H
  BEB0*   18 D9          C      	JR	$-37	;BE8B    
  BEB2*   FE 13          C      	CP	013H
  BEB4*   30 07          C      	JR	NC,$+09	;BEBD
  BEB6*   7A             C      	LD	A,D
  BEB7*   B7             C      	OR	A
  BEB8*   20 F1          C      	JR	NZ,$-13	;BEAB
  BEBA*   73             C      	LD	(HL),E
  BEBB*   18 B8          C      	JR	$-70	;BE75
  BEBD*   73             C      	LD	(HL),E
  BEBE*   23             C      	INC	HL
  BEBF*   72             C      	LD	(HL),D
  BEC0*   18 B3          C      	JR	$-75	;BE75
                         C      ;
                         C          PAGE
'SYS3 - MEOS1521 ---> MEOS-System'	MACRO-80 3.44	09-Dec-81	PAGE	1-40


                         C      
  BEC2*                  C      BEC2:
                         C      ;	===>	
  BEC2*   21 F24A        C      	LD	HL,0F24AH		;"EXCH  "   PN XH
  BEC5*   11 F252        C      	LD	DE,0F252H
  BEC8*   06 08          C      	LD	B,008H
  BECA*   1A             C      	LD	A,(DE)
  BECB*   4E             C      	LD	C,(HL)
  BECC*   EB             C      	EX	DE,HL
  BECD*   12             C      	LD	(DE),A
  BECE*   71             C      	LD	(HL),C
  BECF*   EB             C      	EX	DE,HL
  BED0*   13             C      	INC	DE
  BED1*   23             C      	INC	HL
  BED2*   10 F6          C      	DJNZ	$-08	;BECA
  BED4*   18 0E          C      	JR	$+16	;BEE4
                         C      ;	===>	
  BED6*   21 0000        C      	LD	HL,00000H		;"ERASE "
  BED9*   36 7F          C      	LD	(HL),07FH
  BEDB*   11 0001        C      	LD	DE,00001H
  BEDE*   ED 4B F011     C      	LD	BC,(0F011H)
  BEE2*   ED B0          C      	LDIR
  BEE4*   C3 C267        C      	JP	0C267H
                         C      ;
                         C          PAGE
'SYS3 - MEOS1521 ---> MEOS-System'	MACRO-80 3.44	09-Dec-81	PAGE	1-41


                         C      
                         C      ;	===>
  BEE7*                  C      BEE7:
  BEE7*                  C      MOVE:		
  BEE7*   01 0625        C      	LD	BC,00625H		;"MOVE  "   PN XG
  BEEA*   21 F0C3        C      	LD	HL,0F0C3H
  BEED*   3E 03          C      	LD	A,003H
  BEEF*   F5             C      	PUSH	AF
  BEF0*   C5             C      	PUSH	BC
  BEF1*   11 0000        C      	LD	DE,00000H
  BEF4*   CD C185        C      	CALL	0C185H
  BEF7*   01 000A        C      	LD	BC,0000AH
  BEFA*   09             C      	ADD	HL,BC
  BEFB*   CD C7C9        C      	CALL	0C7C9H
  BEFE*   C1             C      	POP	BC
  BEFF*   F1             C      	POP	AF
  BF00*   D5             C      	PUSH	DE
  BF01*   04             C      	INC	B
  BF02*   3D             C      	DEC	A
  BF03*   20 EA          C      	JR	NZ,$-20	;BEEF
  BF05*   C5             C      	PUSH	BC
  BF06*   CD C3FF        C      	CALL	0C3FFH
  BF09*   CD C83B        C      	CALL	0C83BH
  BF0C*   1E 00          C      	LD	E,000H
  BF0E*   20 01          C      	JR	NZ,$+03	;BF11
  BF10*   1C             C      	INC	E
  BF11*   C1             C      	POP	BC
  BF12*   D5             C      	PUSH	DE
  BF13*   04             C      	INC	B
  BF14*   21 F0EB        C      	LD	HL,0F0EBH
  BF17*   CD C3FF        C      	CALL	0C3FFH
  BF1A*   CD C83B        C      	CALL	0C83BH
  BF1D*   D1             C      	POP	DE
  BF1E*   F3             C      	DI
  BF1F*   D9             C      	EXX
  BF20*   1E 00          C      	LD	E,000H
  BF22*   20 01          C      	JR	NZ,$+03	;BF25
  BF24*   1C             C      	INC	E
  BF25*   D9             C      	EXX
  BF26*   C1             C      	POP	BC
  BF27*   D9             C      	EXX
  BF28*   E1             C      	POP	HL
  BF29*   E5             C      	PUSH	HL
  BF2A*   D9             C      	EXX
  BF2B*   E1             C      	POP	HL
  BF2C*   7B             C      	LD	A,E
  BF2D*   D1             C      	POP	DE
  BF2E*   B7             C      	OR	A
  BF2F*   ED 52          C      	SBC	HL,DE
  BF31*   38 03          C      	JR	C,$+05	;BF36
  BF33*   ED 42          C      	SBC	HL,BC
  BF35*   3F             C      	CCF
  BF36*   F5             C      	PUSH	AF
  BF37*   62             C      	LD	H,D
  BF38*   6B             C      	LD	L,E
  BF39*   5F             C      	LD	E,A
  BF3A*   38 08          C      	JR	C,$+10	;BF44
  BF3C*   09             C      	ADD	HL,BC
  BF3D*   2B             C      	DEC	HL
  BF3E*   C5             C      	PUSH	BC
  BF3F*   D9             C      	EXX
  BF40*   C1             C      	POP	BC
  BF41*   09             C      	ADD	HL,BC
  BF42*   2B             C      	DEC	HL
  BF43*   D9             C      	EXX
  BF44*   78             C      	LD	A,B
  BF45*   B1             C      	OR	C
  BF46*   28 2C          C      	JR	Z,$+46	;BF74
  BF48*   CB 43          C      	BIT	0,E
  BF4A*   28 02          C      	JR	Z,$+04	;BF4E
  BF4C*   D3 FC          C      	OUT	(0FCH),A
  BF4E*   7E             C      	LD	A,(HL)
  BF4F*   D9             C      	EXX
  BF50*   CB 43          C      	BIT	0,E
  BF52*   20 02          C      	JR	NZ,$+04	;BF56
  BF54*   D3 FC          C      	OUT	(0FCH),A
  BF56*   77             C      	LD	(HL),A
  BF57*   CB 43          C      	BIT	0,E
  BF59*   20 02          C      	JR	NZ,$+04	;BF5D
  BF5B*   D3 FC          C      	OUT	(0FCH),A
  BF5D*   BE             C      	CP	(HL)
  BF5E*   20 0F          C      	JR	NZ,$+17	;BF6F
'SYS3 - MEOS1521 ---> MEOS-System'	MACRO-80 3.44	09-Dec-81	PAGE	1-42


  BF60*   F1             C      	POP	AF
  BF61*   30 07          C      	JR	NC,$+09	;BF6A
  BF63*   23             C      	INC	HL
  BF64*   D9             C      	EXX
  BF65*   23             C      	INC	HL
  BF66*   0B             C      	DEC	BC
  BF67*   F5             C      	PUSH	AF
  BF68*   18 DA          C      	JR	$-36	;BF44
  BF6A*   2B             C      	DEC	HL
  BF6B*   D9             C      	EXX
  BF6C*   2B             C      	DEC	HL
  BF6D*   18 F7          C      	JR	$-07	;BF66
  BF6F*   3E 06          C      	LD	A,006H
  BF71*   CD C896        C      	CALL	0C896H
  BF74*   C3 C267        C      	JP	0C267H
                         C      ;
                         C          PAGE
'SYS3 - MEOS1521 ---> MEOS-System'	MACRO-80 3.44	09-Dec-81	PAGE	1-43


                         C      
  BF77*                  C      BF77:
  BF77*                  C      MEM:
                         C      ;	===>	
  BF77*   21 F265        C      	LD	HL,0F265H		;"MEM   "   PN XF
  BF7A*   CB 8E          C      	RES	1,(HL)
  BF7C*   01 0D06        C      	LD	BC,00D06H
  BF7F*   CD C3FC        C      	CALL	0C3FCH
  BF82*   CD C7C9        C      	CALL	0C7C9H
  BF85*   CD C15B        C      	CALL	0C15BH
  BF88*   01 0D06        C      	LD	BC,00D06H
  BF8B*   CD C16C        C      	CALL	0C16CH
  BF8E*   EB             C      	EX	DE,HL
  BF8F*   11 0000        C      	LD	DE,00000H
  BF92*   D5             C      	PUSH	DE
  BF93*   E5             C      	PUSH	HL
  BF94*   B7             C      	OR	A
  BF95*   ED 52          C      	SBC	HL,DE
  BF97*   1C             C      	INC	E
  BF98*   01 0429        C      	LD	BC,00429H
  BF9B*   C5             C      	PUSH	BC
  BF9C*   4B             C      	LD	C,E
  BF9D*   06 08          C      	LD	B,008H
  BF9F*   11 F336        C      	LD	DE,0F336H
  BFA2*   CD E881        C      	CALL	0E881H
  BFA5*   E5             C      	PUSH	HL
  BFA6*   21 F265        C      	LD	HL,0F265H
  BFA9*   CB 4E          C      	BIT	1,(HL)
  BFAB*   E1             C      	POP	HL
  BFAC*   28 10          C      	JR	Z,$+18	;BFBE
  BFAE*   FE 20          C      	CP	020H
  BFB0*   38 0C          C      	JR	C,$+14	;BFBE
  BFB2*   FE 7F          C      	CP	07FH
  BFB4*   30 08          C      	JR	NC,$+10	;BFBE
  BFB6*   12             C      	LD	(DE),A
  BFB7*   3E 20          C      	LD	A,020H
  BFB9*   13             C      	INC	DE
  BFBA*   12             C      	LD	(DE),A
  BFBB*   13             C      	INC	DE
  BFBC*   18 03          C      	JR	$+05	;BFC1
  BFBE*   CD C396        C      	CALL	0C396H
  BFC1*   0D             C      	DEC	C
  BFC2*   20 0C          C      	JR	NZ,$+14	;BFD0
  BFC4*   1B             C      	DEC	DE
  BFC5*   1A             C      	LD	A,(DE)
  BFC6*   EE 80          C      	XOR	080H
  BFC8*   12             C      	LD	(DE),A
  BFC9*   1B             C      	DEC	DE
  BFCA*   1A             C      	LD	A,(DE)
  BFCB*   EE 80          C      	XOR	080H
  BFCD*   12             C      	LD	(DE),A
  BFCE*   13             C      	INC	DE
  BFCF*   13             C      	INC	DE
  BFD0*   23             C      	INC	HL
  BFD1*   13             C      	INC	DE
  BFD2*   10 CE          C      	DJNZ	$-48	;BFA2
  BFD4*   59             C      	LD	E,C
  BFD5*   C1             C      	POP	BC
  BFD6*   CD C16C        C      	CALL	0C16CH
  BFD9*   78             C      	LD	A,B
  BFDA*   FE 0C          C      	CP	00CH
  BFDC*   38 BD          C      	JR	C,$-65	;BF9B
  BFDE*   01 0520        C      	LD	BC,00520H
  BFE1*   21 F0B3        C      	LD	HL,0F0B3H
  BFE4*   CD C185        C      	CALL	0C185H
  BFE7*   21 F0BB        C      	LD	HL,0F0BBH
  BFEA*   CD C185        C      	CALL	0C185H
  BFED*   E1             C      	POP	HL
  BFEE*   E5             C      	PUSH	HL
  BFEF*   CD C8AC        C      	CALL	0C8ACH
  BFF2*   0C             C      	INC	C
  BFF3*   21 F222        C      	LD	HL,0F222H
  BFF6*   11 0006        C      	LD	DE,00006H
  BFF9*   CD C185        C      	CALL	0C185H
  BFFC*   E1             C      	POP	HL
  BFFD*   E5             C      	PUSH	HL
  BFFE*   CD C8E4        C      	CALL	0C8E4H
  C001*   0C             C      	INC	C
  C002*   21 F222        C      	LD	HL,0F222H
  C005*   1B             C      	DEC	DE
  C006*   CD C185        C      	CALL	0C185H
  C009*   01 0923        C      	LD	BC,00923H
'SYS3 - MEOS1521 ---> MEOS-System'	MACRO-80 3.44	09-Dec-81	PAGE	1-44


  C00C*   CD C710        C      	CALL	0C710H
  C00F*   21 F265        C      	LD	HL,0F265H
  C012*   3E 48          C      	LD	A,048H
  C014*   CB 4E          C      	BIT	1,(HL)
  C016*   28 02          C      	JR	Z,$+04	;C01A
  C018*   3E 22          C      	LD	A,022H
  C01A*   CD C82E        C      	CALL	0C82EH
  C01D*   CD C81B        C      	CALL	0C81BH
  C020*   FE 20          C      	CP	020H
  C022*   38 34          C      	JR	C,$+54	;C058
  C024*   FE 22          C      	CP	022H
  C026*   21 F265        C      	LD	HL,0F265H
  C029*   20 09          C      	JR	NZ,$+11	;C034
  C02B*   7E             C      	LD	A,(HL)
  C02C*   EE 02          C      	XOR	002H
  C02E*   77             C      	LD	(HL),A
  C02F*   01 0000        C      	LD	BC,00000H
  C032*   18 58          C      	JR	$+90	;C08C
  C034*   CB 4E          C      	BIT	1,(HL)
  C036*   20 16          C      	JR	NZ,$+24	;C04E
  C038*   21 F222        C      	LD	HL,0F222H
  C03B*   77             C      	LD	(HL),A
  C03C*   23             C      	INC	HL
  C03D*   CD C81B        C      	CALL	0C81BH
  C040*   77             C      	LD	(HL),A
  C041*   CD CA21        C      	CALL	0CA21H
  C044*   28 07          C      	JR	Z,$+09	;C04D
  C046*   3E 02          C      	LD	A,002H
  C048*   CD C8A7        C      	CALL	0C8A7H
  C04B*   18 D0          C      	JR	$-46	;C01D
  C04D*   7A             C      	LD	A,D
  C04E*   E1             C      	POP	HL
  C04F*   CD EFC9        C      	CALL	0EFC9H
  C052*   E5             C      	PUSH	HL
  C053*   01 0001        C      	LD	BC,00001H
  C056*   18 34          C      	JR	$+54	;C08C
  C058*   01 0001        C      	LD	BC,00001H
  C05B*   FE 18          C      	CP	018H
  C05D*   28 2D          C      	JR	Z,$+47	;C08C
  C05F*   0E 08          C      	LD	C,008H
  C061*   FE 1A          C      	CP	01AH
  C063*   28 27          C      	JR	Z,$+41	;C08C
  C065*   0E 40          C      	LD	C,040H
  C067*   FE 0A          C      	CP	00AH
  C069*   28 21          C      	JR	Z,$+35	;C08C
  C06B*   01 FFFF        C      	LD	BC,0FFFFH
  C06E*   FE 08          C      	CP	008H
  C070*   28 1A          C      	JR	Z,$+28	;C08C
  C072*   0E F8          C      	LD	C,0F8H
  C074*   FE 19          C      	CP	019H
  C076*   28 14          C      	JR	Z,$+22	;C08C
  C078*   0E C0          C      	LD	C,0C0H
  C07A*   FE 0C          C      	CP	00CH
  C07C*   28 0E          C      	JR	Z,$+16	;C08C
  C07E*   FE 1F          C      	CP	01FH
  C080*   CA C267        C      	JP	Z,0C267H
  C083*   FE 1D          C      	CP	01DH
  C085*   20 96          C      	JR	NZ,$-104	;C01D
  C087*   E1             C      	POP	HL
  C088*   D1             C      	POP	DE
  C089*   C3 BF77        C      	JP	0BF77H
                         C      ;
  C08C*                  C      C08C:
  C08C*   E1             C      	POP	HL
  C08D*   D1             C      	POP	DE
  C08E*   09             C      	ADD	HL,BC
  C08F*   EB             C      	EX	DE,HL
  C090*   09             C      	ADD	HL,BC
  C091*   7C             C      	LD	A,H
  C092*   B7             C      	OR	A
  C093*   7D             C      	LD	A,L
  C094*   20 06          C      	JR	NZ,$+08	;C09C
  C096*   FE 40          C      	CP	040H
  C098*   38 0E          C      	JR	C,$+16	;C0A8
  C09A*   05             C      	DEC	B
  C09B*   05             C      	DEC	B
  C09C*   04             C      	INC	B
  C09D*   79             C      	LD	A,C
  C09E*   ED 44          C      	NEG
  C0A0*   E6 F8          C      	AND	0F8H
  C0A2*   20 02          C      	JR	NZ,$+04	;C0A6
  C0A4*   3E 08          C      	LD	A,008H
  C0A6*   4F             C      	LD	C,A
'SYS3 - MEOS1521 ---> MEOS-System'	MACRO-80 3.44	09-Dec-81	PAGE	1-45


  C0A7*   09             C      	ADD	HL,BC
  C0A8*   EB             C      	EX	DE,HL
  C0A9*   C3 BF92        C      	JP	0BF92H
                         C      ;
                         C          PAGE
'SYS3 - MEOS1521 ---> MEOS-System'	MACRO-80 3.44	09-Dec-81	PAGE	1-46


                         C      
  C0AC*                  C      C0AC:
                         C      ;	===>	
  C0AC*   01 0424        C      	LD	BC,00424H		;"IOCO  "   PN XI
  C0AF*   C5             C      	PUSH	BC
  C0B0*   CD C710        C      	CALL	0C710H
  C0B3*   3E 10          C      	LD	A,010H
  C0B5*   CD C82E        C      	CALL	0C82EH
  C0B8*   FD 21 F1FA     C      	LD	IY,0F1FAH
  C0BC*   CD C7C2        C      	CALL	0C7C2H
  C0BF*   3A F243        C      	LD	A,(0F243H)
  C0C2*   21 F0F5        C      	LD	HL,0F0F5H
  C0C5*   1E DB          C      	LD	E,0DBH
  C0C7*   FE 49          C      	CP	049H
  C0C9*   28 10          C      	JR	Z,$+18	;C0DB
  C0CB*   21 F0FA        C      	LD	HL,0F0FAH
  C0CE*   1E D3          C      	LD	E,0D3H
  C0D0*   FE 4F          C      	CP	04FH
  C0D2*   28 07          C      	JR	Z,$+09	;C0DB
  C0D4*   3E 03          C      	LD	A,003H
  C0D6*   CD C8A7        C      	CALL	0C8A7H
  C0D9*   18 E1          C      	JR	$-29	;C0BC
  C0DB*   D5             C      	PUSH	DE
  C0DC*   CD C6FC        C      	CALL	0C6FCH
  C0DF*   FD 21 F1FE     C      	LD	IY,0F1FEH
  C0E3*   CD C7CD        C      	CALL	0C7CDH
  C0E6*   7A             C      	LD	A,D
  C0E7*   B7             C      	OR	A
  C0E8*   28 07          C      	JR	Z,$+09	;C0F1
  C0EA*   3E 02          C      	LD	A,002H
  C0EC*   CD C8A7        C      	CALL	0C8A7H
  C0EF*   18 EE          C      	JR	$-16	;C0DF
  C0F1*   7B             C      	LD	A,E
  C0F2*   D1             C      	POP	DE
  C0F3*   57             C      	LD	D,A
  C0F4*   D5             C      	PUSH	DE
  C0F5*   21 F0FF        C      	LD	HL,0F0FFH
  C0F8*   CD C6FC        C      	CALL	0C6FCH
  C0FB*   7B             C      	LD	A,E
  C0FC*   FE DB          C      	CP	0DBH
  C0FE*   28 13          C      	JR	Z,$+21	;C113
  C100*   FD 21 F202     C      	LD	IY,0F202H
  C104*   CD C7CD        C      	CALL	0C7CDH
  C107*   7A             C      	LD	A,D
  C108*   B7             C      	OR	A
  C109*   28 07          C      	JR	Z,$+09	;C112
  C10B*   3E 02          C      	LD	A,002H
  C10D*   CD C8A7        C      	CALL	0C8A7H
  C110*   18 EE          C      	JR	$-16	;C100
  C112*   7B             C      	LD	A,E
  C113*   D1             C      	POP	DE
  C114*   21 FDD3        C      	LD	HL,0FDD3H
  C117*   22 F266        C      	LD	(0F266H),HL
  C11A*   ED 53 F268     C      	LD	(0F268H),DE
  C11E*   F5             C      	PUSH	AF
  C11F*   3E C9          C      	LD	A,0C9H
  C121*   32 F26A        C      	LD	(0F26AH),A
  C124*   CD C15B        C      	CALL	0C15BH
  C127*   F1             C      	POP	AF
  C128*   CD EFD5        C      	CALL	0EFD5H
  C12B*   4F             C      	LD	C,A
  C12C*   11 F336        C      	LD	DE,0F336H
  C12F*   D5             C      	PUSH	DE
  C130*   CD C3A8        C      	CALL	0C3A8H
  C133*   03             C      	INC	BC
  C134*   21 F102        C      	LD	HL,0F102H
  C137*   CD C3B0        C      	CALL	0C3B0H
  C13A*   EB             C      	EX	DE,HL
  C13B*   06 08          C      	LD	B,008H
  C13D*   36 30          C      	LD	(HL),030H
  C13F*   CB 01          C      	RLC	C
  C141*   30 02          C      	JR	NC,$+04	;C145
  C143*   36 31          C      	LD	(HL),031H
  C145*   23             C      	INC	HL
  C146*   10 F5          C      	DJNZ	$-09	;C13D
  C148*   36 42          C      	LD	(HL),042H
  C14A*   E1             C      	POP	HL
  C14B*   CD C6FC        C      	CALL	0C6FCH
  C14E*   C1             C      	POP	BC
  C14F*   04             C      	INC	B
  C150*   78             C      	LD	A,B
  C151*   FE 0C          C      	CP	00CH
'SYS3 - MEOS1521 ---> MEOS-System'	MACRO-80 3.44	09-Dec-81	PAGE	1-47


  C153*   DA C0AF        C      	JP	C,0C0AFH
  C156*   C3 C0AC        C      	JP	0C0ACH
                         C      ;
                         C          PAGE
'SYS3 - MEOS1521 ---> MEOS-System'	MACRO-80 3.44	09-Dec-81	PAGE	1-48


                         C      
  C159*                  C      C159:
                         C      ;	===>	
  C159*   41             C      	LD	B,C		;PN VB   Aufrufschleife
  C15A*   00             C      	NOP
  C15B*   3E 20          C      	LD	A,020H
  C15D*   06 20          C      	LD	B,020H
  C15F*   21 F336        C      	LD	HL,0F336H
  C162*   77             C      	LD	(HL),A
  C163*   23             C      	INC	HL
  C164*   10 FC          C      	DJNZ	$-02	;C162
  C166*   36 04          C      	LD	(HL),004H
  C168*   C9             C      	RET
                         C      ;	===>
  C169*                  C      C169:
  C169*   11 F338        C      	LD	DE,0F338H
  C16C*   D5             C      	PUSH	DE
  C16D*   E5             C      	PUSH	HL
  C16E*   21 F336        C      	LD	HL,0F336H
  C171*   11 0000        C      	LD	DE,00000H
  C174*   C5             C      	PUSH	BC
  C175*   CD C710        C      	CALL	0C710H
  C178*   42             C      	LD	B,D
  C179*   4B             C      	LD	C,E
  C17A*   CD B705        C      	CALL	0B705H
  C17D*   CD C15B        C      	CALL	0C15BH
  C180*   C1             C      	POP	BC
  C181*   E1             C      	POP	HL
  C182*   D1             C      	POP	DE
  C183*   04             C      	INC	B
  C184*   C9             C      	RET
  C185*   D5             C      	PUSH	DE
  C186*   E5             C      	PUSH	HL
  C187*   18 EB          C      	JR	$-19	;C174
                         C      ;	===>
  C189*                  C      C189:
  C189*   01 0002        C      	LD	BC,00002H
  C18C*   CD C714        C      	CALL	0C714H
  C18F*   3E 1F          C      	LD	A,01FH
  C191*   CD C82E        C      	CALL	0C82EH
  C194*   3E 3D          C      	LD	A,03DH
  C196*   06 86          C      	LD	B,086H
  C198*   CD C15F        C      	CALL	0C15FH
  C19B*   3E 20          C      	LD	A,020H
  C19D*   21 F240        C      	LD	HL,0F240H
  C1A0*   11 F38C        C      	LD	DE,0F38CH
  C1A3*   0E 04          C      	LD	C,004H
  C1A5*   ED B8          C      	LDDR
  C1A7*   12             C      	LD	(DE),A
  C1A8*   11 F35A        C      	LD	DE,0F35AH
  C1AB*   0E 09          C      	LD	C,009H
  C1AD*   ED B8          C      	LDDR
  C1AF*   12             C      	LD	(DE),A
  C1B0*   21 F030        C      	LD	HL,0F030H
  C1B3*   11 F363        C      	LD	DE,0F363H
  C1B6*   0E 18          C      	LD	C,018H
  C1B8*   ED B0          C      	LDIR
  C1BA*   3E 0A          C      	LD	A,00AH
  C1BC*   32 F34E        C      	LD	(0F34EH),A
  C1BF*   32 F38F        C      	LD	(0F38FH),A
  C1C2*   21 F390        C      	LD	HL,0F390H
  C1C5*   06 14          C      	LD	B,014H
  C1C7*   3E 20          C      	LD	A,020H
  C1C9*   CD C162        C      	CALL	0C162H
  C1CC*   36 3D          C      	LD	(HL),03DH
  C1CE*   0E 14          C      	LD	C,014H
  C1D0*   C3 C16C        C      	JP	0C16CH
  C1D3*   CD C15B        C      	CALL	0C15BH
  C1D6*   21 F042        C      	LD	HL,0F042H
  C1D9*   0E 07          C      	LD	C,007H
  C1DB*   3A F26B        C      	LD	A,(0F26BH)
  C1DE*   09             C      	ADD	HL,BC
  C1DF*   0F             C      	RRCA
  C1E0*   30 FC          C      	JR	NC,$-02	;C1DE
  C1E2*   11 F338        C      	LD	DE,0F338H
  C1E5*   ED B0          C      	LDIR
  C1E7*   21 F350        C      	LD	HL,0F350H
  C1EA*   3A F335        C      	LD	A,(0F335H)
  C1ED*   01 0441        C      	LD	BC,00441H
  C1F0*   0F             C      	RRCA
  C1F1*   30 01          C      	JR	NC,$+03	;C1F4
  C1F3*   71             C      	LD	(HL),C
'SYS3 - MEOS1521 ---> MEOS-System'	MACRO-80 3.44	09-Dec-81	PAGE	1-49


  C1F4*   0C             C      	INC	C
  C1F5*   23             C      	INC	HL
  C1F6*   10 F8          C      	DJNZ	$-06	;C1F0
  C1F8*   01 0400        C      	LD	BC,00400H
  C1FB*   C3 C16C        C      	JP	0C16CH
  C1FE*   F5             C      	PUSH	AF
  C1FF*   C5             C      	PUSH	BC
  C200*   01 0B00        C      	LD	BC,00B00H
  C203*   CD C169        C      	CALL	0C169H
  C206*   3E 0B          C      	LD	A,00BH
  C208*   CD C82E        C      	CALL	0C82EH
  C20B*   C1             C      	POP	BC
  C20C*   F1             C      	POP	AF
  C20D*   C9             C      	RET
                         C      ;
                         C          PAGE
'SYS3 - MEOS1521 ---> MEOS-System'	MACRO-80 3.44	09-Dec-81	PAGE	1-50


                         C      
  C20E*                  C      C20E:
                         C      ;	===>
  C20E*   00             C      	NOP		;vom Anfangslader
  C20F*   DB FF          C      	IN	A,(0FFH)
  C211*   47             C      	LD	B,A
  C212*   E6 03          C      	AND	003H
  C214*   32 F263        C      	LD	(0F263H),A
  C217*   CD EFDB        C      	CALL	0EFDBH
  C21A*   ED 7B F25E     C      	LD	SP,(0F25EH)
  C21E*   28 0A          C      	JR	Z,$+12	;C22A
  C220*   32 F26B        C      	LD	(0F26BH),A
  C223*   21 F260        C      	LD	HL,0F260H
  C226*   ED 72          C      	SBC	HL,SP
  C228*   28 02          C      	JR	Z,$+04	;C22C
  C22A*   D3 FC          C      	OUT	(0FCH),A
  C22C*   C1             C      	POP	BC
  C22D*   0B             C      	DEC	BC
  C22E*   CD EFE0        C      	CALL	0EFE0H
  C231*   FE 08          C      	CP	008H
  C233*   20 01          C      	JR	NZ,$+03	;C236
  C235*   0B             C      	DEC	BC
  C236*   ED 73 F25E     C      	LD	(0F25EH),SP
  C23A*   ED 43 F260     C      	LD	(0F260H),BC
  C23E*   31 F7D0        C      	LD	SP,0F7D0H
  C241*   ED 5E          C      	IM	2
  C243*   3E F7          C      	LD	A,0F7H
  C245*   ED 47          C      	LD	I,A
  C247*   FB             C      	EI
  C248*   CD C7F9        C      	CALL	0C7F9H
  C24B*   21 F489        C      	LD	HL,0F489H
  C24E*   11 F26C        C      	LD	DE,0F26CH
  C251*   01 0029        C      	LD	BC,00029H
  C254*   ED B0          C      	LDIR
  C256*   CD C71A        C      	CALL	0C71AH
  C259*   3A F26B        C      	LD	A,(0F26BH)
  C25C*   FE 10          C      	CP	010H
  C25E*   CA B839        C      	JP	Z,0B839H
  C261*   CD B524        C      	CALL	0B524H
  C264*   CA B7C4        C      	JP	Z,0B7C4H
                         C      ;	===>
  C267*   31 F7D0        C      	LD	SP,0F7D0H		;VB.LAZR
  C26A*   CD C71A        C      	CALL	0C71AH
  C26D*   CD C189        C      	CALL	0C189H
  C270*   01 0301        C      	LD	BC,00301H
  C273*   CD C714        C      	CALL	0C714H
  C276*   11 F338        C      	LD	DE,0F338H
  C279*   21 F073        C      	LD	HL,0F073H
  C27C*   01 F264        C      	LD	BC,0F264H
  C27F*   0A             C      	LD	A,(BC)
  C280*   12             C      	LD	(DE),A
  C281*   13             C      	INC	DE
  C282*   CD C3B0        C      	CALL	0C3B0H
  C285*   CD C3B0        C      	CALL	0C3B0H
  C288*   0B             C      	DEC	BC
  C289*   0A             C      	LD	A,(BC)
  C28A*   CD C39D        C      	CALL	0C39DH
  C28D*   13             C      	INC	DE
  C28E*   13             C      	INC	DE
  C28F*   CD C3B0        C      	CALL	0C3B0H
  C292*   CD C3A6        C      	CALL	0C3A6H
  C295*   11 F34C        C      	LD	DE,0F34CH
  C298*   CD C3B0        C      	CALL	0C3B0H
  C29B*   CD C3A3        C      	CALL	0C3A3H
  C29E*   CD C1FE        C      	CALL	0C1FEH
  C2A1*   3E DC          C      	LD	A,0DCH
  C2A3*   F5             C      	PUSH	AF
  C2A4*   CD C3B0        C      	CALL	0C3B0H
  C2A7*   CD C3A3        C      	CALL	0C3A3H
  C2AA*   13             C      	INC	DE
  C2AB*   13             C      	INC	DE
  C2AC*   F1             C      	POP	AF
  C2AD*   CB 27          C      	SLA	A
  C2AF*   D4 C1FE        C      	CALL	NC,0C1FEH
  C2B2*   20 EF          C      	JR	NZ,$-15	;C2A3
  C2B4*   CD C1FE        C      	CALL	0C1FEH
  C2B7*   CD C1FE        C      	CALL	0C1FEH
  C2BA*   CD C3B0        C      	CALL	0C3B0H
  C2BD*   CD C3A7        C      	CALL	0C3A7H
  C2C0*   11 F343        C      	LD	DE,0F343H
  C2C3*   D5             C      	PUSH	DE
  C2C4*   C5             C      	PUSH	BC
'SYS3 - MEOS1521 ---> MEOS-System'	MACRO-80 3.44	09-Dec-81	PAGE	1-51


  C2C5*   01 0010        C      	LD	BC,00010H
  C2C8*   ED B0          C      	LDIR
  C2CA*   CD C1FE        C      	CALL	0C1FEH
  C2CD*   C1             C      	POP	BC
  C2CE*   CD C3B0        C      	CALL	0C3B0H
  C2D1*   CD C3A7        C      	CALL	0C3A7H
  C2D4*   03             C      	INC	BC
  C2D5*   E1             C      	POP	HL
  C2D6*   0A             C      	LD	A,(BC)
  C2D7*   0E 98          C      	LD	C,098H
  C2D9*   36 30          C      	LD	(HL),030H
  C2DB*   07             C      	RLCA
  C2DC*   30 02          C      	JR	NC,$+04	;C2E0
  C2DE*   36 31          C      	LD	(HL),031H
  C2E0*   23             C      	INC	HL
  C2E1*   23             C      	INC	HL
  C2E2*   23             C      	INC	HL
  C2E3*   CB 21          C      	SLA	C
  C2E5*   38 F2          C      	JR	C,$-12	;C2D9
  C2E7*   07             C      	RLCA
  C2E8*   20 EF          C      	JR	NZ,$-15	;C2D9
  C2EA*   06 0B          C      	LD	B,00BH
  C2EC*   CD C16C        C      	CALL	0C16CH
  C2EF*   3E 2D          C      	LD	A,02DH		;'-'
  C2F1*   06 40          C      	LD	B,040H
  C2F3*   CD C15F        C      	CALL	0C15FH
  C2F6*   06 0E          C      	LD	B,00EH
  C2F8*   CD C16C        C      	CALL	0C16CH
  C2FB*   CD C1D3        C      	CALL	0C1D3H
  C2FE*   01 0302        C      	LD	BC,00302H		;-|  Fenster festlegen
  C301*   CD C714        C      	CALL	0C714H		;-|
  C304*   3A F26B        C      	LD	A,(0F26BH)
  C307*   FE 10          C      	CP	010H
  C309*   CA B9C4        C      	JP	Z,0B9C4H
  C30C*   21 F0A7        C      	LD	HL,0F0A7H		;<--|
  C30F*   CD C6FC        C      	CALL	0C6FCH		;   |
  C312*   FD 21 F1E6     C      	LD	IY,0F1E6H		;   |
  C316*   CD C7B3        C      	CALL	0C7B3H		;   |	;Programmname eingeben
  C319*   28 F1          C      	JR	Z,$-13		;---|	;C30C
  C31B*   21 F243        C      	LD	HL,0F243H
  C31E*   01 0006        C      	LD	BC,00006H
  C321*   CD CA44        C      	CALL	0CA44H
  C324*   F3             C      	DI
  C325*   31 F13A        C      	LD	SP,0F13AH
  C328*   AF             C      	XOR	A
  C329*   C1             C      	POP	BC
  C32A*   C6 01          C      	ADD	A,001H
  C32C*   E1             C      	POP	HL
  C32D*   ED 52          C      	SBC	HL,DE
  C32F*   28 09          C      	JR	Z,$+11	;C33A
  C331*   10 F7          C      	DJNZ	$-07	;C32A
  C333*   FE 29          C      	CP	029H
  C335*   20 F2          C      	JR	NZ,$-12	;C329
  C337*   C3 F005        C      	JP	0F005H
  C33A*   31 F192        C      	LD	SP,0F192H
  C33D*   E1             C      	POP	HL
  C33E*   3D             C      	DEC	A
  C33F*   20 FC          C      	JR	NZ,$-02	;C33D
  C341*   31 F7D0        C      	LD	SP,0F7D0H
  C344*   FB             C      	EI
  C345*   28 19          C      	JR	Z,$+27	;C360
  C347*   FE 01          C      	CP	001H
  C349*   28 C1          C      	JR	Z,$-61	;C30C
  C34B*   3E 42          C      	LD	A,042H
  C34D*   CD C896        C      	CALL	0C896H
  C350*   18 BA          C      	JR	$-68	;C30C
  C352*   3E 02          C      	LD	A,002H
  C354*   1E 53          C      	LD	E,053H
  C356*   0E 04          C      	LD	C,004H
  C358*   21 F241        C      	LD	HL,0F241H
  C35B*   CD CA6E        C      	CALL	0CA6EH
  C35E*   B7             C      	OR	A
  C35F*   C9             C      	RET
  C360*   0D             C      	DEC	C
  C361*   20 0B          C      	JR	NZ,$+13	;C36E
  C363*   3E 20          C      	LD	A,020H
  C365*   32 F26B        C      	LD	(0F26BH),A
  C368*   E5             C      	PUSH	HL
  C369*   CD C389        C      	CALL	0C389H
  C36C*   E1             C      	POP	HL
  C36D*   E9             C      	JP	(HL)
  C36E*   0D             C      	DEC	C
  C36F*   20 05          C      	JR	NZ,$+07	;C376
'SYS3 - MEOS1521 ---> MEOS-System'	MACRO-80 3.44	09-Dec-81	PAGE	1-52


  C371*   05             C      	DEC	B
  C372*   10 F4          C      	DJNZ	$-10	;C368
  C374*   18 F7          C      	JR	$-07	;C36D
  C376*   0D             C      	DEC	C
  C377*   CA BE6C        C      	JP	Z,0BE6CH
  C37A*   0D             C      	DEC	C
  C37B*   20 F0          C      	JR	NZ,$-14	;C36D
  C37D*   0E 00          C      	LD	C,000H
  C37F*   1E 53          C      	LD	E,053H
  C381*   CD C3B8        C      	CALL	0C3B8H
  C384*   22 F1A0        C      	LD	(0F1A0H),HL
  C387*   18 DA          C      	JR	$-36	;C363
                         C      ;	-----	
  C389*   01 0320        C      	LD	BC,00320H
  C38C*   21 F122        C      	LD	HL,0F122H
  C38F*   C3 C3FF        C      	JP	0C3FFH
                         C      ;	-----
  C392*   7E             C      	LD	A,(HL)
  C393*   18 01          C      	JR	$+03		;---|	;C396
  C395*   0A             C      	LD	A,(BC)		;   |
  C396*   F5             C      	PUSH	AF		;<--|
  C397*   CD C909        C      	CALL	0C909H
  C39A*   12             C      	LD	(DE),A
  C39B*   13             C      	INC	DE
  C39C*   F1             C      	POP	AF
  C39D*   CD C90D        C      	CALL	0C90DH
  C3A0*   12             C      	LD	(DE),A		;<--|
  C3A1*   13             C      	INC	DE		;   |
  C3A2*   C9             C      	RET			;   |
  C3A3*   CD C395        C      	CALL	0C395H		;   |
  C3A6*   0B             C      	DEC	BC		;   |
  C3A7*   0A             C      	LD	A,(BC)		;   |
  C3A8*   CD C396        C      	CALL	0C396H		;   |
  C3AB*   3E 48          C      	LD	A,048H		;   |
  C3AD*   0B             C      	DEC	BC		;   |
  C3AE*   18 F0          C      	JR	$-14		;---|	;C3A0
                         C      ;	-----
  C3B0*   C5             C      	PUSH	BC
  C3B1*   01 0003        C      	LD	BC,00003H
  C3B4*   ED B0          C      	LDIR
  C3B6*   C1             C      	POP	BC
  C3B7*   C9             C      	RET
                         C      ;	-----
  C3B8*   CD C3DB        C      	CALL	0C3DBH
  C3BB*   42             C      	LD	B,D
  C3BC*   CD C3DB        C      	CALL	0C3DBH
  C3BF*   62             C      	LD	H,D
  C3C0*   CD C3DB        C      	CALL	0C3DBH
  C3C3*   6A             C      	LD	L,D
  C3C4*   04             C      	INC	B
  C3C5*   10 05          C      	DJNZ	$+07	;C3CC
  C3C7*   3E 04          C      	LD	A,004H
  C3C9*   C3 CA6E        C      	JP	0CA6EH
                         C      ;	-----
  C3CC*   CD C3DB        C      	CALL	0C3DBH
  C3CF*   0D             C      	DEC	C
  C3D0*   CD EFE5        C      	CALL	0EFE5H
  C3D3*   00             C      	NOP
  C3D4*   00             C      	NOP
  C3D5*   23             C      	INC	HL
  C3D6*   0C             C      	INC	C
  C3D7*   10 F3          C      	DJNZ	$-11	;C3CC
  C3D9*   18 DD          C      	JR	$-33	;C3B8
                         C      ;	-----
  C3DB*   AF             C      	XOR	A
  C3DC*   C5             C      	PUSH	BC
  C3DD*   4B             C      	LD	C,E
  C3DE*   CD CA6E        C      	CALL	0CA6EH
  C3E1*   59             C      	LD	E,C
  C3E2*   C1             C      	POP	BC
  C3E3*   FE 03          C      	CP	003H
  C3E5*   20 0D          C      	JR	NZ,$+15	;C3F4
  C3E7*   3E 54          C      	LD	A,054H
  C3E9*   CD C896        C      	CALL	0C896H
  C3EC*   3E 04          C      	LD	A,004H
  C3EE*   CD CA6E        C      	CALL	0CA6EH
  C3F1*   C3 C267        C      	JP	0C267H
  C3F4*   FE 01          C      	CP	001H
  C3F6*   28 F4          C      	JR	Z,$-10	;C3EC
  C3F8*   C9             C      	RET
                         C      ;	-----
  C3F9*   01 0D07        C      	LD	BC,00D07H
  C3FC*   21 F0B0        C      	LD	HL,0F0B0H
'SYS3 - MEOS1521 ---> MEOS-System'	MACRO-80 3.44	09-Dec-81	PAGE	1-53


  C3FF*   CD C710        C      	CALL	0C710H
  C402*   C3 C6FC        C      	JP	0C6FCH
                         C      ;
                         C          PAGE
'SYS3 - MEOS1521 ---> MEOS-System'	MACRO-80 3.44	09-Dec-81	PAGE	1-54


                         C      
                         C      ;	===>
  C405*                  C      C405:
  C405*   CD C573        C      	CALL	0C573H		;"AS    "   PN CE
  C408*   CD C56D        C      	CALL	0C56DH
  C40B*   21 C5AB        C      	LD	HL,0C5ABH
  C40E*   CD C599        C      	CALL	0C599H
  C411*   7A             C      	LD	A,D
  C412*   B7             C      	OR	A
  C413*   20 F3          C      	JR	NZ,$-11	;C408
  C415*   7B             C      	LD	A,E
  C416*   FE 10          C      	CP	010H
  C418*   30 EE          C      	JR	NC,$-16	;C408
  C41A*   F6 50          C      	OR	050H
  C41C*   21 F4D0        C      	LD	HL,0F4D0H
  C41F*   11 0006        C      	LD	DE,00006H
  C422*   06 0D          C      	LD	B,00DH
  C424*   BE             C      	CP	(HL)
  C425*   28 0A          C      	JR	Z,$+12	;C431
  C427*   19             C      	ADD	HL,DE
  C428*   10 FA          C      	DJNZ	$-04	;C424
  C42A*   3E 50          C      	LD	A,050H
  C42C*   CD C594        C      	CALL	0C594H
  C42F*   18 D7          C      	JR	$-39	;C408
  C431*   48             C      	LD	C,B
  C432*   06 00          C      	LD	B,000H
  C434*   21 F4B1        C      	LD	HL,0F4B1H
  C437*   09             C      	ADD	HL,BC
  C438*   5F             C      	LD	E,A
  C439*   56             C      	LD	D,(HL)
  C43A*   D5             C      	PUSH	DE
  C43B*   E5             C      	PUSH	HL
  C43C*   3E 53          C      	LD	A,053H
  C43E*   CD CC64        C      	CALL	0CC64H
  C441*   28 0D          C      	JR	Z,$+15	;C450
  C443*   3E 73          C      	LD	A,073H
  C445*   CD CC64        C      	CALL	0CC64H
  C448*   28 06          C      	JR	Z,$+08	;C450
  C44A*   AF             C      	XOR	A
  C44B*   CD C594        C      	CALL	0C594H
  C44E*   18 40          C      	JR	$+66	;C490
  C450*   2B             C      	DEC	HL
  C451*   C1             C      	POP	BC
  C452*   D1             C      	POP	DE
  C453*   7A             C      	LD	A,D
  C454*   E6 60          C      	AND	060H
  C456*   FE 40          C      	CP	040H
  C458*   20 02          C      	JR	NZ,$+04	;C45C
  C45A*   CB EA          C      	SET	5,D
  C45C*   72             C      	LD	(HL),D
  C45D*   3E 53          C      	LD	A,053H
  C45F*   02             C      	LD	(BC),A
  C460*   18 2E          C      	JR	$+48	;C490
                         C      ;
                         C          PAGE
'SYS3 - MEOS1521 ---> MEOS-System'	MACRO-80 3.44	09-Dec-81	PAGE	1-55


                         C      
                         C      ;	===>
  C462*                  C      C462:
  C462*   CD C573        C      	CALL	0C573H		;"LOAD  "
  C465*   CD C56D        C      	CALL	0C56DH
  C468*   21 C5CA        C      	LD	HL,0C5CAH
  C46B*   FD 21 F1E6     C      	LD	IY,0F1E6H
  C46F*   CD C5A1        C      	CALL	0C5A1H
  C472*   21 C5DE        C      	LD	HL,0C5DEH
  C475*   FD 21 C65B     C      	LD	IY,0C65BH
  C479*   CD C5A1        C      	CALL	0C5A1H
  C47C*   3A F266        C      	LD	A,(0F266H)
  C47F*   21 F241        C      	LD	HL,0F241H
  C482*   5F             C      	LD	E,A
  C483*   3E 02          C      	LD	A,002H
  C485*   D5             C      	PUSH	DE
  C486*   CD C58B        C      	CALL	0C58BH
  C489*   D1             C      	POP	DE
  C48A*   B7             C      	OR	A
  C48B*   28 05          C      	JR	Z,$+07	;C492
  C48D*   3D             C      	DEC	A
  C48E*   20 0C          C      	JR	NZ,$+14	;C49C
  C490*   18 6C          C      	JR	$+110	;C4FE
  C492*   0E 01          C      	LD	C,001H
  C494*   CD C3B8        C      	CALL	0C3B8H
  C497*   22 F260        C      	LD	(0F260H),HL
  C49A*   18 62          C      	JR	$+100	;C4FE
  C49C*   3E 42          C      	LD	A,042H
  C49E*   CD C594        C      	CALL	0C594H
  C4A1*   18 C2          C      	JR	$-60	;C465
                         C          PAGE
'SYS3 - MEOS1521 ---> MEOS-System'	MACRO-80 3.44	09-Dec-81	PAGE	1-56


                         C      
                         C      ;	===>
  C4A3*                  C      C4A3:
  C4A3*   CD C573        C      	CALL	0C573H		;"SAVE  "
  C4A6*   CD C56D        C      	CALL	0C56DH
  C4A9*   21 C5F1        C      	LD	HL,0C5F1H
  C4AC*   FD 21 F1E6     C      	LD	IY,0F1E6H
  C4B0*   CD C5A1        C      	CALL	0C5A1H
  C4B3*   21 C606        C      	LD	HL,0C606H
  C4B6*   FD 21 C65B     C      	LD	IY,0C65BH
  C4BA*   CD C5A1        C      	CALL	0C5A1H
  C4BD*   3A F266        C      	LD	A,(0F266H)
  C4C0*   5F             C      	LD	E,A
  C4C1*   3E 03          C      	LD	A,003H
  C4C3*   21 F241        C      	LD	HL,0F241H
  C4C6*   CD C58B        C      	CALL	0C58BH
  C4C9*   3D             C      	DEC	A
  C4CA*   28 32          C      	JR	Z,$+52	;C4FE
  C4CC*   3C             C      	INC	A
  C4CD*   C2 C565        C      	JP	NZ,0C565H
  C4D0*   00             C      	NOP
  C4D1*   21 C619        C      	LD	HL,0C619H
  C4D4*   CD C599        C      	CALL	0C599H
  C4D7*   D5             C      	PUSH	DE
  C4D8*   21 C62B        C      	LD	HL,0C62BH
  C4DB*   CD C599        C      	CALL	0C599H
  C4DE*   D5             C      	PUSH	DE
  C4DF*   21 C635        C      	LD	HL,0C635H
  C4E2*   CD C58E        C      	CALL	0C58EH
  C4E5*   F5             C      	PUSH	AF
  C4E6*   28 0A          C      	JR	Z,$+12	;C4F2
  C4E8*   21 C648        C      	LD	HL,0C648H
  C4EB*   CD C599        C      	CALL	0C599H
  C4EE*   ED 53 F222     C      	LD	(0F222H),DE
  C4F2*   F1             C      	POP	AF
  C4F3*   E1             C      	POP	HL
  C4F4*   D1             C      	POP	DE
  C4F5*   F5             C      	PUSH	AF
  C4F6*   E5             C      	PUSH	HL
  C4F7*   AF             C      	XOR	A
  C4F8*   ED 52          C      	SBC	HL,DE
  C4FA*   38 5F          C      	JR	C,$+97	;C55B
  C4FC*   18 02          C      	JR	$+04	;C500
  C4FE*   18 47          C      	JR	$+73	;C547
  C500*   06 7C          C      	LD	B,07CH
  C502*   7C             C      	LD	A,H
  C503*   B7             C      	OR	A
  C504*   20 06          C      	JR	NZ,$+08	;C50C
  C506*   7D             C      	LD	A,L
  C507*   FE 7C          C      	CP	07CH
  C509*   30 01          C      	JR	NC,$+03	;C50C
  C50B*   45             C      	LD	B,L
  C50C*   04             C      	INC	B
  C50D*   EB             C      	EX	DE,HL
  C50E*   78             C      	LD	A,B
  C50F*   CD C549        C      	CALL	0C549H
  C512*   7C             C      	LD	A,H
  C513*   CD C549        C      	CALL	0C549H
  C516*   7D             C      	LD	A,L
  C517*   CD C549        C      	CALL	0C549H
  C51A*   CD E881        C      	CALL	0E881H
  C51D*   CD C549        C      	CALL	0C549H
  C520*   23             C      	INC	HL
  C521*   10 F7          C      	DJNZ	$-07	;C51A
  C523*   EB             C      	EX	DE,HL
  C524*   E1             C      	POP	HL
  C525*   E5             C      	PUSH	HL
  C526*   AF             C      	XOR	A
  C527*   ED 52          C      	SBC	HL,DE
  C529*   30 D5          C      	JR	NC,$-41	;C500
  C52B*   E1             C      	POP	HL
  C52C*   F1             C      	POP	AF
  C52D*   28 A2          C      	JR	Z,$-92	;C4D1
  C52F*   AF             C      	XOR	A
  C530*   CD C549        C      	CALL	0C549H
  C533*   2A F222        C      	LD	HL,(0F222H)
  C536*   7C             C      	LD	A,H
  C537*   CD C549        C      	CALL	0C549H
  C53A*   7D             C      	LD	A,L
  C53B*   CD C549        C      	CALL	0C549H
  C53E*   3A F266        C      	LD	A,(0F266H)
  C541*   5F             C      	LD	E,A
'SYS3 - MEOS1521 ---> MEOS-System'	MACRO-80 3.44	09-Dec-81	PAGE	1-57


  C542*   3E 05          C      	LD	A,005H
  C544*   CD C58B        C      	CALL	0C58BH
  C547*   18 5F          C      	JR	$+97	;C5A8
  C549*   D5             C      	PUSH	DE
  C54A*   57             C      	LD	D,A
  C54B*   3A F266        C      	LD	A,(0F266H)
  C54E*   5F             C      	LD	E,A
  C54F*   3E 01          C      	LD	A,001H
  C551*   CD C58B        C      	CALL	0C58BH
  C554*   D1             C      	POP	DE
  C555*   FE 01          C      	CP	001H
  C557*   C0             C      	RET	NZ
  C558*   C3 EF7B        C      	JP	0EF7BH
  C55B*   3E 02          C      	LD	A,002H
  C55D*   E1             C      	POP	HL
  C55E*   E1             C      	POP	HL
  C55F*   CD C8A7        C      	CALL	0C8A7H
  C562*   C3 C4D1        C      	JP	0C4D1H
  C565*   3E 43          C      	LD	A,043H
  C567*   CD C594        C      	CALL	0C594H
  C56A*   C3 C4A3        C      	JP	0C4A3H
  C56D*   01 031F        C      	LD	BC,0031FH
  C570*   C3 C38C        C      	JP	0C38CH
  C573*   3E 03          C      	LD	A,003H
  C575*   21 C820        C      	LD	HL,0C820H
  C578*   CD C589        C      	CALL	0C589H
  C57B*   3E 08          C      	LD	A,008H
  C57D*   21 C65F        C      	LD	HL,0C65FH
  C580*   18 07          C      	JR	$+09	;C589
  C582*   3E 0D          C      	LD	A,00DH
  C584*   01 FFFF        C      	LD	BC,0FFFFH
  C587*   16 03          C      	LD	D,003H
  C589*   1E 44          C      	LD	E,044H
  C58B*   C3 CA6E        C      	JP	0CA6EH
  C58E*   CD C582        C      	CALL	0C582H
  C591*   C3 C83B        C      	JP	0C83BH
                         C      ;
  C594*                  C      C594:
  C594*   CD C896        C      	CALL	0C896H
  C597*   18 0E          C      	JR	$+16	;C5A7
  C599*   CD C582        C      	CALL	0C582H
  C59C*   CD C871        C      	CALL	0C871H
  C59F*   18 B6          C      	JR	$-72	;C557
  C5A1*   CD C582        C      	CALL	0C582H
  C5A4*   CD C7B3        C      	CALL	0C7B3H
  C5A7*   C0             C      	RET	NZ
  C5A8*   C3 C267        C      	JP	0C267H
                         C      ;
                         C          PAGE
'SYS3 - MEOS1521 ---> MEOS-System'	MACRO-80 3.44	09-Dec-81	PAGE	1-58


                         C      
                         C      ;	-----
  C5AB*                  C      C5AB:
  C5AB*   1A             C      	DB	01AH
  C5AC*   0A             C      	DB	00AH
  C5AD*   1A             C      	DB	01AH
  C5AE*   09             C      	DB	009H
  C5AF*   09             C      	DB	009H
  C5B0*   08             C      	DB	008H
  C5B1*   08             C      	DB	008H
  C5B2*   08             C      	DB	008H
  C5B3*   44 45 56 49    C      	DB	"DEVICE: S"
  C5B7*   43 45 3A 20    C      
  C5BB*   53             C      
  C5BC*   1A             C      	DB	01AH
  C5BD*   0D             C      	DB	00DH
  C5BE*   09             C      	DB	009H
  C5BF*   09             C      	DB	009H
  C5C0*   08             C      	DB	008H
  C5C1*   08             C      	DB	008H
  C5C2*   44 52 49 56    C      	DB	"DRIVE: "
  C5C6*   45 3A 20       C      
  C5C9*   03             C      	DB	003H
  C5CA*   1A             C      	DB	01AH
  C5CB*   0A             C      	DB	00AH
  C5CC*   1A             C      	DB	01AH
  C5CD*   09             C      	DB	009H
  C5CE*   20 20 20 20    C      	DB	"    FILE NAME: "
  C5D2*   46 49 4C 45    C      
  C5D6*   20 4E 41 4D    C      
  C5DA*   45 3A 20       C      
  C5DD*   03             C      	DB	003H
  C5DE*   1A             C      	DB	01AH
  C5DF*   0D             C      	DB	00DH
  C5E0*   09             C      	DB	009H
  C5E1*   20 20 46 52    C      	DB	"  FROM DEVICE: "
  C5E5*   4F 4D 20 44    C      
  C5E9*   45 56 49 43    C      
  C5ED*   45 3A 20       C      
  C5F0*   03             C      	DB	003H
  C5F1*   0C             C      	DB	00CH
  C5F2*   1A             C      	DB	01AH
  C5F3*   1A             C      	DB	01AH
  C5F4*   1A             C      	DB	01AH
  C5F5*   09             C      	DB	009H
  C5F6*   20 20 20 20    C      	DB	"    FILE NAME: "
  C5FA*   46 49 4C 45    C      
  C5FE*   20 4E 41 4D    C      
  C602*   45 3A 20       C      
  C605*   03             C      	DB	003H
  C606*   1A             C      	DB	01AH
  C607*   0D             C      	DB	00DH
  C608*   09             C      	DB	009H
  C609*   20 20 20 20    C      	DB	"    TO DEVICE: "
  C60D*   54 4F 20 44    C      
  C611*   45 56 49 43    C      
  C615*   45 3A 20       C      
  C618*   03             C      	DB	003H
  C619*   0C             C      	DB	00CH
  C61A*   1A             C      	DB	01AH
  C61B*   1A             C      	DB	01AH
  C61C*   1A             C      	DB	01AH
  C61D*   1A             C      	DB	01AH
  C61E*   1A             C      	DB	01AH
  C61F*   09             C      	DB	009H
  C620*   09             C      	DB	009H
  C621*   08             C      	DB	008H
  C622*   08             C      	DB	008H
  C623*   42 45 47 49    C      	DB	"BEGIN: "
  C627*   4E 3A 20       C      
  C62A*   03             C      	DB	003H
  C62B*   1A             C      	DB	01AH
  C62C*   0D             C      	DB	00DH
  C62D*   09             C      	DB	009H
  C62E*   09             C      	DB	009H
  C62F*   45 4E 44 3A    C      	DB	"END: "
  C633*   20             C      
  C634*   03             C      	DB	003H
  C635*   1A             C      	DB	01AH
  C636*   0D             C      	DB	00DH
  C637*   09             C      	DB	009H
  C638*   20 20 20 20    C      	DB	"     CONTINUE: "
'SYS3 - MEOS1521 ---> MEOS-System'	MACRO-80 3.44	09-Dec-81	PAGE	1-59


  C63C*   20 43 4F 4E    C      
  C640*   54 49 4E 55    C      
  C644*   45 3A 20       C      
  C647*   03             C      	DB	003H
  C648*   1A             C      	DB	01AH
  C649*   0D             C      	DB	00DH
  C64A*   09             C      	DB	009H
  C64B*   53 54 41 52    C      	DB	"START"
  C64F*   54             C      
  C650*   2E             C      	DB	02EH
  C651*   41 44 44 52    C      	DB	"ADDRESS: "
  C655*   45 53 53 3A    C      
  C659*   20             C      
  C65A*   03             C      	DB	003H
                         C      ;
  C65B*   66             C      	DB	066H
  C65C*   F2             C      	DB	0F2H
  C65D*   66             C      	DB	066H
  C65E*   F2             C      	DB	0F2H
  C65F*   02             C      	DB	002H
  C660*   1F             C      	DB	01FH
  C661*   29             C      	DB	029H
                         C      ;
                         C          PAGE
'SYS3 - MEOS1521 ---> MEOS-System'	MACRO-80 3.44	09-Dec-81	PAGE	1-60


                         C      
                         C      ;	===>
  C662*                  C      C662:
  C662*   CD C3F9        C      	CALL	0C3F9H		;"GOTO  "   PN XK
  C665*   CD C7C9        C      	CALL	0C7C9H
  C668*   ED 53 F260     C      	LD	(0F260H),DE
  C66C*   01 04F0        C      	LD	BC,004F0H
  C66F*   3E 47          C      	LD	A,047H
  C671*   16 00          C      	LD	D,000H
  C673*   ED 79          C      	OUT	(C),A
  C675*   ED 51          C      	OUT	(C),D
  C677*   0C             C      	INC	C
  C678*   10 F9          C      	DJNZ	$-05	;C673
                         C      ;	-----
                         C      ;	===>	
  C67A*   3E 1F          C      	LD	A,01FH		;"GO    "
  C67C*   CD C82E        C      	CALL	0C82EH
  C67F*   3E 02          C      	LD	A,002H
  C681*   32 F26B        C      	LD	(0F26BH),A
  C684*   AF             C      	XOR	A
  C685*   32 F46A        C      	LD	(0F46AH),A
  C688*   21 F29A        C      	LD	HL,0F29AH
  C68B*   11 0004        C      	LD	DE,00004H
  C68E*   06 07          C      	LD	B,007H
  C690*   36 7F          C      	LD	(HL),07FH
  C692*   19             C      	ADD	HL,DE
  C693*   10 FB          C      	DJNZ	$-03	;C690
  C695*   CD B524        C      	CALL	0B524H
  C698*   CD BA36        C      	CALL	0BA36H
  C69B*   F3             C      	DI
  C69C*   3A F263        C      	LD	A,(0F263H)
  C69F*   FE 01          C      	CP	001H
  C6A1*   28 06          C      	JR	Z,$+08	;C6A9
  C6A3*   30 08          C      	JR	NC,$+10	;C6AD
  C6A5*   ED 46          C      	IM	0
  C6A7*   18 06          C      	JR	$+08	;C6AF
  C6A9*   ED 56          C      	IM	1
  C6AB*   18 02          C      	JR	$+04	;C6AF
  C6AD*   ED 5E          C      	IM	2
  C6AF*   21 F26C        C      	LD	HL,0F26CH
  C6B2*   11 F489        C      	LD	DE,0F489H
  C6B5*   01 0029        C      	LD	BC,00029H
  C6B8*   ED B0          C      	LDIR
  C6BA*   3A F262        C      	LD	A,(0F262H)
  C6BD*   ED 47          C      	LD	I,A
  C6BF*   3A F264        C      	LD	A,(0F264H)
  C6C2*   FE 45          C      	CP	045H
  C6C4*   3E F3          C      	LD	A,0F3H
  C6C6*   20 02          C      	JR	NZ,$+04	;C6CA
  C6C8*   3E FB          C      	LD	A,0FBH
  C6CA*   32 F222        C      	LD	(0F222H),A
  C6CD*   31 F24A        C      	LD	SP,0F24AH
  C6D0*   F1             C      	POP	AF
  C6D1*   E1             C      	POP	HL
  C6D2*   D1             C      	POP	DE
  C6D3*   C1             C      	POP	BC
  C6D4*   D9             C      	EXX
  C6D5*   08             C      	EX	AF,AF'
  C6D6*   2A F260        C      	LD	HL,(0F260H)
  C6D9*   22 F226        C      	LD	(0F226H),HL
  C6DC*   21 FED3        C      	LD	HL,0FED3H
  C6DF*   22 F223        C      	LD	(0F223H),HL
  C6E2*   3E C3          C      	LD	A,0C3H
  C6E4*   32 F225        C      	LD	(0F225H),A
  C6E7*   3E 01          C      	LD	A,001H
  C6E9*   D3 83          C      	OUT	(083H),A
  C6EB*   F1             C      	POP	AF
  C6EC*   E1             C      	POP	HL
  C6ED*   D1             C      	POP	DE
  C6EE*   C1             C      	POP	BC
  C6EF*   FD E1          C      	POP	IY
  C6F1*   DD E1          C      	POP	IX
  C6F3*   ED 7B F25E     C      	LD	SP,(0F25EH)
  C6F7*   D3 F8          C      	OUT	(0F8H),A
  C6F9*   C3 F222        C      	JP	0F222H
                         C      ;
                         C          PAGE
'SYS3 - MEOS1521 ---> MEOS-System'	MACRO-80 3.44	09-Dec-81	PAGE	1-61


                         C      
  C6FC*                  C      C6FC:
  C6FC*   C5             C      	PUSH	BC		;PN X0
  C6FD*   01 0000        C      	LD	BC,00000H
  C700*   CD C705        C      	CALL	0C705H
  C703*   C1             C      	POP	BC
  C704*   C9             C      	RET
                         C      ;	-----
  C705*   3E 0D          C      	LD	A,00DH
  C707*   D5             C      	PUSH	DE
  C708*   11 0444        C      	LD	DE,00444H
  C70B*   CD CA6E        C      	CALL	0CA6EH
  C70E*   D1             C      	POP	DE
  C70F*   C9             C      	RET
  C710*   3E 0B          C      	LD	A,00BH
  C712*   18 F3          C      	JR	$-11	;C707
  C714*   3E 0A          C      	LD	A,00AH
  C716*   18 EF          C      	JR	$-15	;C707
  C718*   41             C      	LD	B,C
  C719*   00             C      	NOP
  C71A*   3E 03          C      	LD	A,003H
  C71C*   21 C718        C      	LD	HL,0C718H
  C71F*   18 E6          C      	JR	$-24	;C707
                         C      ;
                         C          PAGE
'SYS3 - MEOS1521 ---> MEOS-System'	MACRO-80 3.44	09-Dec-81	PAGE	1-62


                         C      
                         C      ;	-----
  C721*                  C      C721:
  C721*   C5             C      	PUSH	BC		;X0.EIN   Eingabeprogr. (Tast./Bildsch.)
  C722*   D5             C      	PUSH	DE
  C723*   E5             C      	PUSH	HL
  C724*   FD 5E 00       C      	LD	E,(IY+00)
  C727*   FD 56 01       C      	LD	D,(IY+01)
  C72A*   FD 4E 02       C      	LD	C,(IY+02)
  C72D*   FD 46 03       C      	LD	B,(IY+03)
  C730*   03             C      	INC	BC
  C731*   6B             C      	LD	L,E
  C732*   62             C      	LD	H,D
  C733*   3C             C      	INC	A
  C734*   28 0F          C      	JR	Z,$+17	;C745
  C736*   69             C      	LD	L,C
  C737*   60             C      	LD	H,B
  C738*   36 20          C      	LD	(HL),020H
  C73A*   B7             C      	OR	A
  C73B*   ED 52          C      	SBC	HL,DE
  C73D*   28 04          C      	JR	Z,$+06	;C743
  C73F*   19             C      	ADD	HL,DE
  C740*   2B             C      	DEC	HL
  C741*   18 F5          C      	JR	$-09	;C738
  C743*   3D             C      	DEC	A
  C744*   19             C      	ADD	HL,DE
  C745*   B7             C      	OR	A
  C746*   28 02          C      	JR	Z,$+04	;C74A
  C748*   77             C      	LD	(HL),A
  C749*   23             C      	INC	HL
  C74A*   CB FE          C      	SET	7,(HL)
  C74C*   CD C7D2        C      	CALL	0C7D2H
  C74F*   CB BE          C      	RES	7,(HL)
  C751*   CD C81B        C      	CALL	0C81BH
  C754*   C5             C      	PUSH	BC
  C755*   D5             C      	PUSH	DE
  C756*   E5             C      	PUSH	HL
  C757*   FE 20          C      	CP	020H
  C759*   30 41          C      	JR	NC,$+67	;C79C
  C75B*   FE 08          C      	CP	008H
  C75D*   20 08          C      	JR	NZ,$+10	;C767
  C75F*   ED 52          C      	SBC	HL,DE
  C761*   28 23          C      	JR	Z,$+37	;C786
  C763*   E1             C      	POP	HL
  C764*   2B             C      	DEC	HL
  C765*   18 20          C      	JR	$+34	;C787
  C767*   FE 18          C      	CP	018H
  C769*   20 08          C      	JR	NZ,$+10	;C773
  C76B*   ED 42          C      	SBC	HL,BC
  C76D*   28 17          C      	JR	Z,$+25	;C786
  C76F*   E1             C      	POP	HL
  C770*   23             C      	INC	HL
  C771*   18 14          C      	JR	$+22	;C787
  C773*   FE 1D          C      	CP	01DH
  C775*   20 0F          C      	JR	NZ,$+17	;C786
  C777*   59             C      	LD	E,C
  C778*   50             C      	LD	D,B
  C779*   EB             C      	EX	DE,HL
  C77A*   ED 52          C      	SBC	HL,DE
  C77C*   28 08          C      	JR	Z,$+10	;C786
  C77E*   4D             C      	LD	C,L
  C77F*   44             C      	LD	B,H
  C780*   EB             C      	EX	DE,HL
  C781*   54             C      	LD	D,H
  C782*   5D             C      	LD	E,L
  C783*   23             C      	INC	HL
  C784*   ED B0          C      	LDIR
  C786*   E1             C      	POP	HL
  C787*   D1             C      	POP	DE
  C788*   C1             C      	POP	BC
  C789*   FE 1E          C      	CP	01EH
  C78B*   28 08          C      	JR	Z,$+10	;C795
  C78D*   FE 1F          C      	CP	01FH
  C78F*   28 04          C      	JR	Z,$+06	;C795
  C791*   FE 1A          C      	CP	01AH
  C793*   20 B5          C      	JR	NZ,$-73	;C74A
  C795*   CD C7D2        C      	CALL	0C7D2H
  C798*   E1             C      	POP	HL
  C799*   D1             C      	POP	DE
  C79A*   C1             C      	POP	BC
  C79B*   C9             C      	RET
  C79C*   FE 80          C      	CP	080H
'SYS3 - MEOS1521 ---> MEOS-System'	MACRO-80 3.44	09-Dec-81	PAGE	1-63


  C79E*   30 B1          C      	JR	NC,$-77	;C751
  C7A0*   77             C      	LD	(HL),A
  C7A1*   B7             C      	OR	A
  C7A2*   ED 42          C      	SBC	HL,BC
  C7A4*   20 C9          C      	JR	NZ,$-53	;C76F
  C7A6*   CD C7D2        C      	CALL	0C7D2H
  C7A9*   3E 05          C      	LD	A,005H
  C7AB*   CD C8A7        C      	CALL	0C8A7H
  C7AE*   E1             C      	POP	HL
  C7AF*   36 20          C      	LD	(HL),020H
  C7B1*   18 D4          C      	JR	$-42	;C787
                         C      ;	-----
  C7B3*   AF             C      	XOR	A
  C7B4*   CD C721        C      	CALL	0C721H
  C7B7*   FE 1E          C      	CP	01EH
  C7B9*   28 F8          C      	JR	Z,$-06	;C7B3
  C7BB*   FE 1F          C      	CP	01FH
  C7BD*   C9             C      	RET
  C7BE*   3E FF          C      	LD	A,0FFH
  C7C0*   18 F2          C      	JR	$-12	;C7B4
                         C      ;	-----
  C7C2*   CD C7B3        C      	CALL	0C7B3H
  C7C5*   CA C267        C      	JP	Z,0C267H
  C7C8*   C9             C      	RET
  C7C9*   FD 21 F1EA     C      	LD	IY,0F1EAH
  C7CD*   CD C875        C      	CALL	0C875H
  C7D0*   18 F3          C      	JR	$-11	;C7C5
                         C      ;	-----
  C7D2*   F5             C      	PUSH	AF
  C7D3*   E5             C      	PUSH	HL
  C7D4*   D5             C      	PUSH	DE
  C7D5*   C5             C      	PUSH	BC
  C7D6*   CD C710        C      	CALL	0C710H
  C7D9*   C5             C      	PUSH	BC
  C7DA*   CD C710        C      	CALL	0C710H
  C7DD*   3E 13          C      	LD	A,013H
  C7DF*   CD C82E        C      	CALL	0C82EH
  C7E2*   C1             C      	POP	BC
  C7E3*   E1             C      	POP	HL
  C7E4*   E5             C      	PUSH	HL
  C7E5*   C5             C      	PUSH	BC
  C7E6*   B7             C      	OR	A
  C7E7*   ED 52          C      	SBC	HL,DE
  C7E9*   23             C      	INC	HL
  C7EA*   4D             C      	LD	C,L
  C7EB*   44             C      	LD	B,H
  C7EC*   EB             C      	EX	DE,HL
  C7ED*   CD C822        C      	CALL	0C822H
  C7F0*   C1             C      	POP	BC
  C7F1*   CD C710        C      	CALL	0C710H
  C7F4*   C1             C      	POP	BC
  C7F5*   D1             C      	POP	DE
  C7F6*   E1             C      	POP	HL
  C7F7*   F1             C      	POP	AF
  C7F8*   C9             C      	RET
                         C      ;	-----
  C7F9*   D5             C      	PUSH	DE
  C7FA*   E5             C      	PUSH	HL
  C7FB*   3E 02          C      	LD	A,002H
  C7FD*   1E 4B          C      	LD	E,04BH
  C7FF*   21 C820        C      	LD	HL,0C820H
  C802*   CD CA6E        C      	CALL	0CA6EH
  C805*   E1             C      	POP	HL
  C806*   D1             C      	POP	DE
  C807*   C9             C      	RET
                         C      ;	-----
  C808*   FB             C      	EI		;X0.TSCL	Zeichen von Tast. in den Puffer
  C809*   3E 00          C      	LD	A,000H
  C80B*   D5             C      	PUSH	DE
  C80C*   1E 4B          C      	LD	E,04BH
  C80E*   CD CA6E        C      	CALL	0CA6EH
  C811*   3A F818        C      	LD	A,(0F818H)
  C814*   B7             C      	OR	A
  C815*   7A             C      	LD	A,D
  C816*   CC F819        C      	CALL	Z,0F819H
  C819*   D1             C      	POP	DE
  C81A*   C9             C      	RET
  C81B*   CD C7F9        C      	CALL	0C7F9H		;X0.TSCL0	mit Loeschen Puffer
  C81E*   18 E8          C      	JR	$-22	;8808
                         C      ;	-----
  C820*   41             C      	LD	B,C
  C821*   00             C      	NOP
                         C      ;	-----
'SYS3 - MEOS1521 ---> MEOS-System'	MACRO-80 3.44	09-Dec-81	PAGE	1-64


  C822*   D5             C      	PUSH	DE		;X0.ANZG	Speicherinhalt anzeigen
  C823*   11 0044        C      	LD	DE,00044H
  C826*   3E 0D          C      	LD	A,00DH
  C828*   CD CA6E        C      	CALL	0CA6EH
  C82B*   D1             C      	POP	DE
  C82C*   09             C      	ADD	HL,BC
  C82D*   C9             C      	RET
                         C      ;	-----
  C82E*   F5             C      	PUSH	AF		;X0.AN1	Zeichen auf akt. Pos. auf BS; Pos.+1
  C82F*   D5             C      	PUSH	DE
  C830*   57             C      	LD	D,A
  C831*   1E 44          C      	LD	E,044H
  C833*   3E 01          C      	LD	A,001H
  C835*   CD CA6E        C      	CALL	0CA6EH
  C838*   D1             C      	POP	DE
  C839*   F1             C      	POP	AF
  C83A*   C9             C      	RET
                         C      ;	-----
  C83B*   E5             C      	PUSH	HL		;X0.J	Anzeige / Abfrage Y/N mit Cursor
  C83C*   C5             C      	PUSH	BC
  C83D*   CD C710        C      	CALL	0C710H
  C840*   26 D9          C      	LD	H,0D9H
  C842*   C5             C      	PUSH	BC
  C843*   CD C710        C      	CALL	0C710H
  C846*   C1             C      	POP	BC
  C847*   7C             C      	LD	A,H
  C848*   CD C82E        C      	CALL	0C82EH
  C84B*   CD C81B        C      	CALL	0C81BH
  C84E*   FE 59          C      	CP	059H
  C850*   28 EE          C      	JR	Z,$-16	;8840
  C852*   FE 4E          C      	CP	04EH
  C854*   28 17          C      	JR	Z,$+25	;886D
  C856*   FE 1A          C      	CP	01AH
  C858*   20 F1          C      	JR	NZ,$-13	;884B
  C85A*   CD C710        C      	CALL	0C710H
  C85D*   3E 11          C      	LD	A,011H
  C85F*   CD C82E        C      	CALL	0C82EH
  C862*   7C             C      	LD	A,H
  C863*   C1             C      	POP	BC
  C864*   E1             C      	POP	HL
  C865*   FE D9          C      	CP	0D9H
  C867*   C9             C      	RET
                         C      ;	-----
  C868*   E5             C      	PUSH	HL		;X0.N
  C869*   C5             C      	PUSH	BC
  C86A*   CD C710        C      	CALL	0C710H
  C86D*   26 CE          C      	LD	H,0CEH
  C86F*   18 D1          C      	JR	$-45	;8842
                         C      ;	-----
  C871*   FD 21 F1EA     C      	LD	IY,0F1EAH		;X0.ADR	Adresseingabe
  C875*   E5             C      	PUSH	HL
  C876*   C5             C      	PUSH	BC
  C877*   21 F222        C      	LD	HL,0F222H
  C87A*   06 12          C      	LD	B,012H
  C87C*   36 20          C      	LD	(HL),020H
  C87E*   23             C      	INC	HL
  C87F*   10 FB          C      	DJNZ	$-03	;887C
  C881*   C1             C      	POP	BC
  C882*   E1             C      	POP	HL
  C883*   CD C7B3        C      	CALL	0C7B3H
  C886*   C8             C      	RET	Z
  C887*   CD C91C        C      	CALL	0C91CH
  C88A*   3E 1A          C      	LD	A,01AH
  C88C*   CA C7BB        C      	JP	Z,0C7BBH
  C88F*   3E 02          C      	LD	A,002H
  C891*   CD C8A7        C      	CALL	0C8A7H
  C894*   18 DF          C      	JR	$-31	;8875
                         C      ;	-----
  C896*   D5             C      	PUSH	DE		;X0.FEEXT	Fehleranzeige auf Bildschirm	
  C897*   1E 2B          C      	LD	E,02BH		;	+++ ERROR xx
  C899*   57             C      	LD	D,A		;	+xxxxxxxxxxx
  C89A*   3E 0F          C      	LD	A,00FH
  C89C*   CD CA6E        C      	CALL	0CA6EH
  C89F*   D1             C      	POP	DE
  C8A0*   B7             C      	OR	A
  C8A1*   3E 1F          C      	LD	A,01FH
  C8A3*   C0             C      	RET	NZ
  C8A4*   3E 1D          C      	LD	A,01DH
  C8A6*   C9             C      	RET
                         C      ;	-----
  C8A7*   D5             C      	PUSH	DE		;X0.FEEIN
  C8A8*   1E 2A          C      	LD	E,02AH		;	+++ ERROR xx
  C8AA*   18 ED          C      	JR	$-17		;	+xxxxxxxxxxx	;8899
'SYS3 - MEOS1521 ---> MEOS-System'	MACRO-80 3.44	09-Dec-81	PAGE	1-65


                         C      ;	EJEC
                         C      ;	-----
  C8AC*   E5             C      	PUSH	HL		;VU.DUADE	PN VU	dual => dezimal
  C8AD*   D5             C      	PUSH	DE
  C8AE*   C5             C      	PUSH	BC
  C8AF*   F5             C      	PUSH	AF
  C8B0*   01 F222        C      	LD	BC,0F222H
  C8B3*   11 2710        C      	LD	DE,02710H
  C8B6*   CD C8D7        C      	CALL	0C8D7H
  C8B9*   11 03E8        C      	LD	DE,003E8H
  C8BC*   CD C8D7        C      	CALL	0C8D7H
  C8BF*   11 0064        C      	LD	DE,00064H
  C8C2*   CD C8D7        C      	CALL	0C8D7H
  C8C5*   11 000A        C      	LD	DE,0000AH
  C8C8*   CD C8D7        C      	CALL	0C8D7H
  C8CB*   7D             C      	LD	A,L
  C8CC*   CD C8DF        C      	CALL	0C8DFH
  C8CF*   3E 44          C      	LD	A,044H
  C8D1*   02             C      	LD	(BC),A
  C8D2*   F1             C      	POP	AF
  C8D3*   C1             C      	POP	BC
  C8D4*   D1             C      	POP	DE
  C8D5*   E1             C      	POP	HL
  C8D6*   C9             C      	RET
  C8D7*   AF             C      	XOR	A
  C8D8*   3C             C      	INC	A
  C8D9*   ED 52          C      	SBC	HL,DE
  C8DB*   30 FB          C      	JR	NC,$-03	;88D8
  C8DD*   3D             C      	DEC	A
  C8DE*   19             C      	ADD	HL,DE
  C8DF*   F6 30          C      	OR	030H
  C8E1*   02             C      	LD	(BC),A
  C8E2*   03             C      	INC	BC
  C8E3*   C9             C      	RET
                         C      ;	-----
  C8E4*   E5             C      	PUSH	HL		;VU.DLHEX	dual => hex
  C8E5*   C5             C      	PUSH	BC
  C8E6*   F5             C      	PUSH	AF
  C8E7*   01 F222        C      	LD	BC,0F222H
  C8EA*   7C             C      	LD	A,H
  C8EB*   CD C8F9        C      	CALL	0C8F9H
  C8EE*   7D             C      	LD	A,L
  C8EF*   CD C8F9        C      	CALL	0C8F9H
  C8F2*   3E 48          C      	LD	A,048H
  C8F4*   02             C      	LD	(BC),A
  C8F5*   F1             C      	POP	AF
  C8F6*   C1             C      	POP	BC
  C8F7*   E1             C      	POP	HL
  C8F8*   C9             C      	RET
  C8F9*   F5             C      	PUSH	AF
  C8FA*   CD C909        C      	CALL	0C909H
  C8FD*   C3 ED5C        C      	JP	0ED5CH
  C900*   C3 EFED        C      	JP	0EFEDH
  C903*   C3 EFF3        C      	JP	0EFF3H
  C906*   18 F8          C      	JR	$-06	;8900
  C908*   7E             C      	LD	A,(HL)
  C909*   0F             C      	RRCA
  C90A*   0F             C      	RRCA
  C90B*   0F             C      	RRCA
  C90C*   0F             C      	RRCA
  C90D*   E6 0F          C      	AND	00FH
  C90F*   C6 30          C      	ADD	A,030H
  C911*   FE 3A          C      	CP	03AH
  C913*   D8             C      	RET	C
  C914*   C6 07          C      	ADD	A,007H
  C916*   C9             C      	RET
  C917*   18 EA          C      	JR	$-20	;8903
  C919*   7E             C      	LD	A,(HL)
  C91A*   18 F1          C      	JR	$-13	;890D
                         C      ;	-----
  C91C*   E5             C      	PUSH	HL		;VU.UMWDL	dual,oktal,dezimal,hex => dual
  C91D*   C5             C      	PUSH	BC
  C91E*   F5             C      	PUSH	AF
  C91F*   CD C927        C      	CALL	0C927H
  C922*   C1             C      	POP	BC
  C923*   78             C      	LD	A,B
  C924*   C1             C      	POP	BC
  C925*   E1             C      	POP	HL
  C926*   C9             C      	RET
  C927*   3E 20          C      	LD	A,020H
  C929*   21 F233        C      	LD	HL,0F233H
  C92C*   01 0013        C      	LD	BC,00013H
  C92F*   ED A9          C      	CPD
'SYS3 - MEOS1521 ---> MEOS-System'	MACRO-80 3.44	09-Dec-81	PAGE	1-66


  C931*   E2 C936        C      	JP	PO,0C936H
  C934*   28 F9          C      	JR	Z,$-05	;892F
  C936*   23             C      	INC	HL
  C937*   7E             C      	LD	A,(HL)
  C938*   FE 42          C      	CP	042H
  C93A*   2B             C      	DEC	HL
  C93B*   28 49          C      	JR	Z,$+75	;8986
  C93D*   FE 4F          C      	CP	04FH
  C93F*   28 21          C      	JR	Z,$+35	;8962
  C941*   FE 51          C      	CP	051H
  C943*   28 1D          C      	JR	Z,$+31	;8962
  C945*   FE 48          C      	CP	048H
  C947*   28 0F          C      	JR	Z,$+17	;8958
  C949*   FE 44          C      	CP	044H
  C94B*   28 01          C      	JR	Z,$+03	;894E
  C94D*   23             C      	INC	HL
  C94E*   11 0005        C      	LD	DE,00005H
  C951*   CD C96B        C      	CALL	0C96BH
  C954*   CA C9DD        C      	JP	Z,0C9DDH
  C957*   C9             C      	RET
  C958*   11 0004        C      	LD	DE,00004H
  C95B*   CD C96B        C      	CALL	0C96BH
  C95E*   CA CA1B        C      	JP	Z,0CA1BH
  C961*   C9             C      	RET
  C962*   11 0006        C      	LD	DE,00006H
  C965*   CD C96B        C      	CALL	0C96BH
  C968*   28 34          C      	JR	Z,$+54	;899E
  C96A*   C9             C      	RET
  C96B*   E5             C      	PUSH	HL
  C96C*   B7             C      	OR	A
  C96D*   ED 52          C      	SBC	HL,DE
  C96F*   E5             C      	PUSH	HL
  C970*   11 F211        C      	LD	DE,0F211H
  C973*   ED 52          C      	SBC	HL,DE
  C975*   44             C      	LD	B,H
  C976*   4D             C      	LD	C,L
  C977*   E1             C      	POP	HL
  C978*   3E 30          C      	LD	A,030H
  C97A*   ED A9          C      	CPD
  C97C*   E2 C983        C      	JP	PO,0C983H
  C97F*   28 F9          C      	JR	Z,$-05	;897A
  C981*   E1             C      	POP	HL
  C982*   C9             C      	RET
  C983*   AF             C      	XOR	A
  C984*   E1             C      	POP	HL
  C985*   C9             C      	RET
  C986*   CD C98B        C      	CALL	0C98BH
  C989*   C0             C      	RET	NZ
  C98A*   5A             C      	LD	E,D
  C98B*   16 00          C      	LD	D,000H
  C98D*   06 08          C      	LD	B,008H
  C98F*   7E             C      	LD	A,(HL)
  C990*   2B             C      	DEC	HL
  C991*   D6 30          C      	SUB	030H
  C993*   28 03          C      	JR	Z,$+05	;8998
  C995*   3D             C      	DEC	A
  C996*   C0             C      	RET	NZ
  C997*   14             C      	INC	D
  C998*   CB 0A          C      	RRC	D
  C99A*   05             C      	DEC	B
  C99B*   20 F2          C      	JR	NZ,$-12	;898F
  C99D*   C9             C      	RET
                         C      ;
  C99E*   11 0000        C      	LD	DE,00000H
  C9A1*   CD C9D3        C      	CALL	0C9D3H
  C9A4*   CD C9D0        C      	CALL	0C9D0H
  C9A7*   07             C      	RLCA
  C9A8*   07             C      	RLCA
  C9A9*   07             C      	RLCA
  C9AA*   CD C9D0        C      	CALL	0C9D0H
  C9AD*   0F             C      	RRCA
  C9AE*   0F             C      	RRCA
  C9AF*   CB 47          C      	BIT	0,A
  C9B1*   28 02          C      	JR	Z,$+04	;89B5
  C9B3*   14             C      	INC	D
  C9B4*   3D             C      	DEC	A
  C9B5*   CD C9D0        C      	CALL	0C9D0H
  C9B8*   07             C      	RLCA
  C9B9*   B2             C      	OR	D
  C9BA*   57             C      	LD	D,A
  C9BB*   CD C9D2        C      	CALL	0C9D2H
  C9BE*   07             C      	RLCA
  C9BF*   07             C      	RLCA
'SYS3 - MEOS1521 ---> MEOS-System'	MACRO-80 3.44	09-Dec-81	PAGE	1-67


  C9C0*   07             C      	RLCA
  C9C1*   07             C      	RLCA
  C9C2*   B2             C      	OR	D
  C9C3*   57             C      	LD	D,A
  C9C4*   CD C9D2        C      	CALL	0C9D2H
  C9C7*   FE 02          C      	CP	002H
  C9C9*   30 4D          C      	JR	NC,$+79	;8A18
  C9CB*   0F             C      	RRCA
  C9CC*   B2             C      	OR	D
  C9CD*   57             C      	LD	D,A
  C9CE*   AF             C      	XOR	A
  C9CF*   C9             C      	RET
  C9D0*   B3             C      	OR	E
  C9D1*   5F             C      	LD	E,A
  C9D2*   2B             C      	DEC	HL
  C9D3*   7E             C      	LD	A,(HL)
  C9D4*   D6 30          C      	SUB	030H
  C9D6*   38 3F          C      	JR	C,$+65	;8A17
  C9D8*   FE 08          C      	CP	008H
  C9DA*   30 3B          C      	JR	NC,$+61	;8A17
  C9DC*   C9             C      	RET
  C9DD*   EB             C      	EX	DE,HL
  C9DE*   21 0000        C      	LD	HL,00000H
  C9E1*   44             C      	LD	B,H
  C9E2*   0E 01          C      	LD	C,001H
  C9E4*   CD CA05        C      	CALL	0CA05H
  C9E7*   01 000A        C      	LD	BC,0000AH
  C9EA*   1B             C      	DEC	DE
  C9EB*   CD CA05        C      	CALL	0CA05H
  C9EE*   01 0064        C      	LD	BC,00064H
  C9F1*   1B             C      	DEC	DE
  C9F2*   CD CA05        C      	CALL	0CA05H
  C9F5*   01 03E8        C      	LD	BC,003E8H
  C9F8*   1B             C      	DEC	DE
  C9F9*   CD CA05        C      	CALL	0CA05H
  C9FC*   01 2710        C      	LD	BC,02710H
  C9FF*   1B             C      	DEC	DE
  CA00*   CD CA05        C      	CALL	0CA05H
  CA03*   EB             C      	EX	DE,HL
  CA04*   C9             C      	RET
  CA05*   1A             C      	LD	A,(DE)
  CA06*   D6 30          C      	SUB	030H
  CA08*   38 0D          C      	JR	C,$+15	;8A17
  CA0A*   FE 0A          C      	CP	00AH
  CA0C*   30 09          C      	JR	NC,$+11	;8A17
  CA0E*   B7             C      	OR	A
  CA0F*   C8             C      	RET	Z
  CA10*   09             C      	ADD	HL,BC
  CA11*   38 04          C      	JR	C,$+06	;8A17
  CA13*   3D             C      	DEC	A
  CA14*   20 FA          C      	JR	NZ,$-04	;8A10
  CA16*   C9             C      	RET
  CA17*   E1             C      	POP	HL
  CA18*   AF             C      	XOR	A
  CA19*   3C             C      	INC	A
  CA1A*   C9             C      	RET
  CA1B*   CD CA21        C      	CALL	0CA21H
  CA1E*   C0             C      	RET	NZ
  CA1F*   5A             C      	LD	E,D
  CA20*   2B             C      	DEC	HL
  CA21*   CD CA31        C      	CALL	0CA31H
  CA24*   57             C      	LD	D,A
  CA25*   2B             C      	DEC	HL
  CA26*   CD CA31        C      	CALL	0CA31H
  CA29*   07             C      	RLCA
  CA2A*   07             C      	RLCA
  CA2B*   07             C      	RLCA
  CA2C*   07             C      	RLCA
  CA2D*   B2             C      	OR	D
  CA2E*   57             C      	LD	D,A
  CA2F*   AF             C      	XOR	A
  CA30*   C9             C      	RET
  CA31*   7E             C      	LD	A,(HL)
  CA32*   E6 3F          C      	AND	03FH
  CA34*   3D             C      	DEC	A
  CA35*   FE 06          C      	CP	006H
  CA37*   38 08          C      	JR	C,$+10	;8A41
  CA39*   D6 2F          C      	SUB	02FH
  CA3B*   38 DA          C      	JR	C,$-36	;8A17
  CA3D*   D6 0A          C      	SUB	00AH
  CA3F*   30 D6          C      	JR	NC,$-40	;8A17
  CA41*   C6 0A          C      	ADD	A,00AH
  CA43*   C9             C      	RET
'SYS3 - MEOS1521 ---> MEOS-System'	MACRO-80 3.44	09-Dec-81	PAGE	1-68


                         C      ;
                         C          PAGE
'SYS3 - MEOS1521 ---> MEOS-System'	MACRO-80 3.44	09-Dec-81	PAGE	1-69


                         C      
                         C      ;	-----
  CA44*                  C      CA44:
  CA44*   16 FF          C      	LD	D,0FFH		;VP.EDC	Pruefziffernberechnung CRC	PN VP
  CA46*   5A             C      	LD	E,D
  CA47*   7E             C      	LD	A,(HL)
  CA48*   AA             C      	XOR	D
  CA49*   57             C      	LD	D,A
  CA4A*   0F             C      	RRCA
  CA4B*   0F             C      	RRCA
  CA4C*   0F             C      	RRCA
  CA4D*   0F             C      	RRCA
  CA4E*   E6 0F          C      	AND	00FH
  CA50*   AA             C      	XOR	D
  CA51*   57             C      	LD	D,A
  CA52*   0F             C      	RRCA
  CA53*   0F             C      	RRCA
  CA54*   0F             C      	RRCA
  CA55*   F5             C      	PUSH	AF
  CA56*   E6 1F          C      	AND	01FH
  CA58*   AB             C      	XOR	E
  CA59*   5F             C      	LD	E,A
  CA5A*   F1             C      	POP	AF
  CA5B*   F5             C      	PUSH	AF
  CA5C*   0F             C      	RRCA
  CA5D*   E6 F0          C      	AND	0F0H
  CA5F*   AB             C      	XOR	E
  CA60*   5F             C      	LD	E,A
  CA61*   F1             C      	POP	AF
  CA62*   E6 E0          C      	AND	0E0H
  CA64*   AA             C      	XOR	D
  CA65*   53             C      	LD	D,E
  CA66*   5F             C      	LD	E,A
  CA67*   23             C      	INC	HL
  CA68*   0B             C      	DEC	BC
  CA69*   78             C      	LD	A,B
  CA6A*   B1             C      	OR	C
  CA6B*   20 DA          C      	JR	NZ,$-36	;8A47
  CA6D*   C9             C      	RET
                         C      ;
                         C          PAGE
'SYS3 - MEOS1521 ---> MEOS-System'	MACRO-80 3.44	09-Dec-81	PAGE	1-70


                         C      
                         C      ;***************************************************************
                         C      ;*     CX.HAND     GRUNDHANDLER          0CA6EH                *
                         C      ;***************************************************************
  CA6E*                  C      CA6E:
  CA6E*   E5             C      	PUSH	HL		;PN CX
  CA6F*   C5             C      	PUSH	BC
  CA70*   F5             C      	PUSH	AF
  CA71*   32 F529        C      	LD	(0F529H),A
  CA74*   FE 0F          C      	CP	00FH
  CA76*   28 57          C      	JR	Z,$+89	;8ACF
  CA78*   FE 02          C      	CP	002H
  CA7A*   CA CB26        C      	JP	Z,0CB26H
  CA7D*   FE 03          C      	CP	003H
  CA7F*   28 58          C      	JR	Z,$+90	;8AD9
  CA81*   FE 04          C      	CP	004H
  CA83*   28 40          C      	JR	Z,$+66	;8AC5
  CA85*   FE 05          C      	CP	005H
  CA87*   28 31          C      	JR	Z,$+51	;8ABA
  CA89*   7B             C      	LD	A,E
  CA8A*   FE 46          C      	CP	046H
  CA8C*   20 03          C      	JR	NZ,$+05	;8A91
  CA8E*   3A F527        C      	LD	A,(0F527H)
  CA91*   CD CC4C        C      	CALL	0CC4CH
  CA94*   20 06          C      	JR	NZ,$+08	;8A9C
  CA96*   60             C      	LD	H,B
  CA97*   69             C      	LD	L,C
  CA98*   F1             C      	POP	AF
  CA99*   C1             C      	POP	BC
  CA9A*   E3             C      	EX	(SP),HL
  CA9B*   C9             C      	RET
  CA9C*   F1             C      	POP	AF
  CA9D*   C1             C      	POP	BC
  CA9E*   E1             C      	POP	HL
  CA9F*   3E 00          C      	LD	A,000H
  CAA1*   C9             C      	RET
                         C      ;
  CAA2*   E5             C      	PUSH	HL
  CAA3*   C5             C      	PUSH	BC
  CAA4*   21 F51A        C      	LD	HL,0F51AH
  CAA7*   3A F52A        C      	LD	A,(0F52AH)
  CAAA*   06 00          C      	LD	B,000H
  CAAC*   4F             C      	LD	C,A
  CAAD*   09             C      	ADD	HL,BC
  CAAE*   22 F537        C      	LD	(0F537H),HL
  CAB1*   7E             C      	LD	A,(HL)
  CAB2*   E6 03          C      	AND	003H
  CAB4*   FE 03          C      	CP	003H
  CAB6*   7E             C      	LD	A,(HL)
  CAB7*   C1             C      	POP	BC
  CAB8*   E1             C      	POP	HL
  CAB9*   C9             C      	RET
                         C      ;
  CABA*   7B             C      	LD	A,E
  CABB*   CD CC4C        C      	CALL	0CC4CH
  CABE*   20 DC          C      	JR	NZ,$-34	;8A9C
  CAC0*   CD CAA2        C      	CALL	0CAA2H
  CAC3*   18 D1          C      	JR	$-45	;8A96
  CAC5*   7B             C      	LD	A,E
  CAC6*   FE 46          C      	CP	046H
  CAC8*   20 F1          C      	JR	NZ,$-13	;8ABB
  CACA*   3A F527        C      	LD	A,(0F527H)
  CACD*   18 EC          C      	JR	$-18	;8ABB
  CACF*   F1             C      	POP	AF
  CAD0*   AF             C      	XOR	A
  CAD1*   F5             C      	PUSH	AF
  CAD2*   D5             C      	PUSH	DE
  CAD3*   CD CC8B        C      	CALL	0CC8BH
  CAD6*   D1             C      	POP	DE
  CAD7*   18 38          C      	JR	$+58	;8B11
  CAD9*   CD CCFF        C      	CALL	0CCFFH
  CADC*   7B             C      	LD	A,E
  CADD*   CD CC4C        C      	CALL	0CC4CH
  CAE0*   20 26          C      	JR	NZ,$+40	;8B08
  CAE2*   CD CAA2        C      	CALL	0CAA2H
  CAE5*   20 10          C      	JR	NZ,$+18	;8AF7
  CAE7*   CB 57          C      	BIT	2,A
  CAE9*   28 0C          C      	JR	Z,$+14	;8AF7
  CAEB*   3E 16          C      	LD	A,016H
  CAED*   CD CC7E        C      	CALL	0CC7EH
  CAF0*   F1             C      	POP	AF
  CAF1*   C1             C      	POP	BC
'SYS3 - MEOS1521 ---> MEOS-System'	MACRO-80 3.44	09-Dec-81	PAGE	1-71


  CAF2*   E1             C      	POP	HL
  CAF3*   3E 01          C      	LD	A,001H
  CAF5*   BF             C      	CP	A
  CAF6*   C9             C      	RET
                         C      ;
  CAF7*   23             C      	INC	HL
  CAF8*   23             C      	INC	HL
  CAF9*   23             C      	INC	HL
  CAFA*   23             C      	INC	HL
  CAFB*   5E             C      	LD	E,(HL)
  CAFC*   7B             C      	LD	A,E
  CAFD*   B7             C      	OR	A
  CAFE*   28 1B          C      	JR	Z,$+29	;8B1B
  CB00*   CD D94D        C      	CALL	0D94DH
  CB03*   30 16          C      	JR	NC,$+24	;8B1B
  CB05*   C3 CA96        C      	JP	0CA96H
  CB08*   F1             C      	POP	AF
  CB09*   3E 00          C      	LD	A,000H
  CB0B*   F5             C      	PUSH	AF
  CB0C*   3E 10          C      	LD	A,010H
  CB0E*   CD CC7E        C      	CALL	0CC7EH
  CB11*   E3             C      	EX	(SP),HL
  CB12*   20 02          C      	JR	NZ,$+04	;8B16
  CB14*   26 01          C      	LD	H,001H
  CB16*   E3             C      	EX	(SP),HL
  CB17*   F1             C      	POP	AF
  CB18*   C1             C      	POP	BC
  CB19*   E1             C      	POP	HL
  CB1A*   C9             C      	RET
                         C      ;
  CB1B*   F1             C      	POP	AF
  CB1C*   3E 01          C      	LD	A,001H
  CB1E*   F5             C      	PUSH	AF
  CB1F*   3E 50          C      	LD	A,050H
  CB21*   CD CC6D        C      	CALL	0CC6DH
  CB24*   18 EB          C      	JR	$-19	;8B11
  CB26*   CD CCFF        C      	CALL	0CCFFH
  CB29*   E5             C      	PUSH	HL
  CB2A*   21 F265        C      	LD	HL,0F265H
  CB2D*   CB 9E          C      	RES	3,(HL)
  CB2F*   E1             C      	POP	HL
  CB30*   7B             C      	LD	A,E
  CB31*   FE 46          C      	CP	046H
  CB33*   32 F528        C      	LD	(0F528H),A
  CB36*   20 0C          C      	JR	NZ,$+14	;8B44
  CB38*   E5             C      	PUSH	HL
  CB39*   21 F265        C      	LD	HL,0F265H
  CB3C*   CB DE          C      	SET	3,(HL)
  CB3E*   E1             C      	POP	HL
  CB3F*   3E FF          C      	LD	A,0FFH
  CB41*   32 F527        C      	LD	(0F527H),A
  CB44*   23             C      	INC	HL
  CB45*   CB 46          C      	BIT	0,(HL)
  CB47*   28 1E          C      	JR	Z,$+32	;8B67
  CB49*   23             C      	INC	HL
  CB4A*   7E             C      	LD	A,(HL)
  CB4B*   FE 20          C      	CP	020H
  CB4D*   20 18          C      	JR	NZ,$+26	;8B67
  CB4F*   01 0004        C      	LD	BC,00004H
  CB52*   09             C      	ADD	HL,BC
  CB53*   7E             C      	LD	A,(HL)
  CB54*   FE 20          C      	CP	020H
  CB56*   20 0F          C      	JR	NZ,$+17	;8B67
  CB58*   23             C      	INC	HL
  CB59*   7E             C      	LD	A,(HL)
  CB5A*   FE 20          C      	CP	020H
  CB5C*   20 09          C      	JR	NZ,$+11	;8B67
  CB5E*   36 30          C      	LD	(HL),030H
  CB60*   2B             C      	DEC	HL
  CB61*   36 30          C      	LD	(HL),030H
  CB63*   F1             C      	POP	AF
  CB64*   3E FF          C      	LD	A,0FFH
  CB66*   F5             C      	PUSH	AF
  CB67*   21 F265        C      	LD	HL,0F265H
  CB6A*   CB 5E          C      	BIT	3,(HL)
  CB6C*   20 17          C      	JR	NZ,$+25	;8B85
  CB6E*   7B             C      	LD	A,E
  CB6F*   CD CC4C        C      	CALL	0CC4CH
  CB72*   20 94          C      	JR	NZ,$-106	;8B08
  CB74*   CD CAA2        C      	CALL	0CAA2H
  CB77*   20 04          C      	JR	NZ,$+06	;8B7D
  CB79*   CB 5F          C      	BIT	3,A
  CB7B*   20 03          C      	JR	NZ,$+05	;8B80
'SYS3 - MEOS1521 ---> MEOS-System'	MACRO-80 3.44	09-Dec-81	PAGE	1-72


  CB7D*   C3 CAF8        C      	JP	0CAF8H
                         C      ;
  CB80*   3E 15          C      	LD	A,015H
  CB82*   C3 CAED        C      	JP	0CAEDH
                         C      ;
  CB85*   21 F4BF        C      	LD	HL,0F4BFH
  CB88*   01 000D        C      	LD	BC,0000DH
  CB8B*   3E 58          C      	LD	A,058H
  CB8D*   ED B1          C      	CPIR
  CB8F*   20 3C          C      	JR	NZ,$+62	;8BCD
  CB91*   B7             C      	OR	A
  CB92*   01 000E        C      	LD	BC,0000EH
  CB95*   ED 42          C      	SBC	HL,BC
  CB97*   7E             C      	LD	A,(HL)
  CB98*   32 F528        C      	LD	(0F528H),A
  CB9B*   F5             C      	PUSH	AF
  CB9C*   E6 60          C      	AND	060H
  CB9E*   FE 40          C      	CP	040H
  CBA0*   28 13          C      	JR	Z,$+21	;8BB5
  CBA2*   F1             C      	POP	AF
  CBA3*   F1             C      	POP	AF
  CBA4*   C1             C      	POP	BC
  CBA5*   C5             C      	PUSH	BC
  CBA6*   F5             C      	PUSH	AF
  CBA7*   3A F528        C      	LD	A,(0F528H)
  CBAA*   CD CC64        C      	CALL	0CC64H
  CBAD*   C5             C      	PUSH	BC
  CBAE*   01 000D        C      	LD	BC,0000DH
  CBB1*   09             C      	ADD	HL,BC
  CBB2*   C1             C      	POP	BC
  CBB3*   18 D6          C      	JR	$-40	;8B8B
  CBB5*   F1             C      	POP	AF
  CBB6*   5F             C      	LD	E,A
  CBB7*   CD CC4C        C      	CALL	0CC4CH
  CBBA*   C2 CB08        C      	JP	NZ,0CB08H
  CBBD*   CD CAA2        C      	CALL	0CAA2H
  CBC0*   20 BB          C      	JR	NZ,$-67	;8B7D
  CBC2*   CB 5F          C      	BIT	3,A
  CBC4*   00             C      	NOP
  CBC5*   00             C      	NOP
  CBC6*   28 B5          C      	JR	Z,$-73	;8B7D
  CBC8*   01 CBE7        C      	LD	BC,0CBE7H
  CBCB*   18 B0          C      	JR	$-78	;8B7D
                         C      ;
  CBCD*   3A F527        C      	LD	A,(0F527H)
  CBD0*   FE FF          C      	CP	0FFH
  CBD2*   28 09          C      	JR	Z,$+11	;8BDD
  CBD4*   5F             C      	LD	E,A
  CBD5*   F1             C      	POP	AF
  CBD6*   3E 02          C      	LD	A,002H
  CBD8*   C1             C      	POP	BC
  CBD9*   E1             C      	POP	HL
  CBDA*   C3 CA6E        C      	JP	0CA6EH
  CBDD*   21 F265        C      	LD	HL,0F265H
  CBE0*   CB 9E          C      	RES	3,(HL)
  CBE2*   F1             C      	POP	AF
  CBE3*   3E 02          C      	LD	A,002H
  CBE5*   C1             C      	POP	BC
  CBE6*   E1             C      	POP	HL
  CBE7*   FE FE          C      	CP	0FEH
  CBE9*   28 49          C      	JR	Z,$+75	;8C34
  CBEB*   FE FF          C      	CP	0FFH
  CBED*   28 4B          C      	JR	Z,$+77	;8C3A
  CBEF*   E5             C      	PUSH	HL
  CBF0*   21 F265        C      	LD	HL,0F265H
  CBF3*   CB 5E          C      	BIT	3,(HL)
  CBF5*   28 14          C      	JR	Z,$+22	;8C0B
  CBF7*   FE 00          C      	CP	000H
  CBF9*   28 06          C      	JR	Z,$+08	;8C01
  CBFB*   FE 01          C      	CP	001H
  CBFD*   20 A6          C      	JR	NZ,$-88	;8BA5
  CBFF*   18 08          C      	JR	$+10	;8C09
  CC01*   3A F528        C      	LD	A,(0F528H)
  CC04*   32 F527        C      	LD	(0F527H),A
  CC07*   3E 00          C      	LD	A,000H
  CC09*   CB 9E          C      	RES	3,(HL)
  CC0B*   F5             C      	PUSH	AF
  CC0C*   B7             C      	OR	A
  CC0D*   20 16          C      	JR	NZ,$+24	;8C25
  CC0F*   2A F537        C      	LD	HL,(0F537H)
  CC12*   3A F529        C      	LD	A,(0F529H)
  CC15*   FE 02          C      	CP	002H
  CC17*   28 0F          C      	JR	Z,$+17	;8C28
'SYS3 - MEOS1521 ---> MEOS-System'	MACRO-80 3.44	09-Dec-81	PAGE	1-73


  CC19*   FE 03          C      	CP	003H
  CC1B*   28 0F          C      	JR	Z,$+17	;8C2C
  CC1D*   FE 04          C      	CP	004H
  CC1F*   28 0F          C      	JR	Z,$+17	;8C30
  CC21*   00             C      	NOP
  CC22*   C3 EFC0        C      	JP	0EFC0H
                         C      ;
  CC25*   F1             C      	POP	AF
  CC26*   E1             C      	POP	HL
  CC27*   C9             C      	RET
  CC28*   CB D6          C      	SET	2,(HL)
  CC2A*   18 F9          C      	JR	$-05	;8C2$
  CC2C*   CB DE          C      	SET	3,(HL)
  CC2E*   18 F5          C      	JR	$-09	;8C25
  CC30*   CB 96          C      	RES	2,(HL)
  CC32*   18 F1          C      	JR	$-13	;8C25
  CC34*   3A F528        C      	LD	A,(0F528H)
  CC37*   32 F527        C      	LD	(0F527H),A
  CC3A*   E5             C      	PUSH	HL
  CC3B*   21 F265        C      	LD	HL,0F265H
  CC3E*   CB 5E          C      	BIT	3,(HL)
  CC40*   28 05          C      	JR	Z,$+07	;8C47
  CC42*   3E FF          C      	LD	A,0FFH
  CC44*   C3 CBA5        C      	JP	0CBA5H
  CC47*   C5             C      	PUSH	BC
  CC48*   F5             C      	PUSH	AF
  CC49*   C3 CBCD        C      	JP	0CBCDH
  CC4C*   CD CC64        C      	CALL	0CC64H
  CC4F*   C0             C      	RET	NZ
  CC50*   79             C      	LD	A,C
  CC51*   32 F52A        C      	LD	(0F52AH),A
  CC54*   60             C      	LD	H,B
  CC55*   69             C      	LD	L,C
  CC56*   29             C      	ADD	HL,HL
  CC57*   44             C      	LD	B,H
  CC58*   4D             C      	LD	C,L
  CC59*   29             C      	ADD	HL,HL
  CC5A*   09             C      	ADD	HL,BC
  CC5B*   01 F4CC        C      	LD	BC,0F4CCH
  CC5E*   09             C      	ADD	HL,BC
  CC5F*   4E             C      	LD	C,(HL)
  CC60*   23             C      	INC	HL
  CC61*   46             C      	LD	B,(HL)
  CC62*   BF             C      	CP	A
  CC63*   C9             C      	RET
                         C      ;
  CC64*   21 F4B2        C      	LD	HL,0F4B2H
  CC67*   01 000D        C      	LD	BC,0000DH
  CC6A*   ED B1          C      	CPIR
  CC6C*   C9             C      	RET
                         C      ;
  CC6D*   E5             C      	PUSH	HL
  CC6E*   CD CCE9        C      	CALL	0CCE9H
  CC71*   CB FE          C      	SET	7,(HL)
  CC73*   E3             C      	EX	(SP),HL
  CC74*   CD CC7E        C      	CALL	0CC7EH
  CC77*   E3             C      	EX	(SP),HL
  CC78*   F5             C      	PUSH	AF
  CC79*   CB BE          C      	RES	7,(HL)
  CC7B*   F1             C      	POP	AF
  CC7C*   E1             C      	POP	HL
  CC7D*   C9             C      	RET
                         C      ;
  CC7E*   E5             C      	PUSH	HL
  CC7F*   C5             C      	PUSH	BC
  CC80*   D5             C      	PUSH	DE
  CC81*   57             C      	LD	D,A
  CC82*   1E 2B          C      	LD	E,02BH
  CC84*   CD CC8B        C      	CALL	0CC8BH
  CC87*   D1             C      	POP	DE
  CC88*   C1             C      	POP	BC
  CC89*   E1             C      	POP	HL
  CC8A*   C9             C      	RET
                         C      ;
  CC8B*   E5             C      	PUSH	HL
  CC8C*   2A F015        C      	LD	HL,(0F015H)
  CC8F*   ED 4B F017     C      	LD	BC,(0F017H)
  CC93*   09             C      	ADD	HL,BC
  CC94*   01 000E        C      	LD	BC,0000EH
  CC97*   ED 42          C      	SBC	HL,BC
  CC99*   E3             C      	EX	(SP),HL
  CC9A*   14             C      	INC	D
  CC9B*   28 17          C      	JR	Z,$+25	;8CB4
'SYS3 - MEOS1521 ---> MEOS-System'	MACRO-80 3.44	09-Dec-81	PAGE	1-74


  CC9D*   15             C      	DEC	D
  CC9E*   21 F52B        C      	LD	HL,0F52BH
  CCA1*   E5             C      	PUSH	HL
  CCA2*   73             C      	LD	(HL),E
  CCA3*   23             C      	INC	HL
  CCA4*   73             C      	LD	(HL),E
  CCA5*   21 F534        C      	LD	HL,0F534H
  CCA8*   7A             C      	LD	A,D
  CCA9*   CD C909        C      	CALL	0C909H
  CCAC*   77             C      	LD	(HL),A
  CCAD*   23             C      	INC	HL
  CCAE*   7A             C      	LD	A,D
  CCAF*   CD C90D        C      	CALL	0C90DH
  CCB2*   77             C      	LD	(HL),A
  CCB3*   E1             C      	POP	HL
  CCB4*   7B             C      	LD	A,E
  CCB5*   4B             C      	LD	C,E
  CCB6*   D1             C      	POP	DE
  CCB7*   D5             C      	PUSH	DE
  CCB8*   12             C      	LD	(DE),A
  CCB9*   13             C      	INC	DE
  CCBA*   C5             C      	PUSH	BC
  CCBB*   01 000C        C      	LD	BC,0000CH
  CCBE*   ED B0          C      	LDIR
  CCC0*   C1             C      	POP	BC
  CCC1*   1E 4B          C      	LD	E,04BH
  CCC3*   3A F52A        C      	LD	A,(0F52AH)
  CCC6*   F5             C      	PUSH	AF
  CCC7*   3E 10          C      	LD	A,010H
  CCC9*   CD CA6E        C      	CALL	0CA6EH
  CCCC*   F1             C      	POP	AF
  CCCD*   32 F52A        C      	LD	(0F52AH),A
  CCD0*   7A             C      	LD	A,D
  CCD1*   FE 1D          C      	CP	01DH
  CCD3*   28 0A          C      	JR	Z,$+12	;8CDF
  CCD5*   FE 1F          C      	CP	01FH
  CCD7*   20 E8          C      	JR	NZ,$-22	;0CC1
  CCD9*   79             C      	LD	A,C
  CCDA*   D6 2B          C      	SUB	02BH
  CCDC*   20 E3          C      	JR	NZ,$-27	;8CC1
  CCDE*   3C             C      	INC	A
  CCDF*   3D             C      	DEC	A
  CCE0*   E1             C      	POP	HL
  CCE1*   06 0E          C      	LD	B,00EH
  CCE3*   36 20          C      	LD	(HL),020H
  CCE5*   23             C      	INC	HL
  CCE6*   10 FB          C      	DJNZ	$-03	;8CE3
  CCE8*   C9             C      	RET
                         C      ;
  CCE9*   C5             C      	PUSH	BC
  CCEA*   F5             C      	PUSH	AF
  CCEB*   3A F52A        C      	LD	A,(0F52AH)
  CCEE*   ED 44          C      	NEG
  CCF0*   C6 0D          C      	ADD	A,00DH
  CCF2*   47             C      	LD	B,A
  CCF3*   2A F015        C      	LD	HL,(0F015H)
  CCF6*   2B             C      	DEC	HL
  CCF7*   23             C      	INC	HL
  CCF8*   23             C      	INC	HL
  CCF9*   23             C      	INC	HL
  CCFA*   10 FB          C      	DJNZ	$-03	;8CF7
  CCFC*   F1             C      	POP	AF
  CCFD*   C1             C      	POP	BC
  CCFE*   C9             C      	RET
                         C      ;
  CCFF*   E5             C      	PUSH	HL
  CD00*   D5             C      	PUSH	DE
  CD01*   C5             C      	PUSH	BC
  CD02*   F5             C      	PUSH	AF
  CD03*   2A F015        C      	LD	HL,(0F015H)
  CD06*   06 0D          C      	LD	B,00DH
  CD08*   11 F4B2        C      	LD	DE,0F4B2H
  CD0B*   1A             C      	LD	A,(DE)
  CD0C*   23             C      	INC	HL
  CD0D*   23             C      	INC	HL
  CD0E*   E6 60          C      	AND	060H
  CD10*   FE 40          C      	CP	040H
  CD12*   3E 2E          C      	LD	A,02EH
  CD14*   20 01          C      	JR	NZ,$+03	;8D17
  CD16*   1A             C      	LD	A,(DE)
  CD17*   77             C      	LD	(HL),A
  CD18*   23             C      	INC	HL
  CD19*   13             C      	INC	DE
'SYS3 - MEOS1521 ---> MEOS-System'	MACRO-80 3.44	09-Dec-81	PAGE	1-75


  CD1A*   10 EF          C      	DJNZ	$-15	;8D0B
  CD1C*   F1             C      	POP	AF
  CD1D*   C1             C      	POP	BC
  CD1E*   D1             C      	POP	DE
  CD1F*   E1             C      	POP	HL
  CD20*   C9             C      	RET
                         C      ;
  CD21*   C5             C      	PUSH	BC
  CD22*   E5             C      	PUSH	HL
  CD23*   C5             C      	PUSH	BC
  CD24*   4B             C      	LD	C,E
  CD25*   D1             C      	POP	DE
  CD26*   13             C      	INC	DE
  CD27*   1A             C      	LD	A,(DE)
  CD28*   0C             C      	INC	C
  CD29*   13             C      	INC	DE
  CD2A*   21 CD3C        C      	LD	HL,0CD3CH
  CD2D*   1F             C      	RRA
  CD2E*   23             C      	INC	HL
  CD2F*   0D             C      	DEC	C
  CD30*   28 08          C      	JR	Z,$+10	;8D3A
  CD32*   30 F9          C      	JR	NC,$-05	;8D2D
  CD34*   46             C      	LD	B,(HL)
  CD35*   13             C      	INC	DE
  CD36*   10 FD          C      	DJNZ	$-01	;8D35
  CD38*   18 F3          C      	JR	$-11	;8D2D
  CD3A*   E1             C      	POP	HL
  CD3B*   C1             C      	POP	BC
  CD3C*   C9             C      	RET
                         C      ;
  CD3D*   06 01          C      	LD	B,001H
  CD3F*   06 03          C      	LD	B,003H
  CD41*   05             C      	DEC	B
  CD42*   02             C      	LD	(BC),A
  CD43*   02             C      	LD	(BC),A
  CD44*   E5             C      	PUSH	HL
  CD45*   C5             C      	PUSH	BC
  CD46*   21 CD93        C      	LD	HL,0CD93H
  CD49*   01 0006        C      	LD	BC,00006H
  CD4C*   ED B1          C      	CPIR
  CD4E*   20 3E          C      	JR	NZ,$+64	;8D8E
  CD50*   01 0005        C      	LD	BC,00005H
  CD53*   09             C      	ADD	HL,BC
  CD54*   04             C      	INC	B
  CD55*   DD CB 00 76    C      	BIT	6,(IX+00)
  CD59*   28 33          C      	JR	Z,$+53	;8D8E
  CD5B*   7E             C      	LD	A,(HL)
  CD5C*   DD AE 00       C      	XOR	(IX+00)
  CD5F*   04             C      	INC	B
  CD60*   07             C      	RLCA
  CD61*   38 2B          C      	JR	C,$+45	;8D8E
  CD63*   7E             C      	LD	A,(HL)
  CD64*   C1             C      	POP	BC
  CD65*   E1             C      	POP	HL
  CD66*   CB 4F          C      	BIT	1,A
  CD68*   20 09          C      	JR	NZ,$+11	;8D73
  CD6A*   DD E5          C      	PUSH	IX
  CD6C*   E1             C      	POP	HL
  CD6D*   01 0007        C      	LD	BC,00007H
  CD70*   09             C      	ADD	HL,BC
  CD71*   0E 01          C      	LD	C,001H
  CD73*   DD 74 09       C      	LD	(IX+09),H
  CD76*   DD 75 08       C      	LD	(IX+08),L
  CD79*   DD 70 0B       C      	LD	(IX+11),B
  CD7C*   DD 71 0A       C      	LD	(IX+10),C
  CD7F*   DD 72 07       C      	LD	(IX+07),D
  CD82*   47             C      	LD	B,A
  CD83*   DD 7E 00       C      	LD	A,(IX+00)
  CD86*   E6 FC          C      	AND	0FCH
  CD88*   B0             C      	OR	B
  CD89*   DD 77 00       C      	LD	(IX+00),A
  CD8C*   37             C      	SCF
  CD8D*   C9             C      	RET
  CD8E*   AF             C      	XOR	A
  CD8F*   80             C      	ADD	A,B
  CD90*   C1             C      	POP	BC
  CD91*   E1             C      	POP	HL
  CD92*   C9             C      	RET
                         C      ;
  CD93*   00             C      	NOP
  CD94*   01 0C06        C      	LD	BC,00C06H
  CD97*   0D             C      	DEC	C
  CD98*   0E 00          C      	LD	C,000H
'SYS3 - MEOS1521 ---> MEOS-System'	MACRO-80 3.44	09-Dec-81	PAGE	1-76


  CD9A*   80             C      	ADD	A,B
  CD9B*   01 8202        C      	LD	BC,08202H
  CD9E*   03             C      	INC	BC
  CD9F*   CD CDF6        C      	CALL	0CDF6H
  CDA2*   CD CE0E        C      	CALL	0CE0EH
  CDA5*   20 13          C      	JR	NZ,$+21	;8DBA
  CDA7*   CD CE28        C      	CALL	0CE28H
  CDAA*   CD CE53        C      	CALL	0CE53H
  CDAD*   EB             C      	EX	DE,HL
  CDAE*   CD CE61        C      	CALL	0CE61H
  CDB1*   7C             C      	LD	A,H
  CDB2*   AA             C      	XOR	D
  CDB3*   67             C      	LD	H,A
  CDB4*   7D             C      	LD	A,L
  CDB5*   AB             C      	XOR	E
  CDB6*   6F             C      	LD	L,A
  CDB7*   C3 CE5A        C      	JP	0CE5AH
                         C      ;
  CDBA*                  C      CDBA:
  CDBA*   DD CB 00 7E    C      	BIT	7,(IX+00)
  CDBE*   28 01          C      	JR	Z,$+03	;8DC1
  CDC0*   EB             C      	EX	DE,HL
  CDC1*   DD CB 00 46    C      	BIT	0,(IX+00)
  CDC5*   28 01          C      	JR	Z,$+03	;8DC8
  CDC7*   2B             C      	DEC	HL
  CDC8*   7E             C      	LD	A,(HL)
  CDC9*   ED A0          C      	LDI
  CDCB*   DD CB 00 46    C      	BIT	0,(IX+00)
  CDCF*   28 02          C      	JR	Z,$+04	;8DD3
  CDD1*   2B             C      	DEC	HL
  CDD2*   1B             C      	DEC	DE
  CDD3*   DD CB 00 7E    C      	BIT	7,(IX+00)
  CDD7*   28 01          C      	JR	Z,$+03	;8DDA
  CDD9*   EB             C      	EX	DE,HL
  CDDA*   F5             C      	PUSH	AF
  CDDB*   78             C      	LD	A,B
  CDDC*   B1             C      	OR	C
  CDDD*   28 0D          C      	JR	Z,$+15	;8DEC
  CDDF*   F1             C      	POP	AF
  CDE0*   B7             C      	OR	A
  CDE1*   28 BF          C      	JR	Z,$-63	;8DA2
  CDE3*   DD BE 07       C      	CP	(IX+07)
  CDE6*   20 BA          C      	JR	NZ,$-68	;8DA2
  CDE8*   37             C      	SCF
  CDE9*   F5             C      	PUSH	AF
  CDEA*   18 05          C      	JR	$+07	;8DF1
  CDEC*   F1             C      	POP	AF
  CDED*   F6 01          C      	OR	001H
  CDEF*   37             C      	SCF
  CDF0*   F5             C      	PUSH	AF
  CDF1*   CD CE28        C      	CALL	0CE28H
  CDF4*   F1             C      	POP	AF
  CDF5*   C9             C      	RET
  CDF6*   CD CE50        C      	CALL	0CE50H
  CDF9*   09             C      	ADD	HL,BC
  CDFA*   CD CE42        C      	CALL	0CE42H
  CDFD*   CD CE61        C      	CALL	0CE61H
  CE00*   09             C      	ADD	HL,BC
  CE01*   DD 46 0B       C      	LD	B,(IX+11)
  CE04*   DD 4E 0A       C      	LD	C,(IX+10)
  CE07*   DD 56 09       C      	LD	D,(IX+09)
  CE0A*   DD 5E 08       C      	LD	E,(IX+08)
  CE0D*   C9             C      	RET
  CE0E*   E5             C      	PUSH	HL
  CE0F*   D5             C      	PUSH	DE
  CE10*   C5             C      	PUSH	BC
  CE11*   EB             C      	EX	DE,HL
  CE12*   CD CE50        C      	CALL	0CE50H
  CE15*   DD CB 00 46    C      	BIT	0,(IX+00)
  CE19*   20 05          C      	JR	NZ,$+07	;8E20
  CE1B*   B7             C      	OR	A
  CE1C*   ED 52          C      	SBC	HL,DE
  CE1E*   18 04          C      	JR	$+06	;8E24
  CE20*   B7             C      	OR	A
  CE21*   EB             C      	EX	DE,HL
  CE22*   ED 42          C      	SBC	HL,BC
  CE24*   C1             C      	POP	BC
  CE25*   D1             C      	POP	DE
  CE26*   E1             C      	POP	HL
  CE27*   C9             C      	RET
                         C      ;
  CE28*   DD 70 0B       C      	LD	(IX+11),B
  CE2B*   DD 71 0A       C      	LD	(IX+10),C
'SYS3 - MEOS1521 ---> MEOS-System'	MACRO-80 3.44	09-Dec-81	PAGE	1-77


  CE2E*   DD 72 09       C      	LD	(IX+09),D
  CE31*   DD 73 08       C      	LD	(IX+08),E
  CE34*   CD CE49        C      	CALL	0CE49H
  CE37*   B7             C      	OR	A
  CE38*   ED 42          C      	SBC	HL,BC
  CE3A*   CD CE5A        C      	CALL	0CE5AH
  CE3D*   CD CE53        C      	CALL	0CE53H
  CE40*   ED 42          C      	SBC	HL,BC
  CE42*   DD 74 06       C      	LD	(IX+06),H
  CE45*   DD 75 05       C      	LD	(IX+05),L
  CE48*   C9             C      	RET
  CE49*   DD 46 04       C      	LD	B,(IX+04)
  CE4C*   DD 4E 03       C      	LD	C,(IX+03)
  CE4F*   C9             C      	RET
  CE50*   CD CE49        C      	CALL	0CE49H
  CE53*   DD 66 06       C      	LD	H,(IX+06)
  CE56*   DD 6E 05       C      	LD	L,(IX+05)
  CE59*   C9             C      	RET
  CE5A*   DD 74 02       C      	LD	(IX+02),H
  CE5D*   DD 75 01       C      	LD	(IX+01),L
  CE60*   C9             C      	RET
  CE61*   DD 66 02       C      	LD	H,(IX+02)
  CE64*   DD 6E 01       C      	LD	L,(IX+01)
  CE67*   C9             C      	RET
  CE68*   FD E3          C      	EX	(SP),IY
  CE6A*   DD E5          C      	PUSH	IX
  CE6C*   E5             C      	PUSH	HL
  CE6D*   C5             C      	PUSH	BC
  CE6E*   FD E9          C      	JP	(IY)
                         C      ;
  CE70*   FD E1          C      	POP	IY
  CE72*   C1             C      	POP	BC
  CE73*   E1             C      	POP	HL
  CE74*   DD E1          C      	POP	IX
  CE76*   FD E3          C      	EX	(SP),IY
  CE78*   C9             C      	RET
                         C      ;
  CE79*   44             C      	LD	B,H
  CE7A*   4D             C      	LD	C,L
  CE7B*   1E 01          C      	LD	E,001H
  CE7D*   CD CD21        C      	CALL	0CD21H
  CE80*   30 03          C      	JR	NC,$+05	;8E85
  CE82*   3E 20          C      	LD	A,020H
  CE84*   12             C      	LD	(DE),A
  CE85*   1E 02          C      	LD	E,002H
  CE87*   CD CD21        C      	CALL	0CD21H
  CE8A*   DC CEA1        C      	CALL	C,0CEA1H
  CE8D*   1E 03          C      	LD	E,003H
  CE8F*   CD CD21        C      	CALL	0CD21H
  CE92*   DC CEB1        C      	CALL	C,0CEB1H
  CE95*   1E 07          C      	LD	E,007H
  CE97*   CD CD21        C      	CALL	0CD21H
  CE9A*   D0             C      	RET	NC
  CE9B*   3E FF          C      	LD	A,0FFH
  CE9D*   12             C      	LD	(DE),A
  CE9E*   13             C      	INC	DE
  CE9F*   12             C      	LD	(DE),A
  CEA0*   C9             C      	RET
                         C      ;
  CEA1*   C5             C      	PUSH	BC
  CEA2*   21 F234        C      	LD	HL,0F234H
  CEA5*   01 0306        C      	LD	BC,00306H
  CEA8*   ED A0          C      	LDI
  CEAA*   ED A0          C      	LDI
  CEAC*   23             C      	INC	HL
  CEAD*   10 F9          C      	DJNZ	$-05	;8EA8
  CEAF*   C1             C      	POP	BC
  CEB0*   C9             C      	RET
                         C      ;
  CEB1*   C5             C      	PUSH	BC
  CEB2*   01 0003        C      	LD	BC,00003H
  CEB5*   21 F23D        C      	LD	HL,0F23DH
  CEB8*   ED B0          C      	LDIR
  CEBA*   C1             C      	POP	BC
  CEBB*   C9             C      	RET
                         C      ;
  CEBC*   E5             C      	PUSH	HL
  CEBD*   21 CECA        C      	LD	HL,0CECAH
  CEC0*   C5             C      	PUSH	BC
  CEC1*   06 00          C      	LD	B,000H
  CEC3*   4E             C      	LD	C,(HL)
  CEC4*   23             C      	INC	HL
  CEC5*   ED B1          C      	CPIR
'SYS3 - MEOS1521 ---> MEOS-System'	MACRO-80 3.44	09-Dec-81	PAGE	1-78


  CEC7*   C1             C      	POP	BC
  CEC8*   E1             C      	POP	HL
  CEC9*   C9             C      	RET
                         C      ;
  CECA*   0A             C      	LD	A,(BC)
  CECB*   4F             C      	LD	C,A
  CECC*   4C             C      	LD	C,H
  CECD*   50             C      	LD	D,B
  CECE*   52             C      	LD	D,D
  CECF*   44             C      	LD	B,H
  CED0*   48             C      	LD	C,B
  CED1*   2B             C      	DEC	HL
  CED2*   2B             C      	DEC	HL
  CED3*   2B             C      	DEC	HL
  CED4*   2B             C      	DEC	HL
                         C      ;
                         C          PAGE
'SYS3 - MEOS1521 ---> MEOS-System'	MACRO-80 3.44	09-Dec-81	PAGE	1-79


                         C      
                         C      ;	-----
  CED5*   CD CE68        C      	CALL	0CE68H		;PN CC	Tastaturhandler
  CED8*   FB             C      	EI
  CED9*   F5             C      	PUSH	AF
  CEDA*   AF             C      	XOR	A
  CEDB*   32 F80C        C      	LD	(0F80CH),A
  CEDE*   F1             C      	POP	AF
  CEDF*   DD 21 F800     C      	LD	IX,0F800H
  CEE3*   FE 02          C      	CP	002H
  CEE5*   28 53          C      	JR	Z,$+85	;8F3A
  CEE7*   FE 04          C      	CP	004H
  CEE9*   28 7F          C      	JR	Z,$+129	;8F6A
  CEEB*   FE FF          C      	CP	0FFH
  CEED*   28 7E          C      	JR	Z,$+128	;8F6D
  CEEF*   FE 07          C      	CP	007H
  CEF1*   28 39          C      	JR	Z,$+59	;8F2C
  CEF3*   FE 10          C      	CP	010H
  CEF5*   28 27          C      	JR	Z,$+41	;8F1E
  CEF7*   CD CD44        C      	CALL	0CD44H
  CEFA*   30 60          C      	JR	NC,$+98	;8F5C
  CEFC*   3A F812        C      	LD	A,(0F812H)
  CEFF*   CD D9A0        C      	CALL	0D9A0H
  CF02*   28 F8          C      	JR	Z,$-06	;8EFC
  CF04*   CD CD9F        C      	CALL	0CD9FH
  CF07*   30 FB          C      	JR	NC,$-03	;8F04
  CF09*   DD 36 11 00    C      	LD	(IX+17),000H
  CF0D*   CD F80E        C      	CALL	0F80EH
  CF10*   DD 7E 07       C      	LD	A,(IX+07)
  CF13*   FE 04          C      	CP	004H
  CF15*   3E 03          C      	LD	A,003H
  CF17*   20 4E          C      	JR	NZ,$+80	;8F67
  CF19*   32 F80C        C      	LD	(0F80CH),A
  CF1C*   18 49          C      	JR	$+75	;8F67
  CF1E*   CD CF73        C      	CALL	0CF73H
  CF21*   DD 36 11 08    C      	LD	(IX+17),008H
  CF25*   CD F80E        C      	CALL	0F80EH
  CF28*   3E 00          C      	LD	A,000H
  CF2A*   18 CB          C      	JR	$-51	;8EF7
  CF2C*   3A F812        C      	LD	A,(0F812H)
  CF2F*   CD D9A0        C      	CALL	0D9A0H
  CF32*   3E 00          C      	LD	A,000H
  CF34*   20 C1          C      	JR	NZ,$-61	;8EF7
  CF36*   3E 04          C      	LD	A,004H
  CF38*   18 33          C      	JR	$+53	;8F6D
  CF3A*   DD 73 12       C      	LD	(IX+18),E
  CF3D*   CD CF73        C      	CALL	0CF73H
  CF40*   7E             C      	LD	A,(HL)
  CF41*   CD CEBC        C      	CALL	0CEBCH
  CF44*   28 1D          C      	JR	Z,$+31	;8F63
  CF46*   CD CE79        C      	CALL	0CE79H
  CF49*   DD 36 00 40    C      	LD	(IX+00),040H
  CF4D*   21 0001        C      	LD	HL,00001H
  CF50*   22 F801        C      	LD	(0F801H),HL
  CF53*   DD 36 11 00    C      	LD	(IX+17),000H
  CF57*   CD F80E        C      	CALL	0F80EH
  CF5A*   18 0B          C      	JR	$+13	;8F67
  CF5C*   3E 11          C      	LD	A,011H
  CF5E*   CD CC6D        C      	CALL	0CC6DH
  CF61*   20 07          C      	JR	NZ,$+09	;8F6A
  CF63*   3E 01          C      	LD	A,001H
  CF65*   18 06          C      	JR	$+08	;8F6D
  CF67*   DD 56 07       C      	LD	D,(IX+07)
  CF6A*   3A F80C        C      	LD	A,(0F80CH)
  CF6D*   CD CE70        C      	CALL	0CE70H
  CF70*   C3 CBE7        C      	JP	0CBE7H
  CF73*   DD E5          C      	PUSH	IX
  CF75*   3A F812        C      	LD	A,(0F812H)
  CF78*   CD D93E        C      	CALL	0D93EH
  CF7B*   DD CB 05 86    C      	RES	0,(IX+05)
  CF7F*   DD E1          C      	POP	IX
  CF81*   C9             C      	RET
                         C      ;
                         C          PAGE
'SYS3 - MEOS1521 ---> MEOS-System'	MACRO-80 3.44	09-Dec-81	PAGE	1-80


                         C      
                         C      ;	-----
  CF82*   C3 CF91        C      	JP	0CF91H		;PN SP	Bildschirmhandler
  CF85*   C1             C      	POP	BC
  CF86*   D1             C      	POP	DE
  CF87*   5F             C      	LD	E,A
  CF88*   3A F4AF        C      	LD	A,(0F4AFH)
  CF8B*   FD E1          C      	POP	IY
  CF8D*   E1             C      	POP	HL
  CF8E*   C3 CBE7        C      	JP	0CBE7H
                         C      ;	-----
  CF91*   E5             C      	PUSH	HL
  CF92*   FD E5          C      	PUSH	IY
  CF94*   D5             C      	PUSH	DE
  CF95*   C5             C      	PUSH	BC
  CF96*   FD 21 F49A     C      	LD	IY,0F49AH
  CF9A*   FD 77 13       C      	LD	(IY+19),A
  CF9D*   FD 36 15 00    C      	LD	(IY+21),000H
  CFA1*   FE 03          C      	CP	003H
  CFA3*   20 3F          C      	JR	NZ,$+65	;8FE4
  CFA5*   FD 73 14       C      	LD	(IY+20),E
  CFA8*   7E             C      	LD	A,(HL)
  CFA9*   FD 77 16       C      	LD	(IY+22),A
  CFAC*   CD CEBC        C      	CALL	0CEBCH
  CFAF*   20 05          C      	JR	NZ,$+07	;8FB6
  CFB1*   3E 13          C      	LD	A,013H
  CFB3*   CD CFD6        C      	CALL	0CFD6H
  CFB6*   AF             C      	XOR	A
  CFB7*   32 F4AC        C      	LD	(0F4ACH),A
  CFBA*   FD 36 10 44    C      	LD	(IY+16),044H
  CFBE*   21 F01C        C      	LD	HL,0F01CH
  CFC1*   11 F48A        C      	LD	DE,0F48AH
  CFC4*   01 0014        C      	LD	BC,00014H
  CFC7*   ED B0          C      	LDIR
  CFC9*   C1             C      	POP	BC
  CFCA*   C5             C      	PUSH	BC
  CFCB*   C5             C      	PUSH	BC
  CFCC*   ED 4B F49E     C      	LD	BC,(0F49EH)
  CFD0*   21 0000        C      	LD	HL,00000H
  CFD3*   C3 D03E        C      	JP	0D03EH
                         C      ;
  CFD6*   CD CC6D        C      	CALL	0CC6DH
  CFD9*   FE 1F          C      	CP	01FH
  CFDB*   C0             C      	RET	NZ
  CFDC*   3E 01          C      	LD	A,001H
  CFDE*   C1             C      	POP	BC
  CFDF*   C1             C      	POP	BC
  CFE0*   D1             C      	POP	DE
  CFE1*   C3 CF8B        C      	JP	0CF8BH
  CFE4*   32 F4AD        C      	LD	(0F4ADH),A
  CFE7*   3A F4AA        C      	LD	A,(0F4AAH)
  CFEA*   FE 44          C      	CP	044H
  CFEC*   28 05          C      	JR	Z,$+07	;8FF3
  CFEE*   3E 12          C      	LD	A,012H
  CFF0*   CD CFD6        C      	CALL	0CFD6H
  CFF3*   3A F4AD        C      	LD	A,(0F4ADH)
  CFF6*   FE 08          C      	CP	008H
  CFF8*   20 3C          C      	JR	NZ,$+62	;9036
  CFFA*   11 F489        C      	LD	DE,0F489H
  CFFD*   EB             C      	EX	DE,HL
  CFFE*   ED 4B F49C     C      	LD	BC,(0F49CH)
  D002*   3E 10          C      	LD	A,010H
  D004*   B7             C      	OR	A
  D005*   F5             C      	PUSH	AF
  D006*   1A             C      	LD	A,(DE)
  D007*   B7             C      	OR	A
  D008*   28 1A          C      	JR	Z,$+28	;D024
  D00A*   36 00          C      	LD	(HL),000H
  D00C*   FE 11          C      	CP	011H
  D00E*   38 02          C      	JR	C,$+04	;D012
  D010*   3E 10          C      	LD	A,010H
  D012*   47             C      	LD	B,A
  D013*   13             C      	INC	DE
  D014*   1A             C      	LD	A,(DE)
  D015*   B9             C      	CP	C
  D016*   30 0C          C      	JR	NC,$+14	;D024
  D018*   BE             C      	CP	(HL)
  D019*   28 09          C      	JR	Z,$+11	;D024
  D01B*   38 07          C      	JR	C,$+09	;D024
  D01D*   23             C      	INC	HL
  D01E*   77             C      	LD	(HL),A
  D01F*   F1             C      	POP	AF
'SYS3 - MEOS1521 ---> MEOS-System'	MACRO-80 3.44	09-Dec-81	PAGE	1-81


  D020*   3D             C      	DEC	A
  D021*   F5             C      	PUSH	AF
  D022*   10 EF          C      	DJNZ	$-15	;D013
  D024*   F1             C      	POP	AF
  D025*   28 06          C      	JR	Z,$+08	;D02D
  D027*   23             C      	INC	HL
  D028*   36 00          C      	LD	(HL),000H
  D02A*   3D             C      	DEC	A
  D02B*   20 FA          C      	JR	NZ,$-04	;D027
  D02D*   FD 7E 06       C      	LD	A,(IY+06)
  D030*   FD 96 0F       C      	SUB	(IY+15)
  D033*   C3 CF85        C      	JP	0CF85H
  D036*   FE 0A          C      	CP	00AH
  D038*   20 50          C      	JR	NZ,$+82	;D08A
  D03A*   2A F49E        C      	LD	HL,(0F49EH)
  D03D*   E5             C      	PUSH	HL
  D03E*   79             C      	LD	A,C
  D03F*   80             C      	ADD	A,B
  D040*   38 05          C      	JR	C,$+07	;D047
  D042*   FD BE 03       C      	CP	(IY+03)
  D045*   38 02          C      	JR	C,$+04	;D049
  D047*   44             C      	LD	B,H
  D048*   4D             C      	LD	C,L
  D049*   ED 43 F49E     C      	LD	(0F49EH),BC
  D04D*   FD 7E 03       C      	LD	A,(IY+03)
  D050*   91             C      	SUB	C
  D051*   4F             C      	LD	C,A
  D052*   ED 43 F4A0     C      	LD	(0F4A0H),BC
  D056*   3A F4AD        C      	LD	A,(0F4ADH)
  D059*   D6 03          C      	SUB	003H
  D05B*   20 06          C      	JR	NZ,$+08	;D063
  D05D*   32 F4A8        C      	LD	(0F4A8H),A
  D060*   FD 70 0F       C      	LD	(IY+15),B
  D063*   FD 5E 02       C      	LD	E,(IY+02)
  D066*   16 00          C      	LD	D,000H
  D068*   2A F49A        C      	LD	HL,(0F49AH)
  D06B*   04             C      	INC	B
  D06C*   05             C      	DEC	B
  D06D*   28 03          C      	JR	Z,$+05	;D072
  D06F*   19             C      	ADD	HL,DE
  D070*   18 FA          C      	JR	$-04	;D06C
  D072*   22 F4A2        C      	LD	(0F4A2H),HL
  D075*   E5             C      	PUSH	HL
  D076*   2A F49A        C      	LD	HL,(0F49AH)
  D079*   41             C      	LD	B,C
  D07A*   19             C      	ADD	HL,DE
  D07B*   10 FD          C      	DJNZ	$-01	;D07A
  D07D*   22 F4A6        C      	LD	(0F4A6H),HL
  D080*   C1             C      	POP	BC
  D081*   B7             C      	OR	A
  D082*   ED 42          C      	SBC	HL,BC
  D084*   22 F4A4        C      	LD	(0F4A4H),HL
  D087*   E1             C      	POP	HL
  D088*   18 0B          C      	JR	$+13	;D095
  D08A*   FE 0B          C      	CP	00BH
  D08C*   20 0F          C      	JR	NZ,$+17	;D09D
  D08E*   2A F4A8        C      	LD	HL,(0F4A8H)
  D091*   ED 43 F4A8     C      	LD	(0F4A8H),BC
  D095*   FD 36 12 00    C      	LD	(IY+18),000H
  D099*   C1             C      	POP	BC
  D09A*   E5             C      	PUSH	HL
  D09B*   18 90          C      	JR	$-110	;D02D
  D09D*   FE 05          C      	CP	005H
  D09F*   20 06          C      	JR	NZ,$+08	;D0A7
  D0A1*   00             C      	NOP
  D0A2*   00             C      	NOP
  D0A3*   00             C      	NOP
  D0A4*   00             C      	NOP
  D0A5*   18 86          C      	JR	$-120	;D02D
                         C      ;
  D0A7*   FE 01          C      	CP	001H
  D0A9*   20 0B          C      	JR	NZ,$+13	;D0B6
  D0AB*   21 F4B1        C      	LD	HL,0F4B1H
  D0AE*   72             C      	LD	(HL),D
  D0AF*   01 0001        C      	LD	BC,00001H
  D0B2*   3E 00          C      	LD	A,000H
  D0B4*   18 28          C      	JR	$+42	;D0DE
  D0B6*   FE 09          C      	CP	009H
  D0B8*   20 04          C      	JR	NZ,$+06	;D0BE
  D0BA*   16 11          C      	LD	D,011H
  D0BC*   18 ED          C      	JR	$-17	;D0AB
  D0BE*   FE 0D          C      	CP	00DH
  D0C0*   28 08          C      	JR	Z,$+10	;D0CA
'SYS3 - MEOS1521 ---> MEOS-System'	MACRO-80 3.44	09-Dec-81	PAGE	1-82


  D0C2*   3E 11          C      	LD	A,011H
  D0C4*   CD CFD6        C      	CALL	0CFD6H
  D0C7*   C3 D02D        C      	JP	0D02DH
  D0CA*   7A             C      	LD	A,D
  D0CB*   B7             C      	OR	A
  D0CC*   28 10          C      	JR	Z,$+18	;D0DE
  D0CE*   E5             C      	PUSH	HL
  D0CF*   C5             C      	PUSH	BC
  D0D0*   ED B1          C      	CPIR
  D0D2*   E1             C      	POP	HL
  D0D3*   3E 00          C      	LD	A,000H
  D0D5*   20 04          C      	JR	NZ,$+06	;D0DB
  D0D7*   ED 42          C      	SBC	HL,BC
  D0D9*   3E 05          C      	LD	A,005H
  D0DB*   44             C      	LD	B,H
  D0DC*   4D             C      	LD	C,L
  D0DD*   E1             C      	POP	HL
  D0DE*   FD 77 15       C      	LD	(IY+21),A
  D0E1*   E5             C      	PUSH	HL
  D0E2*   C5             C      	PUSH	BC
  D0E3*   ED 4B F4A8     C      	LD	BC,(0F4A8H)
  D0E7*   2A F4A0        C      	LD	HL,(0F4A0H)
  D0EA*   78             C      	LD	A,B
  D0EB*   BD             C      	CP	L
  D0EC*   30 09          C      	JR	NC,$+11	;D0F7
  D0EE*   BC             C      	CP	H
  D0EF*   38 06          C      	JR	C,$+08	;D0F7
  D0F1*   79             C      	LD	A,C
  D0F2*   FD BE 02       C      	CP	(IY+02)
  D0F5*   38 03          C      	JR	C,$+05	;D0FA
  D0F7*   44             C      	LD	B,H
  D0F8*   0E 00          C      	LD	C,000H
  D0FA*   ED 43 F4A8     C      	LD	(0F4A8H),BC
  D0FE*   2A F49A        C      	LD	HL,(0F49AH)
  D101*   59             C      	LD	E,C
  D102*   16 00          C      	LD	D,000H
  D104*   19             C      	ADD	HL,DE
  D105*   FD 5E 02       C      	LD	E,(IY+02)
  D108*   04             C      	INC	B
  D109*   05             C      	DEC	B
  D10A*   28 03          C      	JR	Z,$+05	;D10F
  D10C*   19             C      	ADD	HL,DE
  D10D*   10 FD          C      	DJNZ	$-01	;D10C
  D10F*   C1             C      	POP	BC
  D110*   D1             C      	POP	DE
  D111*   1A             C      	LD	A,(DE)
  D112*   C5             C      	PUSH	BC
  D113*   D5             C      	PUSH	DE
  D114*   ED 5B F49C     C      	LD	DE,(0F49CH)
  D118*   ED 4B F4A0     C      	LD	BC,(0F4A0H)
  D11C*   FD CB 12 46    C      	BIT	0,(IY+18)
  D120*   C2 D302        C      	JP	NZ,0D302H
  D123*   F5             C      	PUSH	AF
  D124*   E6 7F          C      	AND	07FH
  D126*   FE 80          C      	CP	080H
  D128*   30 58          C      	JR	NC,$+90	;D182
  D12A*   FE 20          C      	CP	020H
  D12C*   38 54          C      	JR	C,$+86	;D182
  D12E*   F1             C      	POP	AF
  D12F*   77             C      	LD	(HL),A
  D130*   23             C      	INC	HL
  D131*   FD 34 0E       C      	INC	(IY+14)
  D134*   FD 7E 0E       C      	LD	A,(IY+14)
  D137*   BB             C      	CP	E
  D138*   30 0B          C      	JR	NC,$+13	;D145
  D13A*   D1             C      	POP	DE
  D13B*   C1             C      	POP	BC
  D13C*   13             C      	INC	DE
  D13D*   0B             C      	DEC	BC
  D13E*   78             C      	LD	A,B
  D13F*   B1             C      	OR	C
  D140*   20 CF          C      	JR	NZ,$-47	;D111
  D142*   C3 D02D        C      	JP	0D02DH
  D145*   FD 36 0E 00    C      	LD	(IY+14),000H
  D149*   FD 34 0F       C      	INC	(IY+15)
  D14C*   FD 7E 0F       C      	LD	A,(IY+15)
  D14F*   B9             C      	CP	C
  D150*   38 06          C      	JR	C,$+08	;D158
  D152*   FD 70 0F       C      	LD	(IY+15),B
  D155*   2A F4A2        C      	LD	HL,(0F4A2H)
  D158*   FD CB 12 4E    C      	BIT	1,(IY+18)
  D15C*   20 06          C      	JR	NZ,$+08	;D164
  D15E*   FD 36 12 01    C      	LD	(IY+18),001H
'SYS3 - MEOS1521 ---> MEOS-System'	MACRO-80 3.44	09-Dec-81	PAGE	1-83


  D162*   18 D6          C      	JR	$-40	;D13A
  D164*   FD CB 12 DE    C      	SET	3,(IY+18)
  D168*   FD CB 12 66    C      	BIT	4,(IY+18)
  D16C*   FD CB 12 A6    C      	RES	4,(IY+18)
  D170*   20 C8          C      	JR	NZ,$-54	;D13A
  D172*   FD CB 12 56    C      	BIT	2,(IY+18)
  D176*   28 C2          C      	JR	Z,$-60	;D13A
  D178*   43             C      	LD	B,E
  D179*   E5             C      	PUSH	HL
  D17A*   36 20          C      	LD	(HL),020H
  D17C*   23             C      	INC	HL
  D17D*   10 FB          C      	DJNZ	$-03	;D17A
  D17F*   E1             C      	POP	HL
  D180*   18 B8          C      	JR	$-70	;D13A
                         C      ;
  D182*   F1             C      	POP	AF
  D183*   FD CB 12 5E    C      	BIT	3,(IY+18)
  D187*   20 25          C      	JR	NZ,$+39	;D1AE
  D189*   FE 09          C      	CP	009H
  D18B*   20 21          C      	JR	NZ,$+35	;D1AE
  D18D*   11 F489        C      	LD	DE,0F489H
  D190*   06 10          C      	LD	B,010H
  D192*   13             C      	INC	DE
  D193*   1A             C      	LD	A,(DE)
  D194*   FD BE 0E       C      	CP	(IY+14)
  D197*   38 02          C      	JR	C,$+04	;D19B
  D199*   20 04          C      	JR	NZ,$+06	;D19F
  D19B*   10 F5          C      	DJNZ	$-09	;D192
  D19D*   18 9B          C      	JR	$-99	;D13A
  D19F*   1A             C      	LD	A,(DE)
  D1A0*   FD 96 0E       C      	SUB	(IY+14)
  D1A3*   4F             C      	LD	C,A
  D1A4*   06 00          C      	LD	B,000H
  D1A6*   09             C      	ADD	HL,BC
  D1A7*   1A             C      	LD	A,(DE)
  D1A8*   FD 77 0E       C      	LD	(IY+14),A
  D1AB*   C3 D13A        C      	JP	0D13AH
  D1AE*   FE 08          C      	CP	008H
  D1B0*   20 28          C      	JR	NZ,$+42	;D1DA
  D1B2*   3A F4A8        C      	LD	A,(0F4A8H)
  D1B5*   B7             C      	OR	A
  D1B6*   20 1C          C      	JR	NZ,$+30	;D1D4
  D1B8*   FD CB 12 4E    C      	BIT	1,(IY+18)
  D1BC*   28 ED          C      	JR	Z,$-17	;D1AB
  D1BE*   FD CB 12 E6    C      	SET	4,(IY+18)
  D1C2*   FD 73 0E       C      	LD	(IY+14),E
  D1C5*   FD 7E 0F       C      	LD	A,(IY+15)
  D1C8*   B8             C      	CP	B
  D1C9*   20 06          C      	JR	NZ,$+08	;D1D1
  D1CB*   FD 71 0F       C      	LD	(IY+15),C
  D1CE*   2A F4A6        C      	LD	HL,(0F4A6H)
  D1D1*   FD 35 0F       C      	DEC	(IY+15)
  D1D4*   FD 35 0E       C      	DEC	(IY+14)
  D1D7*   2B             C      	DEC	HL
  D1D8*   18 D1          C      	JR	$-45	;D1AB
  D1DA*   FE 18          C      	CP	018H
  D1DC*   20 10          C      	JR	NZ,$+18	;D1EE
  D1DE*   FD CB 12 4E    C      	BIT	1,(IY+18)
  D1E2*   20 07          C      	JR	NZ,$+09	;D1EB
  D1E4*   FD 7E 0E       C      	LD	A,(IY+14)
  D1E7*   3C             C      	INC	A
  D1E8*   BB             C      	CP	E
  D1E9*   28 C0          C      	JR	Z,$-62	;D1AB
  D1EB*   C3 D130        C      	JP	0D130H
  D1EE*   FE 1C          C      	CP	01CH
  D1F0*   20 15          C      	JR	NZ,$+23	;D207
  D1F2*   7B             C      	LD	A,E
  D1F3*   3D             C      	DEC	A
  D1F4*   FD 96 0E       C      	SUB	(IY+14)
  D1F7*   28 0A          C      	JR	Z,$+12	;D203
  D1F9*   4F             C      	LD	C,A
  D1FA*   06 00          C      	LD	B,000H
  D1FC*   09             C      	ADD	HL,BC
  D1FD*   54             C      	LD	D,H
  D1FE*   5D             C      	LD	E,L
  D1FF*   2B             C      	DEC	HL
  D200*   ED B8          C      	LDDR
  D202*   23             C      	INC	HL
  D203*   36 20          C      	LD	(HL),020H
  D205*   18 A4          C      	JR	$-90	;D1AB
  D207*   FE 1D          C      	CP	01DH
  D209*   20 17          C      	JR	NZ,$+25	;D222
  D20B*   7B             C      	LD	A,E
'SYS3 - MEOS1521 ---> MEOS-System'	MACRO-80 3.44	09-Dec-81	PAGE	1-84


  D20C*   3D             C      	DEC	A
  D20D*   FD 96 0E       C      	SUB	(IY+14)
  D210*   28 F1          C      	JR	Z,$-13	;D203
  D212*   E5             C      	PUSH	HL
  D213*   4F             C      	LD	C,A
  D214*   06 00          C      	LD	B,000H
  D216*   54             C      	LD	D,H
  D217*   5D             C      	LD	E,L
  D218*   23             C      	INC	HL
  D219*   ED B0          C      	LDIR
  D21B*   2B             C      	DEC	HL
  D21C*   36 20          C      	LD	(HL),020H
  D21E*   E1             C      	POP	HL
  D21F*   C3 D13A        C      	JP	0D13AH
  D222*   FE 11          C      	CP	011H
  D224*   20 06          C      	JR	NZ,$+08	;D22C
  D226*   7E             C      	LD	A,(HL)
  D227*   EE 80          C      	XOR	080H
  D229*   77             C      	LD	(HL),A
  D22A*   18 F3          C      	JR	$-11	;D21F
  D22C*   FE 1F          C      	CP	01FH
  D22E*   20 1D          C      	JR	NZ,$+31	;D24D
  D230*   2A F4A2        C      	LD	HL,(0F4A2H)
  D233*   E5             C      	PUSH	HL
  D234*   0E 00          C      	LD	C,000H
  D236*   ED 43 F4A8     C      	LD	(0F4A8H),BC
  D23A*   54             C      	LD	D,H
  D23B*   5D             C      	LD	E,L
  D23C*   13             C      	INC	DE
  D23D*   ED 4B F4A4     C      	LD	BC,(0F4A4H)
  D241*   0B             C      	DEC	BC
  D242*   36 20          C      	LD	(HL),020H
  D244*   ED B0          C      	LDIR
  D246*   E1             C      	POP	HL
  D247*   FD 36 12 00    C      	LD	(IY+18),000H
  D24B*   18 D2          C      	JR	$-44	;D21F
  D24D*   FE 19          C      	CP	019H
  D24F*   20 18          C      	JR	NZ,$+26	;D269
  D251*   FD 7E 0F       C      	LD	A,(IY+15)
  D254*   16 00          C      	LD	D,000H
  D256*   B8             C      	CP	B
  D257*   20 08          C      	JR	NZ,$+10	;D261
  D259*   FD 71 0F       C      	LD	(IY+15),C
  D25C*   ED 4B F4A4     C      	LD	BC,(0F4A4H)
  D260*   09             C      	ADD	HL,BC
  D261*   B7             C      	OR	A
  D262*   ED 52          C      	SBC	HL,DE
  D264*   FD 35 0F       C      	DEC	(IY+15)
  D267*   18 DE          C      	JR	$-32	;D247
  D269*   FE 1A          C      	CP	01AH
  D26B*   20 17          C      	JR	NZ,$+25	;D284
  D26D*   FD 34 0F       C      	INC	(IY+15)
  D270*   FD 7E 0F       C      	LD	A,(IY+15)
  D273*   16 00          C      	LD	D,000H
  D275*   B9             C      	CP	C
  D276*   20 09          C      	JR	NZ,$+11	;D281
  D278*   FD 70 0F       C      	LD	(IY+15),B
  D27B*   ED 4B F4A4     C      	LD	BC,(0F4A4H)
  D27F*   ED 42          C      	SBC	HL,BC
  D281*   19             C      	ADD	HL,DE
  D282*   18 C3          C      	JR	$-59	;D247
  D284*   FE 12          C      	CP	012H
  D286*   20 32          C      	JR	NZ,$+52	;D2BA
  D288*   E5             C      	PUSH	HL
  D289*   AF             C      	XOR	A
  D28A*   47             C      	LD	B,A
  D28B*   FD 4E 0E       C      	LD	C,(IY+14)
  D28E*   ED 42          C      	SBC	HL,BC
  D290*   44             C      	LD	B,H
  D291*   4D             C      	LD	C,L
  D292*   2A F4A6        C      	LD	HL,(0F4A6H)
  D295*   2B             C      	DEC	HL
  D296*   E5             C      	PUSH	HL
  D297*   AF             C      	XOR	A
  D298*   57             C      	LD	D,A
  D299*   ED 52          C      	SBC	HL,DE
  D29B*   D1             C      	POP	DE
  D29C*   FD 7E 0F       C      	LD	A,(IY+15)
  D29F*   3C             C      	INC	A
  D2A0*   FD BE 06       C      	CP	(IY+06)
  D2A3*   28 0A          C      	JR	Z,$+12	;D2AF
  D2A5*   E5             C      	PUSH	HL
  D2A6*   B7             C      	OR	A
'SYS3 - MEOS1521 ---> MEOS-System'	MACRO-80 3.44	09-Dec-81	PAGE	1-85


  D2A7*   ED 42          C      	SBC	HL,BC
  D2A9*   44             C      	LD	B,H
  D2AA*   4D             C      	LD	C,L
  D2AB*   03             C      	INC	BC
  D2AC*   E1             C      	POP	HL
  D2AD*   ED B8          C      	LDDR
  D2AF*   FD 46 02       C      	LD	B,(IY+02)
  D2B2*   23             C      	INC	HL
  D2B3*   36 20          C      	LD	(HL),020H
  D2B5*   10 FB          C      	DJNZ	$-03	;D2B2
  D2B7*   E1             C      	POP	HL
  D2B8*   18 8D          C      	JR	$-113	;D247
  D2BA*   FE 1E          C      	CP	01EH
  D2BC*   20 25          C      	JR	NZ,$+39	;D2E3
  D2BE*   E5             C      	PUSH	HL
  D2BF*   AF             C      	XOR	A
  D2C0*   51             C      	LD	D,C
  D2C1*   47             C      	LD	B,A
  D2C2*   FD 4E 0E       C      	LD	C,(IY+14)
  D2C5*   ED 42          C      	SBC	HL,BC
  D2C7*   FD 7E 0F       C      	LD	A,(IY+15)
  D2CA*   3C             C      	INC	A
  D2CB*   BA             C      	CP	D
  D2CC*   28 12          C      	JR	Z,$+20	;D2E0
  D2CE*   E5             C      	PUSH	HL
  D2CF*   AF             C      	XOR	A
  D2D0*   57             C      	LD	D,A
  D2D1*   19             C      	ADD	HL,DE
  D2D2*   EB             C      	EX	DE,HL
  D2D3*   2A F4A6        C      	LD	HL,(0F4A6H)
  D2D6*   B7             C      	OR	A
  D2D7*   ED 52          C      	SBC	HL,DE
  D2D9*   44             C      	LD	B,H
  D2DA*   4D             C      	LD	C,L
  D2DB*   E1             C      	POP	HL
  D2DC*   EB             C      	EX	DE,HL
  D2DD*   ED B0          C      	LDIR
  D2DF*   EB             C      	EX	DE,HL
  D2E0*   2B             C      	DEC	HL
  D2E1*   18 CC          C      	JR	$-50	;D2AF
  D2E3*   FE 10          C      	CP	010H
  D2E5*   20 10          C      	JR	NZ,$+18	;D2F7
  D2E7*   FD CB 12 D6    C      	SET	2,(IY+18)
  D2EB*   FD CB 12 A6    C      	RES	4,(IY+18)
  D2EF*   7B             C      	LD	A,E
  D2F0*   FD 96 0E       C      	SUB	(IY+14)
  D2F3*   47             C      	LD	B,A
  D2F4*   C3 D179        C      	JP	0D179H
  D2F7*   FE 13          C      	CP	013H
  D2F9*   20 07          C      	JR	NZ,$+09	;D302
  D2FB*   FD CB 12 CE    C      	SET	1,(IY+18)
  D2FF*   C3 D13A        C      	JP	0D13AH
  D302*   FE 0D          C      	CP	00DH
  D304*   20 14          C      	JR	NZ,$+22	;D31A
  D306*   FD CB 12 46    C      	BIT	0,(IY+18)
  D30A*   C2 D251        C      	JP	NZ,0D251H
  D30D*   AF             C      	XOR	A
  D30E*   47             C      	LD	B,A
  D30F*   FD 4E 0E       C      	LD	C,(IY+14)
  D312*   FD 77 0E       C      	LD	(IY+14),A
  D315*   ED 42          C      	SBC	HL,BC
  D317*   C3 D247        C      	JP	0D247H
  D31A*   FE 0A          C      	CP	00AH
  D31C*   20 26          C      	JR	NZ,$+40	;D344
  D31E*   FD CB 12 46    C      	BIT	0,(IY+18)
  D322*   20 1B          C      	JR	NZ,$+29	;D33F
  D324*   AF             C      	XOR	A
  D325*   57             C      	LD	D,A
  D326*   19             C      	ADD	HL,DE
  D327*   B7             C      	OR	A
  D328*   FD 5E 0E       C      	LD	E,(IY+14)
  D32B*   FD 77 0E       C      	LD	(IY+14),A
  D32E*   ED 52          C      	SBC	HL,DE
  D330*   FD 34 0F       C      	INC	(IY+15)
  D333*   FD 7E 0F       C      	LD	A,(IY+15)
  D336*   B9             C      	CP	C
  D337*   20 06          C      	JR	NZ,$+08	;D33F
  D339*   FD 70 0F       C      	LD	(IY+15),B
  D33C*   2A F4A2        C      	LD	HL,(0F4A2H)
  D33F*   E5             C      	PUSH	HL
  D340*   2B             C      	DEC	HL
  D341*   C3 D2AF        C      	JP	0D2AFH
  D344*   FE 0C          C      	CP	00CH
'SYS3 - MEOS1521 ---> MEOS-System'	MACRO-80 3.44	09-Dec-81	PAGE	1-86


  D346*   20 0C          C      	JR	NZ,$+14	;D354
  D348*   0E 00          C      	LD	C,000H
  D34A*   ED 43 F4A8     C      	LD	(0F4A8H),BC
  D34E*   2A F4A2        C      	LD	HL,(0F4A2H)
  D351*   C3 D247        C      	JP	0D247H
  D354*   FE 0B          C      	CP	00BH
  D356*   C2 D13A        C      	JP	NZ,0D13AH
  D359*   E5             C      	PUSH	HL
  D35A*   FD 7E 0F       C      	LD	A,(IY+15)
  D35D*   90             C      	SUB	B
  D35E*   2A F4A2        C      	LD	HL,(0F4A2H)
  D361*   28 DD          C      	JR	Z,$-33	;D340
  D363*   E5             C      	PUSH	HL
  D364*   47             C      	LD	B,A
  D365*   16 00          C      	LD	D,000H
  D367*   19             C      	ADD	HL,DE
  D368*   E5             C      	PUSH	HL
  D369*   21 0000        C      	LD	HL,00000H
  D36C*   19             C      	ADD	HL,DE
  D36D*   10 FD          C      	DJNZ	$-01	;D36C
  D36F*   44             C      	LD	B,H
  D370*   4D             C      	LD	C,L
  D371*   E1             C      	POP	HL
  D372*   D1             C      	POP	DE
  D373*   ED B0          C      	LDIR
  D375*   EB             C      	EX	DE,HL
  D376*   18 C8          C      	JR	$-54	;D340
                         C      ;
                         C          PAGE
'SYS3 - MEOS1521 ---> MEOS-System'	MACRO-80 3.44	09-Dec-81	PAGE	1-87


                         C      
                         C      ;	-----
  D378*                  C      D378:
  D378*   CD CE68        C      	CALL	0CE68H		;PN YB	Floppy-Handler
  D37B*   DD 21 FB36     C      	LD	IX,0FB36H
  D37F*   18 19          C      	JR	$+27	;D39A
  D381*   CD CE68        C      	CALL	0CE68H
  D384*   DD 21 FB60     C      	LD	IX,0FB60H
  D388*   18 10          C      	JR	$+18	;D39A
  D38A*   CD CE68        C      	CALL	0CE68H
  D38D*   DD 21 FB8A     C      	LD	IX,0FB8AH
  D391*   18 07          C      	JR	$+09	;D39A
  D393*   CD CE68        C      	CALL	0CE68H
  D396*   DD 21 FBB4     C      	LD	IX,0FBB4H
  D39A*   FD 21 FB1E     C      	LD	IY,0FB1EH
  D39E*   FD 73 05       C      	LD	(IY+05),E
  D3A1*   FD 36 09 00    C      	LD	(IY+09),000H
  D3A5*   CD D837        C      	CALL	0D837H
  D3A8*   E5             C      	PUSH	HL
  D3A9*   DD 66 0F       C      	LD	H,(IX+15)
  D3AC*   DD 6E 0E       C      	LD	L,(IX+14)
  D3AF*   22 FB34        C      	LD	(0FB34H),HL
  D3B2*   E1             C      	POP	HL
  D3B3*   32 FB1E        C      	LD	(0FB1EH),A
  D3B6*   DD E5          C      	PUSH	IX
  D3B8*   FE 02          C      	CP	002H
  D3BA*   28 15          C      	JR	Z,$+23	;D3D1
  D3BC*   FE 03          C      	CP	003H
  D3BE*   28 11          C      	JR	Z,$+19	;D3D1
  D3C0*   FE 04          C      	CP	004H
  D3C2*   CA D528        C      	JP	Z,0D528H
  D3C5*   FE 05          C      	CP	005H
  D3C7*   CA D528        C      	JP	Z,0D528H
  D3CA*   E5             C      	PUSH	HL
  D3CB*   CD D647        C      	CALL	0D647H
  D3CE*   C3 D675        C      	JP	0D675H
  D3D1*   11 0101        C      	LD	DE,00101H
  D3D4*   ED 53 FB32     C      	LD	(0FB32H),DE
  D3D8*   E5             C      	PUSH	HL
  D3D9*   C1             C      	POP	BC
  D3DA*   21 8000        C      	LD	HL,08000H
  D3DD*   22 FB34        C      	LD	(0FB34H),HL
  D3E0*   CD D7B0        C      	CALL	0D7B0H
  D3E3*   DD 36 01 80    C      	LD	(IX+01),080H
  D3E7*   3E 0C          C      	LD	A,00CH
  D3E9*   CD D693        C      	CALL	0D693H
  D3EC*   21 FB2E        C      	LD	HL,0FB2EH
  D3EF*   EB             C      	EX	DE,HL
  D3F0*   01 0004        C      	LD	BC,00004H
  D3F3*   ED B0          C      	LDIR
  D3F5*   CD D826        C      	CALL	0D826H
  D3F8*   0A             C      	LD	A,(BC)
  D3F9*   FE 44          C      	CP	044H
  D3FB*   CA D4D7        C      	JP	Z,0D4D7H
  D3FE*   FE 48          C      	CP	048H
  D400*   3E 05          C      	LD	A,005H
  D402*   01 0500        C      	LD	BC,00500H
  D405*   CA D4E4        C      	JP	Z,0D4E4H
  D408*   FD 35 13       C      	DEC	(IY+19)
  D40B*   CA D506        C      	JP	Z,0D506H
  D40E*   3E 0C          C      	LD	A,00CH
  D410*   CD D693        C      	CALL	0D693H
  D413*   D5             C      	PUSH	DE
  D414*   21 0006        C      	LD	HL,00006H
  D417*   19             C      	ADD	HL,DE
  D418*   0A             C      	LD	A,(BC)
  D419*   BE             C      	CP	(HL)
  D41A*   E1             C      	POP	HL
  D41B*   20 EB          C      	JR	NZ,$-19	;D408
  D41D*   1E 00          C      	LD	E,000H
  D41F*   CD CD21        C      	CALL	0CD21H
  D422*   FD CB 0A 66    C      	BIT	4,(IY+10)
  D426*   28 1B          C      	JR	Z,$+29	;D443
  D428*   06 04          C      	LD	B,004H
  D42A*   CD D6B0        C      	CALL	0D6B0H
  D42D*   46             C      	LD	B,(HL)
  D42E*   23             C      	INC	HL
  D42F*   4E             C      	LD	C,(HL)
  D430*   EB             C      	EX	DE,HL
  D431*   56             C      	LD	D,(HL)
  D432*   23             C      	INC	HL
  D433*   5E             C      	LD	E,(HL)
'SYS3 - MEOS1521 ---> MEOS-System'	MACRO-80 3.44	09-Dec-81	PAGE	1-88


  D434*   EB             C      	EX	DE,HL
  D435*   ED 42          C      	SBC	HL,BC
  D437*   30 CF          C      	JR	NC,$-47	;D408
  D439*   EB             C      	EX	DE,HL
  D43A*   71             C      	LD	(HL),C
  D43B*   2B             C      	DEC	HL
  D43C*   70             C      	LD	(HL),B
  D43D*   FD CB 0A AE    C      	RES	5,(IY+10)
  D441*   18 C5          C      	JR	$-57	;D408
  D443*   06 06          C      	LD	B,006H
  D445*   CD D6B0        C      	CALL	0D6B0H
  D448*   FD CB 00 46    C      	BIT	0,(IY+00)
  D44C*   C2 D521        C      	JP	NZ,0D521H
  D44F*   CD D81F        C      	CALL	0D81FH
  D452*   21 0007        C      	LD	HL,00007H
  D455*   19             C      	ADD	HL,DE
  D456*   CD D826        C      	CALL	0D826H
  D459*   1E 01          C      	LD	E,001H
  D45B*   CD CD21        C      	CALL	0CD21H
  D45E*   7E             C      	LD	A,(HL)
  D45F*   30 01          C      	JR	NC,$+03	;D462
  D461*   12             C      	LD	(DE),A
  D462*   23             C      	INC	HL
  D463*   1E 02          C      	LD	E,002H
  D465*   CD CD21        C      	CALL	0CD21H
  D468*   C5             C      	PUSH	BC
  D469*   30 05          C      	JR	NC,$+07	;D470
  D46B*   01 0006        C      	LD	BC,00006H
  D46E*   ED B0          C      	LDIR
  D470*   CD D81F        C      	CALL	0D81FH
  D473*   21 0014        C      	LD	HL,00014H
  D476*   19             C      	ADD	HL,DE
  D477*   1E 03          C      	LD	E,003H
  D479*   C1             C      	POP	BC
  D47A*   CD CD21        C      	CALL	0CD21H
  D47D*   C5             C      	PUSH	BC
  D47E*   E5             C      	PUSH	HL
  D47F*   01 0003        C      	LD	BC,00003H
  D482*   30 02          C      	JR	NC,$+04	;D486
  D484*   ED B0          C      	LDIR
  D486*   E1             C      	POP	HL
  D487*   23             C      	INC	HL
  D488*   23             C      	INC	HL
  D489*   23             C      	INC	HL
  D48A*   CD D832        C      	CALL	0D832H
  D48D*   ED 53 FB32     C      	LD	(0FB32H),DE
  D491*   CD D832        C      	CALL	0D832H
  D494*   EB             C      	EX	DE,HL
  D495*   22 FB34        C      	LD	(0FB34H),HL
  D498*   06 07          C      	LD	B,007H
  D49A*   29             C      	ADD	HL,HL
  D49B*   10 FD          C      	DJNZ	$-01	;D49A
  D49D*   EB             C      	EX	DE,HL
  D49E*   C1             C      	POP	BC
  D49F*   D5             C      	PUSH	DE
  D4A0*   1E 04          C      	LD	E,004H
  D4A2*   CD CD21        C      	CALL	0CD21H
  D4A5*   C5             C      	PUSH	BC
  D4A6*   30 05          C      	JR	NC,$+07	;D4AD
  D4A8*   01 0005        C      	LD	BC,00005H
  D4AB*   ED B0          C      	LDIR
  D4AD*   C1             C      	POP	BC
  D4AE*   1E 07          C      	LD	E,007H
  D4B0*   CD CD21        C      	CALL	0CD21H
  D4B3*   E1             C      	POP	HL
  D4B4*   EB             C      	EX	DE,HL
  D4B5*   30 03          C      	JR	NC,$+05	;D4BA
  D4B7*   CD D82D        C      	CALL	0D82DH
  D4BA*   CD D826        C      	CALL	0D826H
  D4BD*   DD 21 D677     C      	LD	IX,0D677H
  D4C1*   DD E3          C      	EX	(SP),IX
  D4C3*   DD CB 00 76    C      	BIT	6,(IX+00)
  D4C7*   CA D7C5        C      	JP	Z,0D7C5H
  D4CA*   3E 12          C      	LD	A,012H
  D4CC*   C5             C      	PUSH	BC
  D4CD*   CD D7A2        C      	CALL	0D7A2H
  D4D0*   C1             C      	POP	BC
  D4D1*   CA D555        C      	JP	Z,0D555H
  D4D4*   C3 D7C5        C      	JP	0D7C5H
  D4D7*   3A FB31        C      	LD	A,(0FB31H)
  D4DA*   3D             C      	DEC	A
  D4DB*   CB 3F          C      	SRL	A
  D4DD*   CB 3F          C      	SRL	A
'SYS3 - MEOS1521 ---> MEOS-System'	MACRO-80 3.44	09-Dec-81	PAGE	1-89


  D4DF*   3C             C      	INC	A
  D4E0*   3C             C      	INC	A
  D4E1*   01 0101        C      	LD	BC,00101H
  D4E4*   FD CB 00 46    C      	BIT	0,(IY+00)
  D4E8*   20 10          C      	JR	NZ,$+18	;D4FA
  D4EA*   11 0015        C      	LD	DE,00015H
  D4ED*   19             C      	ADD	HL,DE
  D4EE*   77             C      	LD	(HL),A
  D4EF*   2B             C      	DEC	HL
  D4F0*   70             C      	LD	(HL),B
  D4F1*   2B             C      	DEC	HL
  D4F2*   71             C      	LD	(HL),C
  D4F3*   C3 D44F        C      	JP	0D44FH
  D4F6*   ED 4B FB2F     C      	LD	BC,(0FB2FH)
  D4FA*   ED 43 FB32     C      	LD	(0FB32H),BC
  D4FE*   21 0000        C      	LD	HL,00000H
  D501*   22 FB34        C      	LD	(0FB34H),HL
  D504*   18 B4          C      	JR	$-74	;D4BA
  D506*   FD CB 00 46    C      	BIT	0,(IY+00)
  D50A*   20 EA          C      	JR	NZ,$-20	;D4F6
  D50C*   FD CB 0A 66    C      	BIT	4,(IY+10)
  D510*   28 0F          C      	JR	Z,$+17	;D521
  D512*   FD CB 0A 6E    C      	BIT	5,(IY+10)
  D516*   FD 36 09 FF    C      	LD	(IY+09),0FFH
  D51A*   20 09          C      	JR	NZ,$+11	;D525
  D51C*   FD 35 09       C      	DEC	(IY+09)
  D51F*   18 04          C      	JR	$+06	;D525
  D521*   FD 36 09 02    C      	LD	(IY+09),002H
  D525*   C3 D676        C      	JP	0D676H
  D528*   DD E1          C      	POP	IX
  D52A*   CD D547        C      	CALL	0D547H
  D52D*   DD CB 00 7E    C      	BIT	7,(IX+00)
  D531*   CA D677        C      	JP	Z,0D677H
  D534*   CD D826        C      	CALL	0D826H
  D537*   0A             C      	LD	A,(BC)
  D538*   FE 44          C      	CP	044H
  D53A*   28 F5          C      	JR	Z,$-09	;D531
  D53C*   FE 48          C      	CP	048H
  D53E*   28 F1          C      	JR	Z,$-13	;D531
  D540*   E5             C      	PUSH	HL
  D541*   DD CB 00 F6    C      	SET	6,(IX+00)
  D545*   18 14          C      	JR	$+22	;D55B
  D547*   DD CB 00 76    C      	BIT	6,(IX+00)
  D54B*   DD CB 00 B6    C      	RES	6,(IX+00)
  D54F*   C0             C      	RET	NZ
  D550*   3E 11          C      	LD	A,011H
  D552*   CD CC6D        C      	CALL	0CC6DH
  D555*   FD 36 09 01    C      	LD	(IY+09),001H
  D559*   18 CA          C      	JR	$-52	;D525
  D55B*   CD D81F        C      	CALL	0D81FH
  D55E*   DD 36 01 80    C      	LD	(IX+01),080H
  D562*   3E 0D          C      	LD	A,00DH
  D564*   CD D68E        C      	CALL	0D68EH
  D567*   E1             C      	POP	HL
  D568*   DD 6E 10       C      	LD	L,(IX+16)
  D56B*   DD 66 11       C      	LD	H,(IX+17)
  D56E*   E5             C      	PUSH	HL
  D56F*   11 0101        C      	LD	DE,00101H
  D572*   3E 0C          C      	LD	A,00CH
  D574*   CD D688        C      	CALL	0D688H
  D577*   D5             C      	PUSH	DE
  D578*   21 FB2E        C      	LD	HL,0FB2EH
  D57B*   EB             C      	EX	DE,HL
  D57C*   01 0004        C      	LD	BC,00004H
  D57F*   ED B0          C      	LDIR
  D581*   E1             C      	POP	HL
  D582*   D1             C      	POP	DE
  D583*   E5             C      	PUSH	HL
  D584*   23             C      	INC	HL
  D585*   CD D82D        C      	CALL	0D82DH
  D588*   34             C      	INC	(HL)
  D589*   3E 0D          C      	LD	A,00DH
  D58B*   11 0101        C      	LD	DE,00101H
  D58E*   CD D688        C      	CALL	0D688H
  D591*   3A FB31        C      	LD	A,(0FB31H)
  D594*   57             C      	LD	D,A
  D595*   FE 67          C      	CP	067H
  D597*   20 0B          C      	JR	NZ,$+13	;D5A4
  D599*   3E 40          C      	LD	A,040H
  D59B*   FD 36 09 00    C      	LD	(IY+09),000H
  D59F*   CD CC6D        C      	CALL	0CC6DH
  D5A2*   28 B1          C      	JR	Z,$-77	;D555
  D5A4*   FE 68          C      	CP	068H
'SYS3 - MEOS1521 ---> MEOS-System'	MACRO-80 3.44	09-Dec-81	PAGE	1-90


  D5A6*   38 04          C      	JR	C,$+06	;D5AC
  D5A8*   3E 44          C      	LD	A,044H
  D5AA*   28 A6          C      	JR	Z,$-88	;D552
  D5AC*   7A             C      	LD	A,D
  D5AD*   16 00          C      	LD	D,000H
  D5AF*   14             C      	INC	D
  D5B0*   D6 04          C      	SUB	004H
  D5B2*   F2 D5AF        C      	JP	P,0D5AFH
  D5B5*   FD 72 01       C      	LD	(IY+01),D
  D5B8*   C6 05          C      	ADD	A,005H
  D5BA*   4F             C      	LD	C,A
  D5BB*   AF             C      	XOR	A
  D5BC*   FD 77 02       C      	LD	(IY+02),A
  D5BF*   0D             C      	DEC	C
  D5C0*   28 04          C      	JR	Z,$+06	;D5C6
  D5C2*   C6 20          C      	ADD	A,020H
  D5C4*   18 F6          C      	JR	$-08	;D5BC
  D5C6*   1E 01          C      	LD	E,001H
  D5C8*   3E 0C          C      	LD	A,00CH
  D5CA*   CD D688        C      	CALL	0D688H
  D5CD*   26 00          C      	LD	H,000H
  D5CF*   FD 6E 02       C      	LD	L,(IY+02)
  D5D2*   19             C      	ADD	HL,DE
  D5D3*   1E 00          C      	LD	E,000H
  D5D5*   CD CD21        C      	CALL	0CD21H
  D5D8*   C5             C      	PUSH	BC
  D5D9*   0A             C      	LD	A,(BC)
  D5DA*   01 0006        C      	LD	BC,00006H
  D5DD*   EB             C      	EX	DE,HL
  D5DE*   ED B0          C      	LDIR
  D5E0*   EB             C      	EX	DE,HL
  D5E1*   77             C      	LD	(HL),A
  D5E2*   23             C      	INC	HL
  D5E3*   C1             C      	POP	BC
  D5E4*   1E 01          C      	LD	E,001H
  D5E6*   CD CD21        C      	CALL	0CD21H
  D5E9*   3E 20          C      	LD	A,020H
  D5EB*   30 01          C      	JR	NC,$+03	;D5EE
  D5ED*   1A             C      	LD	A,(DE)
  D5EE*   77             C      	LD	(HL),A
  D5EF*   1E 02          C      	LD	E,002H
  D5F1*   CD CD21        C      	CALL	0CD21H
  D5F4*   23             C      	INC	HL
  D5F5*   C5             C      	PUSH	BC
  D5F6*   EB             C      	EX	DE,HL
  D5F7*   30 05          C      	JR	NC,$+07	;D5FE
  D5F9*   01 0006        C      	LD	BC,00006H
  D5FC*   ED B0          C      	LDIR
  D5FE*   D4 CEA1        C      	CALL	NC,0CEA1H
  D601*   CD CEA1        C      	CALL	0CEA1H
  D604*   EB             C      	EX	DE,HL
  D605*   C1             C      	POP	BC
  D606*   1E 03          C      	LD	E,003H
  D608*   CD CD21        C      	CALL	0CD21H
  D60B*   C5             C      	PUSH	BC
  D60C*   01 0003        C      	LD	BC,00003H
  D60F*   EB             C      	EX	DE,HL
  D610*   38 03          C      	JR	C,$+05	;D615
  D612*   21 F23D        C      	LD	HL,0F23DH
  D615*   ED B0          C      	LDIR
  D617*   EB             C      	EX	DE,HL
  D618*   ED 5B FB2F     C      	LD	DE,(0FB2FH)
  D61C*   CD D82D        C      	CALL	0D82DH
  D61F*   ED 5B FB34     C      	LD	DE,(0FB34H)
  D623*   1B             C      	DEC	DE
  D624*   1B             C      	DEC	DE
  D625*   1B             C      	DEC	DE
  D626*   CD D82D        C      	CALL	0D82DH
  D629*   C1             C      	POP	BC
  D62A*   1E 04          C      	LD	E,004H
  D62C*   CD CD21        C      	CALL	0CD21H
  D62F*   EB             C      	EX	DE,HL
  D630*   01 0005        C      	LD	BC,00005H
  D633*   30 02          C      	JR	NC,$+04	;D637
  D635*   ED B0          C      	LDIR
  D637*   3E 0D          C      	LD	A,00DH
  D639*   FD 56 01       C      	LD	D,(IY+01)
  D63C*   1E 01          C      	LD	E,001H
  D63E*   CD D688        C      	CALL	0D688H
  D641*   DD CB 00 B6    C      	RES	6,(IX+00)
  D645*   18 2F          C      	JR	$+49	;D676
  D647*   FD 36 F9 08    C      	LD	(IY-07),008H
  D64B*   CB 47          C      	BIT	0,A
'SYS3 - MEOS1521 ---> MEOS-System'	MACRO-80 3.44	09-Dec-81	PAGE	1-91


  D64D*   28 03          C      	JR	Z,$+05	;D652
  D64F*   FD 34 F9       C      	INC	(IY-07)
  D652*   CD CD44        C      	CALL	0CD44H
  D655*   30 09          C      	JR	NC,$+11	;D660
  D657*   CD D682        C      	CALL	0D682H
  D65A*   C0             C      	RET	NZ
  D65B*   FD 36 09 05    C      	LD	(IY+09),005H
  D65F*   C9             C      	RET
  D660*   06 11          C      	LD	B,011H
  D662*   28 08          C      	JR	Z,$+10	;D66C
  D664*   06 12          C      	LD	B,012H
  D666*   FE 01          C      	CP	001H
  D668*   28 02          C      	JR	Z,$+04	;D66C
  D66A*   06 11          C      	LD	B,011H
  D66C*   78             C      	LD	A,B
  D66D*   CD CC6D        C      	CALL	0CC6DH
  D670*   FD 36 09 01    C      	LD	(IY+09),001H
  D674*   E1             C      	POP	HL
  D675*   E1             C      	POP	HL
  D676*   E1             C      	POP	HL
  D677*   1E FF          C      	LD	E,0FFH
  D679*   DD 56 07       C      	LD	D,(IX+07)
  D67C*   C3 D850        C      	JP	0D850H
  D67F*   CD D6BD        C      	CALL	0D6BDH
  D682*   CD CD9F        C      	CALL	0CD9FH
  D685*   30 F8          C      	JR	NC,$-06	;D67F
  D687*   C9             C      	RET
                         C      ;
  D688*   DD 73 10       C      	LD	(IX+16),E
  D68B*   DD 72 11       C      	LD	(IX+17),D
  D68E*   01 0080        C      	LD	BC,00080H
  D691*   18 03          C      	JR	$+05	;D696
  D693*   01 0020        C      	LD	BC,00020H
  D696*   DD CB 00 BE    C      	RES	7,(IX+00)
  D69A*   CB 47          C      	BIT	0,A
  D69C*   28 04          C      	JR	Z,$+06	;D6A2
  D69E*   DD CB 00 FE    C      	SET	7,(IX+00)
  D6A2*   CD D81F        C      	CALL	0D81FH
  D6A5*   EB             C      	EX	DE,HL
  D6A6*   50             C      	LD	D,B
  D6A7*   CD D647        C      	CALL	0D647H
  D6AA*   CD D81F        C      	CALL	0D81FH
  D6AD*   C3 D826        C      	JP	0D826H
  D6B0*   1A             C      	LD	A,(DE)
  D6B1*   BE             C      	CP	(HL)
  D6B2*   20 05          C      	JR	NZ,$+07	;D6B9
  D6B4*   23             C      	INC	HL
  D6B5*   13             C      	INC	DE
  D6B6*   10 F8          C      	DJNZ	$-06	;D6B0
  D6B8*   C9             C      	RET
                         C      ;
  D6B9*   E1             C      	POP	HL
  D6BA*   C3 D408        C      	JP	0D408H
                         C      ;
  D6BD*   DD CB 00 46    C      	BIT	0,(IX+00)
  D6C1*   28 10          C      	JR	Z,$+18	;D6D3
  D6C3*   DD 7E 11       C      	LD	A,(IX+17)
  D6C6*   D6 03          C      	SUB	003H
  D6C8*   30 05          C      	JR	NC,$+07	;D6CF
  D6CA*   DD 35 10       C      	DEC	(IX+16)
  D6CD*   C6 1A          C      	ADD	A,01AH
  D6CF*   3C             C      	INC	A
  D6D0*   DD 77 11       C      	LD	(IX+17),A
  D6D3*   CD D74C        C      	CALL	0D74CH
  D6D6*   30 2B          C      	JR	NC,$+45	;D703
  D6D8*   FE 72          C      	CP	072H
  D6DA*   20 19          C      	JR	NZ,$+27	;D6F5
  D6DC*   CD D7AA        C      	CALL	0D7AAH
  D6DF*   FD 7E F9       C      	LD	A,(IY-07)
  D6E2*   F5             C      	PUSH	AF
  D6E3*   FD 36 F9 04    C      	LD	(IY-07),004H
  D6E7*   CD D74C        C      	CALL	0D74CH
  D6EA*   D1             C      	POP	DE
  D6EB*   38 08          C      	JR	C,$+10	;D6F5
  D6ED*   FD 72 F9       C      	LD	(IY-07),D
  D6F0*   CD D74C        C      	CALL	0D74CH
  D6F3*   30 0E          C      	JR	NC,$+16	;D703
  D6F5*   CD D79A        C      	CALL	0D79AH
  D6F8*   20 09          C      	JR	NZ,$+11	;D703
  D6FA*   FD 36 09 01    C      	LD	(IY+09),001H
  D6FE*   E1             C      	POP	HL
  D6FF*   E1             C      	POP	HL
  D700*   C3 D674        C      	JP	0D674H
'SYS3 - MEOS1521 ---> MEOS-System'	MACRO-80 3.44	09-Dec-81	PAGE	1-92


                         C      ;
  D703*   47             C      	LD	B,A
  D704*   DD 34 11       C      	INC	(IX+17)
  D707*   DD 7E 11       C      	LD	A,(IX+17)
  D70A*   FE 1B          C      	CP	01BH
  D70C*   20 24          C      	JR	NZ,$+38	;D732
  D70E*   DD 36 11 01    C      	LD	(IX+17),001H
  D712*   DD 34 10       C      	INC	(IX+16)
  D715*   DD 7E 10       C      	LD	A,(IX+16)
  D718*   FE 45          C      	CP	045H
  D71A*   20 02          C      	JR	NZ,$+04	;D71E
  D71C*   06 30          C      	LD	B,030H
  D71E*   FE 4A          C      	CP	04AH
  D720*   38 10          C      	JR	C,$+18	;D732
  D722*   DD 35 10       C      	DEC	(IX+16)
  D725*   DD 36 11 19    C      	LD	(IX+17),019H
  D729*   3E 42          C      	LD	A,042H
  D72B*   DD CB 00 7E    C      	BIT	7,(IX+00)
  D72F*   C2 D6F5        C      	JP	NZ,0D6F5H
  D732*   CD D77F        C      	CALL	0D77FH
  D735*   3E 14          C      	LD	A,014H
  D737*   CC D7A2        C      	CALL	Z,0D7A2H
  D73A*   28 BE          C      	JR	Z,$-64	;D6FA
  D73C*   3E 30          C      	LD	A,030H
  D73E*   B8             C      	CP	B
  D73F*   C0             C      	RET	NZ
  D740*   DD CB 00 7E    C      	BIT	7,(IX+00)
  D744*   C8             C      	RET	Z
  D745*   CD D79A        C      	CALL	0D79AH
  D748*   28 B0          C      	JR	Z,$-78	;D6FA
  D74A*   18 49          C      	JR	$+75	;D795
  D74C*   DD 6E 10       C      	LD	L,(IX+16)
  D74F*   DD 66 11       C      	LD	H,(IX+17)
  D752*   22 FB1C        C      	LD	(0FB1CH),HL
  D755*   DD 6E 03       C      	LD	L,(IX+03)
  D758*   DD 66 04       C      	LD	H,(IX+04)
  D75B*   22 FB1A        C      	LD	(0FB1AH),HL
  D75E*   DD 7E 14       C      	LD	A,(IX+20)
  D761*   32 FB18        C      	LD	(0FB18H),A
  D764*   CD FB14        C      	CALL	0FB14H
  D767*   FD 7E FA       C      	LD	A,(IY-06)
  D76A*   CD D9A0        C      	CALL	0D9A0H
  D76D*   28 F8          C      	JR	Z,$-06	;D767
  D76F*   DD 6E 0C       C      	LD	L,(IX+12)
  D772*   DD 66 0D       C      	LD	H,(IX+13)
  D775*   CD D832        C      	CALL	0D832H
  D778*   DD 73 10       C      	LD	(IX+16),E
  D77B*   DD 72 11       C      	LD	(IX+17),D
  D77E*   C9             C      	RET
  D77F*   ED 5B FB34     C      	LD	DE,(0FB34H)
  D783*   3E 03          C      	LD	A,003H
  D785*   FD A6 00       C      	AND	(IY+00)
  D788*   28 03          C      	JR	Z,$+05	;D78D
  D78A*   13             C      	INC	DE
  D78B*   18 03          C      	JR	$+05	;D790
  D78D*   7A             C      	LD	A,D
  D78E*   B3             C      	OR	E
  D78F*   1B             C      	DEC	DE
  D790*   ED 53 FB34     C      	LD	(0FB34H),DE
  D794*   C0             C      	RET	NZ
  D795*   FD 36 09 03    C      	LD	(IY+09),003H
  D799*   C9             C      	RET
                         C      ;
  D79A*   E6 F0          C      	AND	0F0H
  D79C*   0F             C      	RRCA
  D79D*   0F             C      	RRCA
  D79E*   0F             C      	RRCA
  D79F*   0F             C      	RRCA
  D7A0*   F6 50          C      	OR	050H
  D7A2*   47             C      	LD	B,A
  D7A3*   CD D7AA        C      	CALL	0D7AAH
  D7A6*   78             C      	LD	A,B
  D7A7*   C3 CC6D        C      	JP	0CC6DH
  D7AA*   FD 7E FA       C      	LD	A,(IY-06)
  D7AD*   C3 D98E        C      	JP	0D98EH
  D7B0*   C5             C      	PUSH	BC
  D7B1*   FD 7E 05       C      	LD	A,(IY+05)
  D7B4*   CD D93E        C      	CALL	0D93EH
  D7B7*   01 000B        C      	LD	BC,0000BH
  D7BA*   DD 09          C      	ADD	IX,BC
  D7BC*   DD 22 FBEA     C      	LD	(0FBEAH),IX
  D7C0*   C1             C      	POP	BC
  D7C1*   DD 21 FBDE     C      	LD	IX,0FBDEH
'SYS3 - MEOS1521 ---> MEOS-System'	MACRO-80 3.44	09-Dec-81	PAGE	1-93


  D7C5*   DD E5          C      	PUSH	IX
  D7C7*   E1             C      	POP	HL
  D7C8*   36 40          C      	LD	(HL),040H
  D7CA*   FD CB 00 46    C      	BIT	0,(IY+00)
  D7CE*   11 0080        C      	LD	DE,00080H
  D7D1*   28 05          C      	JR	Z,$+07	;D7D8
  D7D3*   CB FE          C      	SET	7,(HL)
  D7D5*   11 0000        C      	LD	DE,00000H
  D7D8*   23             C      	INC	HL
  D7D9*   CD D82D        C      	CALL	0D82DH
  D7DC*   E5             C      	PUSH	HL
  D7DD*   21 F81D        C      	LD	HL,0F81DH
  D7E0*   FD CB 00 46    C      	BIT	0,(IY+00)
  D7E4*   28 03          C      	JR	Z,$+05	;D7E9
  D7E6*   21 F89D        C      	LD	HL,0F89DH
  D7E9*   1E 05          C      	LD	E,005H
  D7EB*   CD CD21        C      	CALL	0CD21H
  D7EE*   EB             C      	EX	DE,HL
  D7EF*   DC D832        C      	CALL	C,0D832H
  D7F2*   E1             C      	POP	HL
  D7F3*   CD D82D        C      	CALL	0D82DH
  D7F6*   11 0080        C      	LD	DE,00080H
  D7F9*   CD D82D        C      	CALL	0D82DH
  D7FC*   11 0005        C      	LD	DE,00005H
  D7FF*   19             C      	ADD	HL,DE
  D800*   02             C      	LD	(BC),A
  D801*   F8             C      	RET	M
  D802*   EA CDFB        C      	JP	PE,0CDFBH
  D805*   2D             C      	DEC	L
  D806*   D8             C      	RET	C
  D807*   ED 5B FB34     C      	LD	DE,(0FB34H)
  D80B*   CD D82D        C      	CALL	0D82DH
  D80E*   ED 5B FB32     C      	LD	DE,(0FB32H)
  D812*   CD D82D        C      	CALL	0D82DH
  D815*   C5             C      	PUSH	BC
  D816*   D1             C      	POP	DE
  D817*   CD D82D        C      	CALL	0D82DH
  D81A*   FD 7E 05       C      	LD	A,(IY+05)
  D81D*   77             C      	LD	(HL),A
  D81E*   C9             C      	RET
                         C      ;
  D81F*   DD 5E 03       C      	LD	E,(IX+03)
  D822*   DD 56 04       C      	LD	D,(IX+04)
  D825*   C9             C      	RET
  D826*   DD 4E 12       C      	LD	C,(IX+18)
  D829*   DD 46 13       C      	LD	B,(IX+19)
  D82C*   C9             C      	RET
  D82D*   73             C      	LD	(HL),E
  D82E*   23             C      	INC	HL
  D82F*   72             C      	LD	(HL),D
  D830*   23             C      	INC	HL
  D831*   C9             C      	RET
  D832*   5E             C      	LD	E,(HL)
  D833*   23             C      	INC	HL
  D834*   56             C      	LD	D,(HL)
  D835*   23             C      	INC	HL
  D836*   C9             C      	RET
  D837*   FD 36 0A 00    C      	LD	(IY+10),000H
  D83B*   FE FF          C      	CP	0FFH
  D83D*   20 06          C      	JR	NZ,$+08	;D845
  D83F*   FD 36 0A 30    C      	LD	(IY+10),030H
  D843*   3E 02          C      	LD	A,002H
  D845*   CB 47          C      	BIT	0,A
  D847*   C8             C      	RET	Z
  D848*   D5             C      	PUSH	DE
  D849*   11 0015        C      	LD	DE,00015H
  D84C*   DD 19          C      	ADD	IX,DE
  D84E*   D1             C      	POP	DE
  D84F*   C9             C      	RET
  D850*   3A FB27        C      	LD	A,(0FB27H)
  D853*   2A FB34        C      	LD	HL,(0FB34H)
  D856*   DD 74 0F       C      	LD	(IX+15),H
  D859*   DD 75 0E       C      	LD	(IX+14),L
  D85C*   CD CE70        C      	CALL	0CE70H
  D85F*   C3 CBE7        C      	JP	0CBE7H
                         C      ;
                         C          PAGE
'SYS3 - MEOS1521 ---> MEOS-System'	MACRO-80 3.44	09-Dec-81	PAGE	1-94


                         C      
                         C      ;	-----
  D862*                  C      D862:
  D862*   DD E3          C      	EX	(SP),IX		;PN XA	E-/A-Monitor
  D864*   E5             C      	PUSH	HL
  D865*   C5             C      	PUSH	BC
  D866*   D5             C      	PUSH	DE
  D867*   F5             C      	PUSH	AF
  D868*   DD 7E 01       C      	LD	A,(IX+01)
  D86B*   21 F539        C      	LD	HL,0F539H
  D86E*   46             C      	LD	B,(HL)
  D86F*   11 000D        C      	LD	DE,0000DH
  D872*   23             C      	INC	HL
  D873*   BE             C      	CP	(HL)
  D874*   28 0B          C      	JR	Z,$+13	;D881
  D876*   19             C      	ADD	HL,DE
  D877*   10 FA          C      	DJNZ	$-04	;D873
  D879*   F1             C      	POP	AF
  D87A*   AF             C      	XOR	A
  D87B*   D1             C      	POP	DE
  D87C*   C1             C      	POP	BC
  D87D*   E1             C      	POP	HL
  D87E*   DD E1          C      	POP	IX
  D880*   C9             C      	RET
                         C      ;
  D881*   DD 4E 00       C      	LD	C,(IX+00)
  D884*   DD 22 F3C7     C      	LD	(0F3C7H),IX
  D888*   E5             C      	PUSH	HL
  D889*   DD E1          C      	POP	IX
  D88B*   CB 01          C      	RLC	C
  D88D*   30 17          C      	JR	NC,$+25	;D8A6
  D88F*   F1             C      	POP	AF
  D890*   DD 7E 05       C      	LD	A,(IX+05)
  D893*   CB 01          C      	RLC	C
  D895*   38 09          C      	JR	C,$+11	;D8A0
  D897*   CB 01          C      	RLC	C
  D899*   38 E0          C      	JR	C,$-30	;D87B
  D89B*   18 DD          C      	JR	$-33	;D87A
  D89D*   F1             C      	POP	AF
  D89E*   18 DB          C      	JR	$-35	;D87B
  D8A0*   D1             C      	POP	DE
  D8A1*   C1             C      	POP	BC
  D8A2*   E1             C      	POP	HL
  D8A3*   33             C      	INC	SP
  D8A4*   33             C      	INC	SP
  D8A5*   C9             C      	RET
                         C      ;
  D8A6*   DD CB 05 46    C      	BIT	0,(IX+05)
  D8AA*   20 FA          C      	JR	NZ,$-04	;D8A6
  D8AC*   CB 09          C      	RRC	C
  D8AE*   DD 71 06       C      	LD	(IX+06),C
  D8B1*   DD 7E 04       C      	LD	A,(IX+04)
  D8B4*   B7             C      	OR	A
  D8B5*   20 0C          C      	JR	NZ,$+14	;D8C3
  D8B7*   DD CB 05 4E    C      	BIT	1,(IX+05)
  D8BB*   28 37          C      	JR	Z,$+57	;D8F4
  D8BD*   DD CB 05 D6    C      	SET	2,(IX+05)
  D8C1*   18 DA          C      	JR	$-36	;D89D
  D8C3*   DD 7E 03       C      	LD	A,(IX+03)
  D8C6*   21 F539        C      	LD	HL,0F539H
  D8C9*   46             C      	LD	B,(HL)
  D8CA*   11 000D        C      	LD	DE,0000DH
  D8CD*   21 F53D        C      	LD	HL,0F53DH
  D8D0*   BE             C      	CP	(HL)
  D8D1*   28 07          C      	JR	Z,$+09	;D8DA
  D8D3*   23             C      	INC	HL
  D8D4*   2B             C      	DEC	HL
  D8D5*   19             C      	ADD	HL,DE
  D8D6*   10 F8          C      	DJNZ	$-06	;D8D0
  D8D8*   18 DD          C      	JR	$-33	;D8B7
  D8DA*   23             C      	INC	HL
  D8DB*   34             C      	INC	(HL)
  D8DC*   35             C      	DEC	(HL)
  D8DD*   28 F5          C      	JR	Z,$-09	;D8D4
  D8DF*   E5             C      	PUSH	HL
  D8E0*   C5             C      	PUSH	BC
  D8E1*   01 0004        C      	LD	BC,00004H
  D8E4*   ED 42          C      	SBC	HL,BC
  D8E6*   34             C      	INC	(HL)
  D8E7*   35             C      	DEC	(HL)
  D8E8*   C1             C      	POP	BC
  D8E9*   E1             C      	POP	HL
'SYS3 - MEOS1521 ---> MEOS-System'	MACRO-80 3.44	09-Dec-81	PAGE	1-95


  D8EA*   28 E8          C      	JR	Z,$-22	;D8D4
  D8EC*   23             C      	INC	HL
  D8ED*   CB 46          C      	BIT	0,(HL)
  D8EF*   2B             C      	DEC	HL
  D8F0*   28 E2          C      	JR	Z,$-28	;D8D4
  D8F2*   18 F8          C      	JR	$-06	;D8EC
  D8F4*   DD E5          C      	PUSH	IX
  D8F6*   2A F3C7        C      	LD	HL,(0F3C7H)
  D8F9*   23             C      	INC	HL
  D8FA*   23             C      	INC	HL
  D8FB*   7E             C      	LD	A,(HL)
  D8FC*   06 03          C      	LD	B,003H
  D8FE*   0F             C      	RRCA
  D8FF*   30 0A          C      	JR	NC,$+12	;D90B
  D901*   23             C      	INC	HL
  D902*   4E             C      	LD	C,(HL)
  D903*   DD 71 07       C      	LD	(IX+07),C
  D906*   23             C      	INC	HL
  D907*   4E             C      	LD	C,(HL)
  D908*   DD 71 08       C      	LD	(IX+08),C
  D90B*   DD 23          C      	INC	IX
  D90D*   DD 23          C      	INC	IX
  D90F*   10 ED          C      	DJNZ	$-17	;D8FE
  D911*   DD E1          C      	POP	IX
  D913*   DD CB 05 C6    C      	SET	0,(IX+05)
  D917*   DD CB 05 96    C      	RES	2,(IX+05)
  D91B*   DD CB 05 9E    C      	RES	3,(IX+05)
  D91F*   DD 66 02       C      	LD	H,(IX+02)
  D922*   DD 6E 01       C      	LD	L,(IX+01)
  D925*   F1             C      	POP	AF
  D926*   D1             C      	POP	DE
  D927*   C1             C      	POP	BC
  D928*   E3             C      	EX	(SP),HL
  D929*   C9             C      	RET
                         C      ;	-----
  D92A*   F5             C      	PUSH	AF
  D92B*   DD CB 05 86    C      	RES	0,(IX+05)
  D92F*   DD CB 05 4E    C      	BIT	1,(IX+05)
  D933*   20 04          C      	JR	NZ,$+06	;D939
  D935*   DD CB 05 96    C      	RES	2,(IX+05)
  D939*   F1             C      	POP	AF
  D93A*   DD E1          C      	POP	IX
  D93C*   FB             C      	EI
  D93D*   C9             C      	RET
                         C      ;	-----
  D93E*   32 F20A        C      	LD	(0F20AH),A
  D941*   3E C0          C      	LD	A,0C0H
  D943*   32 F209        C      	LD	(0F209H),A
  D946*   AF             C      	XOR	A
  D947*   32 F20B        C      	LD	(0F20BH),A
  D94A*   C3 F206        C      	JP	0F206H
                         C      ;	-----
  D94D*   32 F20A        C      	LD	(0F20AH),A
  D950*   3E A0          C      	LD	A,0A0H
  D952*   18 EF          C      	JR	$-15	;D943
                         C      ;	-----
  D954*   DD E5          C      	PUSH	IX
  D956*   CD D93E        C      	CALL	0D93EH
  D959*   30 0C          C      	JR	NC,$+14	;D967
  D95B*   DD 6E 07       C      	LD	L,(IX+07)
  D95E*   DD 66 08       C      	LD	H,(IX+08)
  D961*   DD 4E 09       C      	LD	C,(IX+09)
  D964*   DD 46 0A       C      	LD	B,(IX+10)
  D967*   DD E1          C      	POP	IX
  D969*   C9             C      	RET
                         C      ;	-----
  D96A*   E5             C      	PUSH	HL
  D96B*   C5             C      	PUSH	BC
  D96C*   D5             C      	PUSH	DE
  D96D*   57             C      	LD	D,A
  D96E*   CD D93E        C      	CALL	0D93EH
  D971*   7A             C      	LD	A,D
  D972*   30 16          C      	JR	NC,$+24	;D98A
  D974*   DD CB 05 46    C      	BIT	0,(IX+05)
  D978*   20 FA          C      	JR	NZ,$-04	;D974
  D97A*   CD D954        C      	CALL	0D954H
  D97D*   30 0B          C      	JR	NC,$+13	;D98A
  D97F*   D1             C      	POP	DE
  D980*   78             C      	LD	A,B
  D981*   B1             C      	OR	C
  D982*   37             C      	SCF
  D983*   28 06          C      	JR	Z,$+08	;D98B
  D985*   72             C      	LD	(HL),D
'SYS3 - MEOS1521 ---> MEOS-System'	MACRO-80 3.44	09-Dec-81	PAGE	1-96


  D986*   23             C      	INC	HL
  D987*   0B             C      	DEC	BC
  D988*   18 F6          C      	JR	$-08	;D980
  D98A*   D1             C      	POP	DE
  D98B*   C1             C      	POP	BC
  D98C*   E1             C      	POP	HL
  D98D*   C9             C      	RET
                         C      ;	-----
  D98E*   DD E5          C      	PUSH	IX
  D990*   CD D93E        C      	CALL	0D93EH
  D993*   30 08          C      	JR	NC,$+10	;D99D
  D995*   DD CB 05 8E    C      	RES	1,(IX+05)
  D999*   DD CB 05 A6    C      	RES	4,(IX+05)
  D99D*   DD E1          C      	POP	IX
  D99F*   C9             C      	RET
                         C      ;	-----
  D9A0*   CD D94D        C      	CALL	0D94DH
  D9A3*   C5             C      	PUSH	BC
  D9A4*   47             C      	LD	B,A
  D9A5*   E6 07          C      	AND	007H
  D9A7*   0F             C      	RRCA
  D9A8*   CB 7F          C      	BIT	7,A
  D9AA*   28 04          C      	JR	Z,$+06	;D9B0
  D9AC*   CB F7          C      	SET	6,A
  D9AE*   CB BF          C      	RES	7,A
  D9B0*   CB 4F          C      	BIT	1,A
  D9B2*   28 02          C      	JR	Z,$+04	;D9B6
  D9B4*   CB FF          C      	SET	7,A
  D9B6*   4F             C      	LD	C,A
  D9B7*   C5             C      	PUSH	BC
  D9B8*   F1             C      	POP	AF
  D9B9*   C1             C      	POP	BC
  D9BA*   C9             C      	RET
                         C      ;
                         C          PAGE
'SYS3 - MEOS1521 ---> MEOS-System'	MACRO-80 3.44	09-Dec-81	PAGE	1-97


                         C      
                         C      ;	-----
  D9BB*   C5             C      	PUSH	BC		;PN IT	Tastaturtreiber
  D9BC*   D5             C      	PUSH	DE
  D9BD*   E5             C      	PUSH	HL
  D9BE*   F5             C      	PUSH	AF
  D9BF*   DD 22 FBF3     C      	LD	(0FBF3H),IX
  D9C3*   21 FBF5        C      	LD	HL,0FBF5H
  D9C6*   CB 4E          C      	BIT	1,(HL)
  D9C8*   CC D9F2        C      	CALL	Z,0D9F2H
  D9CB*   C4 D9FA        C      	CALL	NZ,0D9FAH
  D9CE*   DD CB 06 5E    C      	BIT	3,(IX+06)
  D9D2*   28 17          C      	JR	Z,$+25	;D9EB
  D9D4*   DD 4E 03       C      	LD	C,(IX+03)
  D9D7*   3E 0D          C      	LD	A,00DH
  D9D9*   ED 79          C      	OUT	(C),A
  D9DB*   11 09C4        C      	LD	DE,009C4H
  D9DE*   06 00          C      	LD	B,000H
  D9E0*   10 FE          C      	DJNZ	$+00	;D9E0
  D9E2*   1B             C      	DEC	DE
  D9E3*   7A             C      	LD	A,D
  D9E4*   BB             C      	CP	E
  D9E5*   20 F7          C      	JR	NZ,$-07	;D9DE
  D9E7*   3E 07          C      	LD	A,007H
  D9E9*   ED 79          C      	OUT	(C),A
  D9EB*   F1             C      	POP	AF
  D9EC*   E1             C      	POP	HL
  D9ED*   D1             C      	POP	DE
  D9EE*   C1             C      	POP	BC
  D9EF*   DD E1          C      	POP	IX
  D9F1*   C9             C      	RET
                         C      ;	-----
  D9F2*   CB 8E          C      	RES	1,(HL)
  D9F4*   16 AF          C      	LD	D,0AFH
  D9F6*   1E 05          C      	LD	E,005H
  D9F8*   18 06          C      	JR	$+08	;DA00
  D9FA*   CB CE          C      	SET	1,(HL)
  D9FC*   16 A7          C      	LD	D,0A7H
  D9FE*   1E 0A          C      	LD	E,00AH
  DA00*   0E 83          C      	LD	C,083H
  DA02*   00             C      	NOP
  DA03*   ED 51          C      	OUT	(C),D
  DA05*   ED 59          C      	OUT	(C),E
  DA07*   11 DA0F        C      	LD	DE,0DA0FH
  DA0A*   ED 53 F7E6     C      	LD	(0F7E6H),DE
  DA0E*   C9             C      	RET
                         C      ;	-----
  DA0F*   DD E5          C      	PUSH	IX
  DA11*   08             C      	EX	AF,AF'
  DA12*   D9             C      	EXX
  DA13*   DD 2A FBF3     C      	LD	IX,(0FBF3H)
  DA17*   3E 03          C      	LD	A,003H
  DA19*   00             C      	NOP
  DA1A*   00             C      	NOP
  DA1B*   00             C      	NOP
  DA1C*   D3 83          C      	OUT	(083H),A
  DA1E*   21 FBF5        C      	LD	HL,0FBF5H
  DA21*   DD 4E 03       C      	LD	C,(IX+03)
  DA24*   ED 78          C      	IN	A,(C)
  DA26*   CB 4E          C      	BIT	1,(HL)
  DA28*   F5             C      	PUSH	AF
  DA29*   20 55          C      	JR	NZ,$+87	;DA80
  DA2B*   0C             C      	INC	C
  DA2C*   ED 78          C      	IN	A,(C)
  DA2E*   0D             C      	DEC	C
  DA2F*   CB 57          C      	BIT	2,A
  DA31*   28 0C          C      	JR	Z,$+14	;DA3F
  DA33*   F1             C      	POP	AF
  DA34*   FE 60          C      	CP	060H
  DA36*   30 06          C      	JR	NC,$+08	;DA3E
  DA38*   FE 40          C      	CP	040H
  DA3A*   38 02          C      	JR	C,$+04	;DA3E
  DA3C*   D6 40          C      	SUB	040H
  DA3E*   F5             C      	PUSH	AF
  DA3F*   F1             C      	POP	AF
  DA40*   F5             C      	PUSH	AF
  DA41*   E5             C      	PUSH	HL
  DA42*   C5             C      	PUSH	BC
  DA43*   21 DAAD        C      	LD	HL,0DAADH
  DA46*   01 0008        C      	LD	BC,00008H
  DA49*   ED B1          C      	CPIR
  DA4B*   20 0E          C      	JR	NZ,$+16	;DA5B
'SYS3 - MEOS1521 ---> MEOS-System'	MACRO-80 3.44	09-Dec-81	PAGE	1-98


  DA4D*   0C             C      	INC	C
  DA4E*   41             C      	LD	B,C
  DA4F*   AF             C      	XOR	A
  DA50*   37             C      	SCF
  DA51*   17             C      	RLA
  DA52*   10 FD          C      	DJNZ	$-01	;DA51
  DA54*   21 F295        C      	LD	HL,0F295H
  DA57*   B6             C      	OR	(HL)
  DA58*   32 F295        C      	LD	(0F295H),A
  DA5B*   C1             C      	POP	BC
  DA5C*   E1             C      	POP	HL
  DA5D*   F1             C      	POP	AF
  DA5E*   F5             C      	PUSH	AF
  DA5F*   DD CB 05 46    C      	BIT	0,(IX+05)
  DA63*   28 45          C      	JR	Z,$+71	;DAAA
  DA65*   DD 66 08       C      	LD	H,(IX+08)
  DA68*   DD 6E 07       C      	LD	L,(IX+07)
  DA6B*   77             C      	LD	(HL),A
  DA6C*   F1             C      	POP	AF
  DA6D*   F6 01          C      	OR	001H
  DA6F*   21 FBF5        C      	LD	HL,0FBF5H
  DA72*   CC D9F2        C      	CALL	Z,0D9F2H
  DA75*   C4 D9FA        C      	CALL	NZ,0D9FAH
  DA78*   D9             C      	EXX
  DA79*   08             C      	EX	AF,AF'
  DA7A*   CD DA94        C      	CALL	0DA94H
  DA7D*   C3 D92A        C      	JP	0D92AH
  DA80*   B7             C      	OR	A
  DA81*   28 1D          C      	JR	Z,$+31	;DAA0
  DA83*   3A FBF6        C      	LD	A,(0FBF6H)
  DA86*   3D             C      	DEC	A
  DA87*   32 FBF6        C      	LD	(0FBF6H),A
  DA8A*   28 0B          C      	JR	Z,$+13	;DA97
  DA8C*   CD D9FA        C      	CALL	0D9FAH
  DA8F*   F1             C      	POP	AF
  DA90*   D9             C      	EXX
  DA91*   08             C      	EX	AF,AF'
  DA92*   DD E1          C      	POP	IX
  DA94*   FB             C      	EI
  DA95*   ED 4D          C      	RETI
  DA97*   3E 64          C      	LD	A,064H
  DA99*   32 FBF6        C      	LD	(0FBF6H),A
  DA9C*   F1             C      	POP	AF
  DA9D*   F5             C      	PUSH	AF
  DA9E*   18 8B          C      	JR	$-115	;DA2B
  DAA0*   3E 00          C      	LD	A,000H
  DAA2*   32 FBF6        C      	LD	(0FBF6H),A
  DAA5*   CD D9F2        C      	CALL	0D9F2H
  DAA8*   18 E5          C      	JR	$-25	;DA8F
  DAAA*   F1             C      	POP	AF
  DAAB*   18 C2          C      	JR	$-60	;DA6F
  DAAD*   1F             C      	RRA
  DAAE*   13             C      	INC	DE
  DAAF*   12             C      	LD	(DE),A
  DAB0*   11 0F10        C      	LD	DE,00F10H
  DAB3*   05             C      	DEC	B
  DAB4*   03             C      	INC	BC
                         C      ;
                         C          PAGE
'SYS3 - MEOS1521 ---> MEOS-System'	MACRO-80 3.44	09-Dec-81	PAGE	1-99


                         C      
                         C      ;	-----	;RRET
  DAB5*   FD E3          C      	EX	(SP),IY		;PN Y1	Floppytreiber
  DAB7*   DD E5          C      	PUSH	IX
  DAB9*   E5             C      	PUSH	HL
  DABA*   D5             C      	PUSH	DE
  DABB*   C5             C      	PUSH	BC
  DABC*   FD E9          C      	JP	(IY)
                         C      ;	-----	;RLAD
  DABE*   FD E1          C      	POP	IY
  DAC0*   C1             C      	POP	BC
  DAC1*   D1             C      	POP	DE
  DAC2*   E1             C      	POP	HL
  DAC3*   DD E1          C      	POP	IX
  DAC5*   FD E3          C      	EX	(SP),IY
  DAC7*   C9             C      	RET
                         C      ;	-----
  DAC8*   22 F5F0        C      	LD	(0F5F0H),HL
  DACB*   2B             C      	DEC	HL
  DACC*   7E             C      	LD	A,(HL)
  DACD*   01 0081        C      	LD	BC,00081H
  DAD0*   09             C      	ADD	HL,BC
  DAD1*   11 F5E8        C      	LD	DE,0F5E8H
  DAD4*   12             C      	LD	(DE),A
  DAD5*   13             C      	INC	DE
  DAD6*   01 0005        C      	LD	BC,00005H
  DAD9*   ED B0          C      	LDIR
  DADB*   C9             C      	RET
  DADC*   2A F5F0        C      	LD	HL,(0F5F0H)
  DADF*   11 F5E8        C      	LD	DE,0F5E8H
  DAE2*   2B             C      	DEC	HL
  DAE3*   1A             C      	LD	A,(DE)
  DAE4*   77             C      	LD	(HL),A
  DAE5*   01 0081        C      	LD	BC,00081H
  DAE8*   09             C      	ADD	HL,BC
  DAE9*   EB             C      	EX	DE,HL
  DAEA*   23             C      	INC	HL
  DAEB*   18 E9          C      	JR	$-21	;DAD6
  DAED*   2A F5F0        C      	LD	HL,(0F5F0H)
  DAF0*   2B             C      	DEC	HL
  DAF1*   77             C      	LD	(HL),A
  DAF2*   01 0083        C      	LD	BC,00083H
  DAF5*   CD CA44        C      	CALL	0CA44H
  DAF8*   7A             C      	LD	A,D
  DAF9*   B3             C      	OR	E
  DAFA*   FD CB 00 B6    C      	RES	6,(IY+00)
  DAFE*   C9             C      	RET
  DAFF*   21 F5C9        C      	LD	HL,0F5C9H
  DB02*   36 FE          C      	LD	(HL),0FEH
  DB04*   E5             C      	PUSH	HL
  DB05*   23             C      	INC	HL
  DB06*   22 F5E4        C      	LD	(0F5E4H),HL
  DB09*   DD 7E 0B       C      	LD	A,(IX+11)
  DB0C*   77             C      	LD	(HL),A
  DB0D*   23             C      	INC	HL
  DB0E*   36 00          C      	LD	(HL),000H
  DB10*   23             C      	INC	HL
  DB11*   DD 7E 0C       C      	LD	A,(IX+12)
  DB14*   77             C      	LD	(HL),A
  DB15*   23             C      	INC	HL
  DB16*   36 00          C      	LD	(HL),000H
  DB18*   E1             C      	POP	HL
  DB19*   01 0005        C      	LD	BC,00005H
  DB1C*   CD CA44        C      	CALL	0CA44H
  DB1F*   43             C      	LD	B,E
  DB20*   4A             C      	LD	C,D
  DB21*   ED 43 F5EE     C      	LD	(0F5EEH),BC
  DB25*   C9             C      	RET
  DB26*   2A F5F0        C      	LD	HL,(0F5F0H)
  DB29*   32 F5DA        C      	LD	(0F5DAH),A
  DB2C*   2B             C      	DEC	HL
  DB2D*   77             C      	LD	(HL),A
  DB2E*   01 0081        C      	LD	BC,00081H
  DB31*   CD CA44        C      	CALL	0CA44H
  DB34*   72             C      	LD	(HL),D
  DB35*   23             C      	INC	HL
  DB36*   73             C      	LD	(HL),E
  DB37*   06 03          C      	LD	B,003H
  DB39*   23             C      	INC	HL
  DB3A*   36 FF          C      	LD	(HL),0FFH
  DB3C*   10 FB          C      	DJNZ	$-03	;DB39
  DB3E*   C9             C      	RET
'SYS3 - MEOS1521 ---> MEOS-System'	MACRO-80 3.44	09-Dec-81	PAGE	1-100


  DB3F*   ED 41          C      	OUT	(C),B
  DB41*   ED 4B F5D2     C      	LD	BC,(0F5D2H)
  DB45*   ED 41          C      	OUT	(C),B
  DB47*   FD 36 02 04    C      	LD	(IY+02),004H
  DB4B*   21 DE34        C      	LD	HL,0DE34H
  DB4E*   FD CB 00 86    C      	RES	0,(IY+00)
  DB52*   22 F7E4        C      	LD	(0F7E4H),HL
  DB55*   3E 33          C      	LD	A,033H
  DB57*   D3 82          C      	OUT	(082H),A
  DB59*   3E B7          C      	LD	A,0B7H
  DB5B*   D3 82          C      	OUT	(082H),A
  DB5D*   3E 64          C      	LD	A,064H
  DB5F*   D3 82          C      	OUT	(082H),A
  DB61*   FD CB 00 CE    C      	SET	1,(IY+00)
  DB65*   C9             C      	RET
                         C      ;
  DB66*   F5             C      	PUSH	AF
  DB67*   3E D8          C      	LD	A,0D8H
  DB69*   18 0D          C      	JR	$+15	;DB78
  DB6B*   F5             C      	PUSH	AF
  DB6C*   3E DC          C      	LD	A,0DCH
  DB6E*   18 08          C      	JR	$+10	;DB78
  DB70*   F5             C      	PUSH	AF
  DB71*   3E DA          C      	LD	A,0DAH
  DB73*   18 03          C      	JR	$+05	;DB78
  DB75*   F5             C      	PUSH	AF
  DB76*   3E DE          C      	LD	A,0DEH
  DB78*   CD DAB5        C      	CALL	0DAB5H
  DB7B*   21 7EFB        C      	LD	HL,07EFBH
  DB7E*   22 F5F2        C      	LD	(0F5F2H),HL
  DB81*   21 F5DA        C      	LD	HL,0F5DAH
  DB84*   36 FB          C      	LD	(HL),0FBH
  DB86*   FD 21 F5E0     C      	LD	IY,0F5E0H
  DB8A*   FD 36 00 00    C      	LD	(IY+00),000H
  DB8E*   FB             C      	EI
  DB8F*   21 DDBA        C      	LD	HL,0DDBAH
  DB92*   22 F7E8        C      	LD	(0F7E8H),HL
  DB95*   DD 22 F5E6     C      	LD	(0F5E6H),IX
  DB99*   FD 36 03 40    C      	LD	(IY+03),040H
  DB9D*   FD BE F3       C      	CP	(IY-13)
  DBA0*   28 12          C      	JR	Z,$+20	;DBB4
  DBA2*   FD CB 00 C6    C      	SET	0,(IY+00)
  DBA6*   FD 77 F3       C      	LD	(IY-13),A
  DBA9*   47             C      	LD	B,A
  DBAA*   CB B0          C      	RES	6,B
  DBAC*   FD 70 F1       C      	LD	(IY-15),B
  DBAF*   E6 67          C      	AND	067H
  DBB1*   FD 77 F5       C      	LD	(IY-11),A
  DBB4*   DD CB 06 56    C      	BIT	2,(IX+06)
  DBB8*   28 19          C      	JR	Z,$+27	;DBD3
  DBBA*   ED 4B F5D2     C      	LD	BC,(0F5D2H)
  DBBE*   ED 41          C      	OUT	(C),B
  DBC0*   ED 4B F5D6     C      	LD	BC,(0F5D6H)
  DBC4*   FD 36 01 50    C      	LD	(IY+01),050H
  DBC8*   C3 DC92        C      	JP	0DC92H
                         C      ;
  DBCB*   CD DABE        C      	CALL	0DABEH
  DBCE*   F1             C      	POP	AF
  DBCF*   DD E1          C      	POP	IX
  DBD1*   FB             C      	EI
  DBD2*   C9             C      	RET
                         C      ;
  DBD3*   DD 6E 07       C      	LD	L,(IX+07)
  DBD6*   DD 66 08       C      	LD	H,(IX+08)
  DBD9*   CD DAC8        C      	CALL	0DAC8H
  DBDC*   DD CB 06 46    C      	BIT	0,(IX+06)
  DBE0*   28 06          C      	JR	Z,$+08	;DBE8
  DBE2*   3A F5DA        C      	LD	A,(0F5DAH)
  DBE5*   CD DB26        C      	CALL	0DB26H
  DBE8*   FD CB 00 66    C      	BIT	4,(IY+00)
  DBEC*   20 1F          C      	JR	NZ,$+33	;DC0D
  DBEE*   CD DAFF        C      	CALL	0DAFFH
  DBF1*   21 F5CA        C      	LD	HL,0F5CAH
  DBF4*   22 F5E4        C      	LD	(0F5E4H),HL
  DBF7*   21 02FE        C      	LD	HL,002FEH
  DBFA*   22 F5DE        C      	LD	(0F5DEH),HL
  DBFD*   ED 4B F5D6     C      	LD	BC,(0F5D6H)
  DC01*   ED             C      	DB	0EDH	;!!! TEST (C)
  DC02*   70             C      	DB	070H
  DC03*   FC DB3F        C      	CALL	M,0DB3FH
  DC06*   FD CB 00 46    C      	BIT	0,(IY+00)
  DC0A*   C4 DB3F        C      	CALL	NZ,0DB3FH
  DC0D*   FD CB 00 4E    C      	BIT	1,(IY+00)
'SYS3 - MEOS1521 ---> MEOS-System'	MACRO-80 3.44	09-Dec-81	PAGE	1-101


  DC11*   C2 DBCB        C      	JP	NZ,0DBCBH
  DC14*   06 00          C      	LD	B,000H
  DC16*   21 DE58        C      	LD	HL,0DE58H
  DC19*   22 F7E2        C      	LD	(0F7E2H),HL
  DC1C*   F3             C      	DI
  DC1D*   3E B7          C      	LD	A,0B7H
  DC1F*   D3 81          C      	OUT	(081H),A
  DC21*   78             C      	LD	A,B
  DC22*   D3 81          C      	OUT	(081H),A
  DC24*   3E 83          C      	LD	A,083H
  DC26*   ED 4B F5D0     C      	LD	BC,(0F5D0H)
  DC2A*   0C             C      	INC	C
  DC2B*   0C             C      	INC	C
  DC2C*   ED 79          C      	OUT	(C),A
  DC2E*   21 DEC8        C      	LD	HL,0DEC8H
  DC31*   22 F7E8        C      	LD	(0F7E8H),HL
  DC34*   FB             C      	EI
  DC35*   21 DDBA        C      	LD	HL,0DDBAH
  DC38*   F3             C      	DI
  DC39*   22 F7E8        C      	LD	(0F7E8H),HL
  DC3C*   ED 4B F5D0     C      	LD	BC,(0F5D0H)
  DC40*   FD CB 00 BE    C      	RES	7,(IY+00)
  DC44*   3E 83          C      	LD	A,083H
  DC46*   ED 41          C      	OUT	(C),B
  DC48*   0C             C      	INC	C
  DC49*   0C             C      	INC	C
  DC4A*   ED 79          C      	OUT	(C),A
  DC4C*   FB             C      	EI
  DC4D*   76             C      	HALT
                         C      ;
  DC4E*   AF             C      	XOR	A
  DC4F*   FD BE 03       C      	CP	(IY+03)
  DC52*   F2 DDB1        C      	JP	P,0DDB1H
  DC55*   FD CB 00 7E    C      	BIT	7,(IY+00)
  DC59*   28 52          C      	JR	Z,$+84	;DCAD
  DC5B*   FD CB 00 BE    C      	RES	7,(IY+00)
  DC5F*   FD CB 00 66    C      	BIT	4,(IY+00)
  DC63*   C2 DD11        C      	JP	NZ,0DD11H
  DC66*   FD CB 00 6E    C      	BIT	5,(IY+00)
  DC6A*   FD CB 00 AE    C      	RES	5,(IY+00)
  DC6E*   20 A4          C      	JR	NZ,$-90	;DC14
  DC70*   ED 4B F5D6     C      	LD	BC,(0F5D6H)
  DC74*   2A F5CA        C      	LD	HL,(0F5CAH)
  DC77*   2C             C      	INC	L
  DC78*   3E 01          C      	LD	A,001H
  DC7A*   28 2D          C      	JR	Z,$+47	;DCA9
  DC7C*   2D             C      	DEC	L
  DC7D*   7D             C      	LD	A,L
  DC7E*   FE 4D          C      	CP	04DH
  DC80*   30 3F          C      	JR	NC,$+65	;DCC1
  DC82*   DD 96 0B       C      	SUB	(IX+11)
  DC85*   28 41          C      	JR	Z,$+67	;DCC8
  DC87*   CB 7F          C      	BIT	7,A
  DC89*   28 04          C      	JR	Z,$+06	;DC8F
  DC8B*   ED 44          C      	NEG
  DC8D*   CB A8          C      	RES	5,B
  DC8F*   32 F5E1        C      	LD	(0F5E1H),A
  DC92*   ED 41          C      	OUT	(C),B
  DC94*   CB B0          C      	RES	6,B
  DC96*   ED 41          C      	OUT	(C),B
  DC98*   CB F0          C      	SET	6,B
  DC9A*   ED 41          C      	OUT	(C),B
  DC9C*   FD 36 02 01    C      	LD	(IY+02),001H
  DCA0*   21 DE71        C      	LD	HL,0DE71H
  DCA3*   CD DB52        C      	CALL	0DB52H
  DCA6*   C3 DBCB        C      	JP	0DBCBH
                         C      ;
  DCA9*   ED 40          C      	IN	B,(C)
  DCAB*   18 E2          C      	JR	$-28	;DC8F
  DCAD*   CD DEE4        C      	CALL	0DEE4H
  DCB0*   FD CB 00 5E    C      	BIT	3,(IY+00)
  DCB4*   C2 DBCB        C      	JP	NZ,0DBCBH
  DCB7*   FD CB 00 66    C      	BIT	4,(IY+00)
  DCBB*   28 07          C      	JR	Z,$+09	;DCC4
  DCBD*   FD CB 00 A6    C      	RES	4,(IY+00)
  DCC1*   FD 35 03       C      	DEC	(IY+03)
  DCC4*   FB             C      	EI
  DCC5*   C3 DBF1        C      	JP	0DBF1H
                         C      ;
  DCC8*   FD 35 02       C      	DEC	(IY+02)
  DCCB*   20 07          C      	JR	NZ,$+09	;DCD4
  DCCD*   FD 35 03       C      	DEC	(IY+03)
  DCD0*   FD 36 02 1A    C      	LD	(IY+02),01AH
'SYS3 - MEOS1521 ---> MEOS-System'	MACRO-80 3.44	09-Dec-81	PAGE	1-102


  DCD4*   2A F5EE        C      	LD	HL,(0F5EEH)
  DCD7*   ED 5B F5CE     C      	LD	DE,(0F5CEH)
  DCDB*   ED 52          C      	SBC	HL,DE
  DCDD*   C2 DC14        C      	JP	NZ,0DC14H
  DCE0*   FD CB 00 E6    C      	SET	4,(IY+00)
  DCE4*   2A F5F2        C      	LD	HL,(0F5F2H)
  DCE7*   22 F5DE        C      	LD	(0F5DEH),HL
  DCEA*   2A F5F0        C      	LD	HL,(0F5F0H)
  DCED*   22 F5E4        C      	LD	(0F5E4H),HL
  DCF0*   DD CB 06 46    C      	BIT	0,(IX+06)
  DCF4*   06 14          C      	LD	B,014H
  DCF6*   21 DEC1        C      	LD	HL,0DEC1H
  DCF9*   CA DC19        C      	JP	Z,0DC19H
  DCFC*   FD CB 00 76    C      	BIT	6,(IY+00)
  DD00*   C2 DC16        C      	JP	NZ,0DC16H
  DD03*   FD CB F1 F6    C      	SET	6,(IY-15)
  DD07*   FD CB F1 BE    C      	RES	7,(IY-15)
  DD0B*   CD DDF7        C      	CALL	0DDF7H
  DD0E*   C3 DC4E        C      	JP	0DC4EH
                         C      ;
  DD11*   FD CB F1 B6    C      	RES	6,(IY-15)
  DD15*   FD CB F1 FE    C      	SET	7,(IY-15)
  DD19*   FD CB 00 A6    C      	RES	4,(IY+00)
  DD1D*   DD CB 06 46    C      	BIT	0,(IX+06)
  DD21*   28 16          C      	JR	Z,$+24	;DD39
  DD23*   FD CB 00 76    C      	BIT	6,(IY+00)
  DD27*   20 10          C      	JR	NZ,$+18	;DD39
  DD29*   FD CB 00 F6    C      	SET	6,(IY+00)
  DD2D*   CD DADC        C      	CALL	0DADCH
  DD30*   21 F91D        C      	LD	HL,0F91DH
  DD33*   CD DAC8        C      	CALL	0DAC8H
  DD36*   C3 DBE8        C      	JP	0DBE8H
                         C      ;
  DD39*   3A F5DA        C      	LD	A,(0F5DAH)
  DD3C*   CD DAED        C      	CALL	0DAEDH
  DD3F*   CD DADC        C      	CALL	0DADCH
  DD42*   C2 DD90        C      	JP	NZ,0DD90H
  DD45*   DD 4E 06       C      	LD	C,(IX+06)
  DD48*   CB 59          C      	BIT	3,C
  DD4A*   20 2E          C      	JR	NZ,$+48	;DD7A
  DD4C*   DD 46 0C       C      	LD	B,(IX+12)
  DD4F*   04             C      	INC	B
  DD50*   78             C      	LD	A,B
  DD51*   FE 1B          C      	CP	01BH
  DD53*   20 05          C      	JR	NZ,$+07	;DD5A
  DD55*   DD 34 0B       C      	INC	(IX+11)
  DD58*   06 01          C      	LD	B,001H
  DD5A*   DD 70 0C       C      	LD	(IX+12),B
  DD5D*   3E 49          C      	LD	A,049H
  DD5F*   DD BE 0B       C      	CP	(IX+11)
  DD62*   20 0B          C      	JR	NZ,$+13	;DD6F
  DD64*   3E 1A          C      	LD	A,01AH
  DD66*   DD BE 0C       C      	CP	(IX+12)
  DD69*   20 0F          C      	JR	NZ,$+17	;DD7A
  DD6B*   3E 30          C      	LD	A,030H
  DD6D*   18 29          C      	JR	$+43	;DD98
  DD6F*   3E 4A          C      	LD	A,04AH
  DD71*   DD BE 0B       C      	CP	(IX+11)
  DD74*   20 04          C      	JR	NZ,$+06	;DD7A
  DD76*   3E 42          C      	LD	A,042H
  DD78*   18 1E          C      	JR	$+32	;DD98
  DD7A*   AF             C      	XOR	A
  DD7B*   DD CB 06 46    C      	BIT	0,(IX+06)
  DD7F*   28 17          C      	JR	Z,$+25	;DD98
  DD81*   AF             C      	XOR	A
  DD82*   DD 6E 07       C      	LD	L,(IX+07)
  DD85*   DD 66 08       C      	LD	H,(IX+08)
  DD88*   06 80          C      	LD	B,080H
  DD8A*   77             C      	LD	(HL),A
  DD8B*   23             C      	INC	HL
  DD8C*   10 FC          C      	DJNZ	$-02	;DD8A
  DD8E*   18 EF          C      	JR	$-15	;DD7F
  DD90*   3E 22          C      	LD	A,022H
  DD92*   FD 35 03       C      	DEC	(IY+03)
  DD95*   C2 DBD3        C      	JP	NZ,0DBD3H
                         C      ;
  DD98*   DD 77 05       C      	LD	(IX+05),A
  DD9B*   21 DECB        C      	LD	HL,0DECBH
  DD9E*   FD 36 02 64    C      	LD	(IY+02),064H
  DDA2*   CD DB52        C      	CALL	0DB52H
  DDA5*   CD DABE        C      	CALL	0DABEH
  DDA8*   F1             C      	POP	AF
  DDA9*   DD 2A F5E6     C      	LD	IX,(0F5E6H)
'SYS3 - MEOS1521 ---> MEOS-System'	MACRO-80 3.44	09-Dec-81	PAGE	1-103


  DDAD*   FB             C      	EI
  DDAE*   C3 D92A        C      	JP	0D92AH
                         C      ;
  DDB1*   CD DEE4        C      	CALL	0DEE4H
  DDB4*   D3 82          C      	OUT	(082H),A
  DDB6*   3E 72          C      	LD	A,072H
  DDB8*   18 DE          C      	JR	$-32	;DD98
  DDBA*   D9             C      	EXX
  DDBB*   08             C      	EX	AF,AF'
  DDBC*   ED 4B F5DC     C      	LD	BC,(0F5DCH)
  DDC0*   ED 78          C      	IN	A,(C)
  DDC2*   2A F5E4        C      	LD	HL,(0F5E4H)
  DDC5*   ED 5B F5DE     C      	LD	DE,(0F5DEH)
  DDC9*   ED A2          C      	INI
  DDCB*   20 F8          C      	JR	NZ,$-06	;DDC5
  DDCD*   BB             C      	CP	E
  DDCE*   C2 DDD8        C      	JP	NZ,0DDD8H
  DDD1*   42             C      	LD	B,D
  DDD2*   00             C      	NOP
  DDD3*   00             C      	NOP
  DDD4*   ED A2          C      	INI
  DDD6*   20 FA          C      	JR	NZ,$-04	;DDD2
  DDD8*   ED 4B F5D2     C      	LD	BC,(0F5D2H)
  DDDC*   ED 41          C      	OUT	(C),B
  DDDE*   CD DEEA        C      	CALL	0DEEAH
  DDE1*   21 F5E0        C      	LD	HL,0F5E0H
  DDE4*   CB FE          C      	SET	7,(HL)
  DDE6*   28 0B          C      	JR	Z,$+13	;DDF3
  DDE8*   1E F8          C      	LD	E,0F8H
  DDEA*   BB             C      	CP	E
  DDEB*   20 04          C      	JR	NZ,$+06	;DDF1
  DDED*   CB EE          C      	SET	5,(HL)
  DDEF*   18 02          C      	JR	$+04	;DDF3
  DDF1*   CB BE          C      	RES	7,(HL)
  DDF3*   D9             C      	EXX
  DDF4*   08             C      	EX	AF,AF'
  DDF5*   ED 4D          C      	RETI
                         C      ;
  DDF7*   D9             C      	EXX
  DDF8*   08             C      	EX	AF,AF'
  DDF9*   ED 4B F5D8     C      	LD	BC,(0F5D8H)
  DDFD*   AF             C      	XOR	A
  DDFE*   ED 79          C      	OUT	(C),A
  DE00*   ED 4B F5D0     C      	LD	BC,(0F5D0H)
  DE04*   ED 41          C      	OUT	(C),B
  DE06*   ED 4B F5D8     C      	LD	BC,(0F5D8H)
  DE0A*   2A F5E4        C      	LD	HL,(0F5E4H)
  DE0D*   ED 79          C      	OUT	(C),A
  DE0F*   ED 5B F5DA     C      	LD	DE,(0F5DAH)
  DE13*   10 F5          C      	DJNZ	$-09	;DE0A
  DE15*   ED 59          C      	OUT	(C),E
  DE17*   59             C      	LD	E,C
  DE18*   ED 4B F5D4     C      	LD	BC,(0F5D4H)
  DE1C*   ED 41          C      	OUT	(C),B
  DE1E*   4B             C      	LD	C,E
  DE1F*   ED A3          C      	OUTI
  DE21*   ED 4B F5D0     C      	LD	BC,(0F5D0H)
  DE25*   ED 41          C      	OUT	(C),B
  DE27*   42             C      	LD	B,D
  DE28*   4B             C      	LD	C,E
  DE29*   ED A3          C      	OUTI
  DE2B*   20 FB          C      	JR	NZ,$-03	;DE28
  DE2D*   06 03          C      	LD	B,003H
  DE2F*   10 FE          C      	DJNZ	$+00	;DE2F
  DE31*   C3 DDD8        C      	JP	0DDD8H
  DE34*   DD E5          C      	PUSH	IX
  DE36*   F5             C      	PUSH	AF
  DE37*   CD DAB5        C      	CALL	0DAB5H
  DE3A*   CD DE4E        C      	CALL	0DE4EH
  DE3D*   FD 35 02       C      	DEC	(IY+02)
  DE40*   C2 DBCB        C      	JP	NZ,0DBCBH
  DE43*   3E 33          C      	LD	A,033H
  DE45*   D3 82          C      	OUT	(082H),A
  DE47*   FD CB 00 8E    C      	RES	1,(IY+00)
  DE4B*   C3 DC14        C      	JP	0DC14H
  DE4E*   DD 2A F5E6     C      	LD	IX,(0F5E6H)
  DE52*   FD 21 F5E0     C      	LD	IY,0F5E0H
  DE56*   ED 4D          C      	RETI
                         C      ;
  DE58*   DD E5          C      	PUSH	IX
  DE5A*   F5             C      	PUSH	AF
  DE5B*   CD DAB5        C      	CALL	0DAB5H
  DE5E*   CD DEE4        C      	CALL	0DEE4H
'SYS3 - MEOS1521 ---> MEOS-System'	MACRO-80 3.44	09-Dec-81	PAGE	1-104


  DE61*   CD DE4E        C      	CALL	0DE4EH
  DE64*   3E 02          C      	LD	A,002H
  DE66*   FD CB 00 DE    C      	SET	3,(IY+00)
  DE6A*   FD 35 03       C      	DEC	(IY+03)
  DE6D*   0D             C      	DEC	C
  DE6E*   C3 DCA9        C      	JP	0DCA9H
                         C      ;
  DE71*   DD E5          C      	PUSH	IX
  DE73*   F5             C      	PUSH	AF
  DE74*   3E 33          C      	LD	A,033H
  DE76*   D3 82          C      	OUT	(082H),A
  DE78*   CD DAB5        C      	CALL	0DAB5H
  DE7B*   CD DE4E        C      	CALL	0DE4EH
  DE7E*   FD 4E F6       C      	LD	C,(IY-10)
  DE81*   ED 40          C      	IN	B,(C)
  DE83*   DD CB 06 56    C      	BIT	2,(IX+06)
  DE87*   20 23          C      	JR	NZ,$+37	;DEAC
  DE89*   FD 35 01       C      	DEC	(IY+01)
  DE8C*   FD CB 00 8E    C      	RES	1,(IY+00)
  DE90*   C2 DC92        C      	JP	NZ,0DC92H
  DE93*   FD CB 00 5E    C      	BIT	3,(IY+00)
  DE97*   CA DBFD        C      	JP	Z,0DBFDH
  DE9A*   FD CB 00 9E    C      	RES	3,(IY+00)
  DE9E*   FD 34 01       C      	INC	(IY+01)
  DEA1*   CB 68          C      	BIT	5,B
  DEA3*   CB E8          C      	SET	5,B
  DEA5*   CA DC92        C      	JP	Z,0DC92H
  DEA8*   CB A8          C      	RES	5,B
  DEAA*   18 E4          C      	JR	$-26	;DE90
  DEAC*   FD 35 01       C      	DEC	(IY+01)
  DEAF*   CA DEF5        C      	JP	Z,0DEF5H
  DEB2*   CB 50          C      	BIT	2,B
  DEB4*   C2 DC92        C      	JP	NZ,0DC92H
  DEB7*   DD CB 06 56    C      	BIT	2,(IX+06)
  DEBB*   C2 DEF5        C      	JP	NZ,0DEF5H
  DEBE*   C3 DD7A        C      	JP	0DD7AH
  DEC1*   F5             C      	PUSH	AF
  DEC2*   C5             C      	PUSH	BC
  DEC3*   CD DEE4        C      	CALL	0DEE4H
  DEC6*   C1             C      	POP	BC
  DEC7*   F1             C      	POP	AF
  DEC8*   FB             C      	EI
  DEC9*   ED 4D          C      	RETI
                         C      ;
  DECB*   D9             C      	EXX
  DECC*   08             C      	EX	AF,AF'
  DECD*   21 F5E2        C      	LD	HL,0F5E2H
  DED0*   35             C      	DEC	(HL)
  DED1*   C2 DEE0        C      	JP	NZ,0DEE0H
  DED4*   ED 4B F5D6     C      	LD	BC,(0F5D6H)
  DED8*   CB F8          C      	SET	7,B
  DEDA*   ED 41          C      	OUT	(C),B
  DEDC*   3E 33          C      	LD	A,033H
  DEDE*   D3 82          C      	OUT	(082H),A
  DEE0*   D9             C      	EXX
  DEE1*   08             C      	EX	AF,AF'
  DEE2*   18 E4          C      	JR	$-26	;DEC8
  DEE4*   ED 4B F5D2     C      	LD	BC,(0F5D2H)
  DEE8*   ED 41          C      	OUT	(C),B
  DEEA*   03             C      	INC	BC
  DEEB*   03             C      	INC	BC
  DEEC*   F5             C      	PUSH	AF
  DEED*   3E 03          C      	LD	A,003H
  DEEF*   ED 79          C      	OUT	(C),A
  DEF1*   D3 81          C      	OUT	(081H),A
  DEF3*   F1             C      	POP	AF
  DEF4*   C9             C      	RET
                         C      ;
  DEF5*   FB             C      	EI
  DEF6*   06 00          C      	LD	B,000H
  DEF8*   3E 08          C      	LD	A,008H
  DEFA*   32 F5C9        C      	LD	(0F5C9H),A
  DEFD*   2E FF          C      	LD	L,0FFH
  DEFF*   11 DF7B        C      	LD	DE,0DF7BH
  DF02*   CD DF6E        C      	CALL	0DF6EH
  DF05*   DD 4E 04       C      	LD	C,(IX+04)
  DF08*   0C             C      	INC	C
  DF09*   ED 78          C      	IN	A,(C)
  DF0B*   CB 5F          C      	BIT	3,A
  DF0D*   28 5B          C      	JR	Z,$+93	;DF6A
  DF0F*   CB C8          C      	SET	1,B
  DF11*   CB 40          C      	BIT	0,B
  DF13*   28 F4          C      	JR	Z,$-10	;DF09
'SYS3 - MEOS1521 ---> MEOS-System'	MACRO-80 3.44	09-Dec-81	PAGE	1-105


  DF15*   CB 48          C      	BIT	1,B
  DF17*   CA DF9E        C      	JP	Z,0DF9EH
  DF1A*   CB 50          C      	BIT	2,B
  DF1C*   CA DF9E        C      	JP	Z,0DF9EH
  DF1F*   ED 78          C      	IN	A,(C)
  DF21*   CB 5F          C      	BIT	3,A
  DF23*   20 FA          C      	JR	NZ,$-04	;DF1F
  DF25*   3E 01          C      	LD	A,001H
  DF27*   32 F5C9        C      	LD	(0F5C9H),A
  DF2A*   2E 1C          C      	LD	L,01CH
  DF2C*   11 DF8C        C      	LD	DE,0DF8CH
  DF2F*   CD DF6E        C      	CALL	0DF6EH
  DF32*   76             C      	HALT
                         C      ;
  DF33*   CB 80          C      	RES	0,B
  DF35*   3E 08          C      	LD	A,008H
  DF37*   32 F5C9        C      	LD	(0F5C9H),A
  DF3A*   2E BE          C      	LD	L,0BEH
  DF3C*   11 DF7B        C      	LD	DE,0DF7BH
  DF3F*   CD DF6E        C      	CALL	0DF6EH
  DF42*   ED 78          C      	IN	A,(C)
  DF44*   CB 5F          C      	BIT	3,A
  DF46*   CA DF9E        C      	JP	Z,0DF9EH
  DF49*   CB 40          C      	BIT	0,B
  DF4B*   28 F5          C      	JR	Z,$-09	;DF42
  DF4D*   CB 80          C      	RES	0,B
  DF4F*   3E 01          C      	LD	A,001H
  DF51*   32 F5C9        C      	LD	(0F5C9H),A
  DF54*   2E 61          C      	LD	L,061H
  DF56*   11 DF7B        C      	LD	DE,0DF7BH
  DF59*   CD DF6E        C      	CALL	0DF6EH
  DF5C*   ED 78          C      	IN	A,(C)
  DF5E*   CB 5F          C      	BIT	3,A
  DF60*   CA DF8F        C      	JP	Z,0DF8FH
  DF63*   CB 40          C      	BIT	0,B
  DF65*   28 F5          C      	JR	Z,$-09	;DF5C
  DF67*   C3 DF9E        C      	JP	0DF9EH
  DF6A*   CB D0          C      	SET	2,B
  DF6C*   18 A3          C      	JR	$-91	;DF11
  DF6E*   26 A5          C      	LD	H,0A5H
  DF70*   ED 53 F7E2     C      	LD	(0F7E2H),DE
  DF74*   7C             C      	LD	A,H
  DF75*   D3 81          C      	OUT	(081H),A
  DF77*   7D             C      	LD	A,L
  DF78*   D3 81          C      	OUT	(081H),A
  DF7A*   C9             C      	RET
  DF7B*   F5             C      	PUSH	AF
  DF7C*   21 F5C9        C      	LD	HL,0F5C9H
  DF7F*   35             C      	DEC	(HL)
  DF80*   20 06          C      	JR	NZ,$+08	;DF88
  DF82*   CB C0          C      	SET	0,B
  DF84*   3E 03          C      	LD	A,003H
  DF86*   D3 81          C      	OUT	(081H),A
  DF88*   FB             C      	EI
  DF89*   F1             C      	POP	AF
  DF8A*   ED 4D          C      	RETI
                         C      ;
  DF8C*   F5             C      	PUSH	AF
  DF8D*   18 F5          C      	JR	$-09	;DF84
  DF8F*   3E 03          C      	LD	A,003H
  DF91*   D3 81          C      	OUT	(081H),A
  DF93*   AF             C      	XOR	A
  DF94*   DD CB 06 4E    C      	BIT	1,(IX+06)
  DF98*   C2 0700        C      	JP	NZ,00700H
  DF9B*   C3 DD7A        C      	JP	0DD7AH
  DF9E*   3E 03          C      	LD	A,003H
  DFA0*   D3 81          C      	OUT	(081H),A
  DFA2*   3E 62          C      	LD	A,062H
  DFA4*   C3 DD98        C      	JP	0DD98H
                         C      ;
  DFA7*                  C      ENDE2 EQU $
                                
                         C      	INCLUDE	incVERB.MAC
                         C      	TITLE	'SYS3 - MEOS1521 ---> Verbindungen'
                         C      	PAGE
'SYS3 - MEOS1521 ---> Verbindungen'	MACRO-80 3.44	09-Dec-81	PAGE	1-106


                         C      
                         C      ;====================================================
                         C      	ORG	0E796H
                         C      ;====================================================
  E796*   C3 CBE7        C      	JP	0CBE7H		;PN ZE	Verbindungsadressen
  E799*   C3 CC6D        C      	JP	0CC6DH
  E79C*   C3 CEA1        C      	JP	0CEA1H
  E79F*   C3 CEB1        C      	JP	0CEB1H
  E7A2*   C3 CD21        C      	JP	0CD21H
  E7A5*   C3 DFA7        C      	JP	0DFA7H
  E7A8*   C3 E533        C      	JP	0E533H
  E7AB*   C3 E5EB        C      	JP	0E5EBH
  E7AE*   04             C      	INC	B
  E7AF*   F6 1E          C      	OR	01EH
  E7B1*   01 21E5        C      	LD	BC,021E5H
  E7B4*   AC             C      	XOR	H
  E7B5*   F9             C      	LD	SP,HL
  E7B6*   18 06          C      	JR	$+08	;E7BE
  E7B8*   1E 02          C      	LD	E,002H
  E7BA*   E5             C      	PUSH	HL
  E7BB*   21 FA4C        C      	LD	HL,0FA4CH
  E7BE*   22 F9AA        C      	LD	(0F9AAH),HL
  E7C1*   E1             C      	POP	HL
  E7C2*   FD E5          C      	PUSH	IY
  E7C4*   DD E5          C      	PUSH	IX
  E7C6*   DD 21 F99D     C      	LD	IX,0F99DH
  E7CA*   DD 73 03       C      	LD	(IX+03),E
  E7CD*   E5             C      	PUSH	HL
  E7CE*   C5             C      	PUSH	BC
  E7CF*   21 E83F        C      	LD	HL,0E83FH
  E7D2*   46             C      	LD	B,(HL)
  E7D3*   23             C      	INC	HL
  E7D4*   BE             C      	CP	(HL)
  E7D5*   23             C      	INC	HL
  E7D6*   28 07          C      	JR	Z,$+09	;E7DF
  E7D8*   23             C      	INC	HL
  E7D9*   10 F8          C      	DJNZ	$-06	;E7D3
  E7DB*   3E 01          C      	LD	A,001H
  E7DD*   18 11          C      	JR	$+19	;E7F0
  E7DF*   4E             C      	LD	C,(HL)
  E7E0*   23             C      	INC	HL
  E7E1*   46             C      	LD	B,(HL)
  E7E2*   ED 43 FAEC     C      	LD	(0FAECH),BC
  E7E6*   C1             C      	POP	BC
  E7E7*   E1             C      	POP	HL
  E7E8*   E5             C      	PUSH	HL
  E7E9*   C5             C      	PUSH	BC
  E7EA*   E5             C      	PUSH	HL
  E7EB*   2A FAEC        C      	LD	HL,(0FAECH)
  E7EE*   E3             C      	EX	(SP),HL
  E7EF*   C9             C      	RET
  E7F0*   4F             C      	LD	C,A
  E7F1*   06 00          C      	LD	B,000H
  E7F3*   CB 21          C      	SLA	C
  E7F5*   CB 10          C      	RL	B
  E7F7*   21 E7FC        C      	LD	HL,0E7FCH
  E7FA*   09             C      	ADD	HL,BC
  E7FB*   E9             C      	JP	(HL)
                         C      ;
  E7FC*   18 13          C      	JR	$+21	;E811
  E7FE*   18 11          C      	JR	$+19	;E811
  E800*   02             C      	LD	(BC),A
  E801*   F8             C      	RET	M
  E802*   18 0D          C      	JR	$+15	;E811
  E804*   18 14          C      	JR	$+22	;E81A
  E806*   18 15          C      	JR	$+23	;E81D
  E808*   18 29          C      	JR	$+43	;E833
  E80A*   18 30          C      	JR	$+50	;E83C
  E80C*   F5             C      	PUSH	AF
  E80D*   CD E9F8        C      	CALL	0E9F8H
  E810*   F1             C      	POP	AF
  E811*   C1             C      	POP	BC
  E812*   E1             C      	POP	HL
  E813*   DD E1          C      	POP	IX
  E815*   FD E1          C      	POP	IY
  E817*   C3 E796        C      	JP	0E796H
  E81A*   3C             C      	INC	A
  E81B*   18 F4          C      	JR	$-10	;E811
  E81D*   3E 12          C      	LD	A,012H
  E81F*   CD E799        C      	CALL	0E799H
  E822*   ED 4B FAEE     C      	LD	BC,(0FAEEH)
  E826*   ED 5B FAF0     C      	LD	DE,(0FAF0H)
'SYS3 - MEOS1521 ---> Verbindungen'	MACRO-80 3.44	09-Dec-81	PAGE	1-107


  E82A*   2A FAF2        C      	LD	HL,(0FAF2H)
  E82D*   C0             C      	RET	NZ
  E82E*   C1             C      	POP	BC
  E82F*   3E 01          C      	LD	A,001H
  E831*   18 DE          C      	JR	$-32	;E811
  E833*   3E 44          C      	LD	A,044H
  E835*   CD E799        C      	CALL	0E799H
  E838*   3E 01          C      	LD	A,001H
  E83A*   18 D5          C      	JR	$-41	;E811
  E83C*   7A             C      	LD	A,D
  E83D*   18 D2          C      	JR	$-44	;E811
  E83F*   0B             C      	DEC	BC
  E840*   00             C      	NOP
  E841*   94             C      	SUB	H
  E842*   EE 01          C      	XOR	001H
  E844*   BC             C      	CP	H
  E845*   EE 02          C      	XOR	002H
  E847*   44             C      	LD	B,H
  E848*   EB             C      	EX	DE,HL
  E849*   03             C      	INC	BC
  E84A*   EBDD           C      	DW	0EBDDH	;	EX	DE,IX
                         C      ;
                         C          PAGE
'SYS3 - MEOS1521 ---> Verbindungen'	MACRO-80 3.44	09-Dec-81	PAGE	1-108


                         C      
                         C      ;	-----
  E84C*   04             C      	INC	B		;PN ZX	Kassettenhandler Tabellen
  E84D*   9B             C      	SBC	A,E
  E84E*   EC A605        C      	CALL	PE,0A605H
  E851*   EC EA06        C      	CALL	PE,0EA06H
  E854*   EE 0C          C      	XOR	00CH
  E856*   AC             C      	XOR	H
  E857*   ED             C      	DB	0EDH
  E858*   0D             C      	DEC	C
  E859*   FA 0EED        C      	JP	M,00EEDH
  E85C*   4C             C      	LD	C,H
  E85D*   EE FF          C      	XOR	0FFH
  E85F*   14             C      	INC	D
  E860*   EF             C      	RST	28H
  E861*   06 06          C      	LD	B,006H
  E863*   CD E980        C      	CALL	0E980H
  E866*   3E 02          C      	LD	A,002H
  E868*   CD E992        C      	CALL	0E992H
  E86B*   C8             C      	RET	Z
  E86C*   10 F8          C      	DJNZ	$-06	;E866
  E86E*   C9             C      	RET
  E86F*   C5             C      	PUSH	BC
  E870*   0E 08          C      	LD	C,008H
  E872*   C3 E88D        C      	JP	0E88DH
  E875*   F3             C      	DI
  E876*   D3 FC          C      	OUT	(0FCH),A
  E878*   1A             C      	LD	A,(DE)
  E879*   FB             C      	EI
  E87A*   C9             C      	RET
  E87B*   F3             C      	DI
  E87C*   D3 FC          C      	OUT	(0FCH),A
  E87E*   70             C      	LD	(HL),B
  E87F*   FB             C      	EI
  E880*   C9             C      	RET
  E881*   F3             C      	DI
  E882*   D3 FC          C      	OUT	(0FCH),A
  E884*   7E             C      	LD	A,(HL)
  E885*   FB             C      	EI
  E886*   C9             C      	RET
  E887*   F3             C      	DI
  E888*   D3 FC          C      	OUT	(0FCH),A
  E88A*   0A             C      	LD	A,(BC)
  E88B*   FB             C      	EI
  E88C*   C9             C      	RET
  E88D*   CD E861        C      	CALL	0E861H
  E890*   28 07          C      	JR	Z,$+09	;E899
  E892*   CD E89E        C      	CALL	0E89EH
  E895*   38 02          C      	JR	C,$+04	;E899
  E897*   C1             C      	POP	BC
  E898*   C9             C      	RET
  E899*   0D             C      	DEC	C
  E89A*   20 F1          C      	JR	NZ,$-13	;E88D
  E89C*   C1             C      	POP	BC
  E89D*   C9             C      	RET
  E89E*   CD E8D3        C      	CALL	0E8D3H
  E8A1*   D8             C      	RET	C
  E8A2*   CD EA01        C      	CALL	0EA01H
  E8A5*   C9             C      	RET
                         C      ;
  E8A6*   CD E89E        C      	CALL	0E89EH
  E8A9*   C5             C      	PUSH	BC
  E8AA*   E5             C      	PUSH	HL
  E8AB*   38 09          C      	JR	C,$+11	;E8B6
  E8AD*   FD 46 03       C      	LD	B,(IY+03)
  E8B0*   CD EAF3        C      	CALL	0EAF3H
  E8B3*   08             C      	EX	AF,AF'
  E8B4*   10 05          C      	DJNZ	$+07	;E8BB
  E8B6*   3E 02          C      	LD	A,002H
  E8B8*   37             C      	SCF
  E8B9*   18 15          C      	JR	$+23	;E8D0
  E8BB*   CD E8D3        C      	CALL	0E8D3H
  E8BE*   38 F6          C      	JR	C,$-08	;E8B6
  E8C0*   7E             C      	LD	A,(HL)
  E8C1*   FD BE 06       C      	CP	(IY+06)
  E8C4*   20 EE          C      	JR	NZ,$-16	;E8B4
  E8C6*   FD E5          C      	PUSH	IY
  E8C8*   D1             C      	POP	DE
  E8C9*   E3             C      	EX	(SP),HL
  E8CA*   CD E9C7        C      	CALL	0E9C7H
  E8CD*   E3             C      	EX	(SP),HL
  E8CE*   38 E4          C      	JR	C,$-26	;E8B4
'SYS3 - MEOS1521 ---> Verbindungen'	MACRO-80 3.44	09-Dec-81	PAGE	1-109


  E8D0*   E1             C      	POP	HL
  E8D1*   C1             C      	POP	BC
  E8D2*   C9             C      	RET
                         C      ;
  E8D3*   D5             C      	PUSH	DE
  E8D4*   CD E903        C      	CALL	0E903H
  E8D7*   28 15          C      	JR	Z,$+23	;E8EE
  E8D9*   DD 7E 09       C      	LD	A,(IX+09)
  E8DC*   B7             C      	OR	A
  E8DD*   20 0A          C      	JR	NZ,$+12	;E8E9
  E8DF*   DD 7E 0A       C      	LD	A,(IX+10)
  E8E2*   FE 20          C      	CP	020H
  E8E4*   20 03          C      	JR	NZ,$+05	;E8E9
  E8E6*   B7             C      	OR	A
  E8E7*   18 03          C      	JR	$+05	;E8EC
  E8E9*   3E 02          C      	LD	A,002H
  E8EB*   37             C      	SCF
  E8EC*   D1             C      	POP	DE
  E8ED*   C9             C      	RET
                         C      ;
  E8EE*   3E 01          C      	LD	A,001H
  E8F0*   18 F9          C      	JR	$-05	;E8EB
  E8F2*   CD E903        C      	CALL	0E903H
  E8F5*   C8             C      	RET	Z
  E8F6*   CD EA90        C      	CALL	0EA90H
  E8F9*   FD E5          C      	PUSH	IY
  E8FB*   D1             C      	POP	DE
  E8FC*   CD EABA        C      	CALL	0EABAH
  E8FF*   DD 7E 0A       C      	LD	A,(IX+10)
  E902*   C9             C      	RET
  E903*   3E 02          C      	LD	A,002H
  E905*   CD E992        C      	CALL	0E992H
  E908*   C8             C      	RET	Z
  E909*   C5             C      	PUSH	BC
  E90A*   D5             C      	PUSH	DE
  E90B*   E5             C      	PUSH	HL
  E90C*   CD EA6D        C      	CALL	0EA6DH
  E90F*   FD E5          C      	PUSH	IY
  E911*   E1             C      	POP	HL
  E912*   ED 5B E7AE     C      	LD	DE,(0E7AEH)
  E916*   EB             C      	EX	DE,HL
  E917*   01 0080        C      	LD	BC,00080H
  E91A*   ED B0          C      	LDIR
  E91C*   E1             C      	POP	HL
  E91D*   D1             C      	POP	DE
  E91E*   C1             C      	POP	BC
  E91F*   C9             C      	RET
                         C      ;
  E920*   E5             C      	PUSH	HL
  E921*   CD EAF3        C      	CALL	0EAF3H
  E924*   07             C      	RLCA
  E925*   7E             C      	LD	A,(HL)
  E926*   DD 77 0A       C      	LD	(IX+10),A
  E929*   CD EAE3        C      	CALL	0EAE3H
  E92C*   E1             C      	POP	HL
  E92D*   CD E938        C      	CALL	0E938H
  E930*   C8             C      	RET	Z
  E931*   CD EA90        C      	CALL	0EA90H
  E934*   CD EABA        C      	CALL	0EABAH
  E937*   C9             C      	RET
  E938*   E5             C      	PUSH	HL
  E939*   CD EAF3        C      	CALL	0EAF3H
  E93C*   08             C      	EX	AF,AF'
  E93D*   7E             C      	LD	A,(HL)
  E93E*   E1             C      	POP	HL
  E93F*   FE 48          C      	CP	048H
  E941*   28 07          C      	JR	Z,$+09	;E94A
  E943*   FE 44          C      	CP	044H
  E945*   28 03          C      	JR	Z,$+05	;E94A
  E947*   AF             C      	XOR	A
  E948*   18 02          C      	JR	$+04	;E94C
  E94A*   3E 80          C      	LD	A,080H
  E94C*   DD 36 09 00    C      	LD	(IX+09),000H
  E950*   CD EA77        C      	CALL	0EA77H
  E953*   CD E992        C      	CALL	0E992H
  E956*   C9             C      	RET
                         C      ;
  E957*   C5             C      	PUSH	BC
  E958*   E5             C      	PUSH	HL
  E959*   F5             C      	PUSH	AF
  E95A*   06 02          C      	LD	B,002H
  E95C*   3E 15          C      	LD	A,015H
  E95E*   CD E992        C      	CALL	0E992H
'SYS3 - MEOS1521 ---> Verbindungen'	MACRO-80 3.44	09-Dec-81	PAGE	1-110


  E961*   28 17          C      	JR	Z,$+25	;E97A
  E963*   CD EAA0        C      	CALL	0EAA0H
  E966*   10 F4          C      	DJNZ	$-10	;E95C
  E968*   CD E8F2        C      	CALL	0E8F2H
  E96B*   28 0D          C      	JR	Z,$+15	;E97A
  E96D*   6F             C      	LD	L,A
  E96E*   26 00          C      	LD	H,000H
  E970*   19             C      	ADD	HL,DE
  E971*   2B             C      	DEC	HL
  E972*   E5             C      	PUSH	HL
  E973*   D1             C      	POP	DE
  E974*   CD EABA        C      	CALL	0EABAH
  E977*   B7             C      	OR	A
  E978*   18 01          C      	JR	$+03	;E97B
  E97A*   37             C      	SCF
  E97B*   C1             C      	POP	BC
  E97C*   78             C      	LD	A,B
  E97D*   E1             C      	POP	HL
  E97E*   C1             C      	POP	BC
  E97F*   C9             C      	RET
                         C      ;
  E980*   3E 21          C      	LD	A,021H
  E982*   CD E992        C      	CALL	0E992H
  E985*   CD E7A8        C      	CALL	0E7A8H
  E988*   38 FB          C      	JR	C,$-03	;E985
  E98A*   3E 32          C      	LD	A,032H
  E98C*   C5             C      	PUSH	BC
  E98D*   CD E7AB        C      	CALL	0E7ABH
  E990*   C1             C      	POP	BC
  E991*   C9             C      	RET
                         C      ;
  E992*   E5             C      	PUSH	HL
  E993*   DD 77 04       C      	LD	(IX+04),A
  E996*   21 E9A6        C      	LD	HL,0E9A6H
  E999*   DD 75 05       C      	LD	(IX+05),L
  E99C*   DD 74 06       C      	LD	(IX+06),H
  E99F*   E1             C      	POP	HL
  E9A0*   CD E7A5        C      	CALL	0E7A5H
  E9A3*   76             C      	HALT
                         C      ;
  E9A4*   18 FD          C      	JR	$-01	;E9A3
  E9A6*   33             C      	INC	SP
  E9A7*   33             C      	INC	SP
  E9A8*   DD 7E 00       C      	LD	A,(IX+00)
  E9AB*   2F             C      	CPL
  E9AC*   C5             C      	PUSH	BC
  E9AD*   47             C      	LD	B,A
  E9AE*   CB 4F          C      	BIT	1,A
  E9B0*   3E 25          C      	LD	A,025H
  E9B2*   CC E9BE        C      	CALL	Z,0E9BEH
  E9B5*   78             C      	LD	A,B
  E9B6*   C1             C      	POP	BC
  E9B7*   C8             C      	RET	Z
  E9B8*   C3 EF9B        C      	JP	0EF9BH
  E9BB*   DD 7E 01       C      	LD	A,(IX+01)
  E9BE*   C6 70          C      	ADD	A,070H
  E9C0*   CD E799        C      	CALL	0E799H
  E9C3*   C3 EFA8        C      	JP	0EFA8H
                         C      ;
  E9C6*   C9             C      	RET
                         C      ;
  E9C7*   E5             C      	PUSH	HL
  E9C8*   C5             C      	PUSH	BC
  E9C9*   06 06          C      	LD	B,006H
  E9CB*   1A             C      	LD	A,(DE)
  E9CC*   BE             C      	CP	(HL)
  E9CD*   20 08          C      	JR	NZ,$+10	;E9D7
  E9CF*   23             C      	INC	HL
  E9D0*   13             C      	INC	DE
  E9D1*   10 F8          C      	DJNZ	$-06	;E9CB
  E9D3*   B7             C      	OR	A
  E9D4*   C1             C      	POP	BC
  E9D5*   E1             C      	POP	HL
  E9D6*   C9             C      	RET
                         C      ;
  E9D7*   37             C      	SCF
  E9D8*   18 FA          C      	JR	$-04	;E9D4
  E9DA*   3E 31          C      	LD	A,031H
  E9DC*   CD E992        C      	CALL	0E992H
  E9DF*   C8             C      	RET	Z
  E9E0*   7E             C      	LD	A,(HL)
  E9E1*   E5             C      	PUSH	HL
  E9E2*   CD EAF3        C      	CALL	0EAF3H
'SYS3 - MEOS1521 ---> Verbindungen'	MACRO-80 3.44	09-Dec-81	PAGE	1-111


  E9E5*   08             C      	EX	AF,AF'
  E9E6*   77             C      	LD	(HL),A
  E9E7*   E1             C      	POP	HL
  E9E8*   C5             C      	PUSH	BC
  E9E9*   4F             C      	LD	C,A
  E9EA*   FE 48          C      	CP	048H
  E9EC*   06 01          C      	LD	B,001H
  E9EE*   28 02          C      	JR	Z,$+04	;E9F2
  E9F0*   06 06          C      	LD	B,006H
  E9F2*   CD E863        C      	CALL	0E863H
  E9F5*   79             C      	LD	A,C
  E9F6*   C1             C      	POP	BC
  E9F7*   C9             C      	RET
                         C      ;
  E9F8*   CD E980        C      	CALL	0E980H
  E9FB*   3E 41          C      	LD	A,041H
  E9FD*   CD E992        C      	CALL	0E992H
  EA00*   C9             C      	RET
                         C      ;
  EA01*   F5             C      	PUSH	AF
  EA02*   FD 7E 06       C      	LD	A,(IY+06)
  EA05*   FE 44          C      	CP	044H
  EA07*   20 0A          C      	JR	NZ,$+12	;EA13
  EA09*   FD 7E 07       C      	LD	A,(IY+07)
  EA0C*   FE 53          C      	CP	053H
  EA0E*   20 03          C      	JR	NZ,$+05	;EA13
  EA10*   F1             C      	POP	AF
  EA11*   B7             C      	OR	A
  EA12*   C9             C      	RET
                         C      ;
  EA13*   F1             C      	POP	AF
  EA14*   37             C      	SCF
  EA15*   3E 02          C      	LD	A,002H
  EA17*   C9             C      	RET
                         C      ;
  EA18*   CD EA31        C      	CALL	0EA31H
  EA1B*   C8             C      	RET	Z
  EA1C*   CD E903        C      	CALL	0E903H
  EA1F*   C8             C      	RET	Z
  EA20*   FD 7E 00       C      	LD	A,(IY+00)
  EA23*   B8             C      	CP	B
  EA24*   20 03          C      	JR	NZ,$+05	;EA29
  EA26*   F6 01          C      	OR	001H
  EA28*   C9             C      	RET
                         C      ;
  EA29*   C5             C      	PUSH	BC
  EA2A*   CD E861        C      	CALL	0E861H
  EA2D*   C1             C      	POP	BC
  EA2E*   C8             C      	RET	Z
  EA2F*   18 E7          C      	JR	$-23	;EA18
  EA31*   DD 70 0A       C      	LD	(IX+10),B
  EA34*   3E 71          C      	LD	A,071H
  EA36*   CD E992        C      	CALL	0E992H
  EA39*   C9             C      	RET
                         C      ;
  EA3A*   3E 03          C      	LD	A,003H
  EA3C*   18 02          C      	JR	$+04	;EA40
  EA3E*   3E 01          C      	LD	A,001H
  EA40*   E5             C      	PUSH	HL
  EA41*   C5             C      	PUSH	BC
  EA42*   47             C      	LD	B,A
  EA43*   3E 03          C      	LD	A,003H
  EA45*   CD EAF3        C      	CALL	0EAF3H
  EA48*   00             C      	NOP
  EA49*   A6             C      	AND	(HL)
  EA4A*   B8             C      	CP	B
  EA4B*   C1             C      	POP	BC
  EA4C*   E1             C      	POP	HL
  EA4D*   C8             C      	RET	Z
  EA4E*   CD EA5F        C      	CALL	0EA5FH
  EA51*   C9             C      	RET
                         C      ;
  EA52*   E5             C      	PUSH	HL
  EA53*   CD EAF3        C      	CALL	0EAF3H
  EA56*   00             C      	NOP
  EA57*   CB 46          C      	BIT	0,(HL)
  EA59*   E1             C      	POP	HL
  EA5A*   C8             C      	RET	Z
  EA5B*   CD EA5F        C      	CALL	0EA5FH
  EA5E*   C9             C      	RET
                         C      ;
  EA5F*   3E 05          C      	LD	A,005H
  EA61*   ED 43 FAEE     C      	LD	(0FAEEH),BC
'SYS3 - MEOS1521 ---> Verbindungen'	MACRO-80 3.44	09-Dec-81	PAGE	1-112


  EA65*   ED 53 FAF0     C      	LD	(0FAF0H),DE
  EA69*   22 FAF2        C      	LD	(0FAF2H),HL
  EA6C*   C9             C      	RET
                         C      ;
  EA6D*   E5             C      	PUSH	HL
  EA6E*   CD EAF3        C      	CALL	0EAF3H
  EA71*   20 E5          C      	JR	NZ,$-25	;EA58
  EA73*   FD E1          C      	POP	IY
  EA75*   E1             C      	POP	HL
  EA76*   C9             C      	RET
                         C      ;
  EA77*   CD EA6D        C      	CALL	0EA6DH
  EA7A*   FD E5          C      	PUSH	IY
  EA7C*   D1             C      	POP	DE
  EA7D*   DD 73 07       C      	LD	(IX+07),E
  EA80*   DD 72 08       C      	LD	(IX+08),D
  EA83*   C9             C      	RET
                         C      ;
  EA84*   E5             C      	PUSH	HL
  EA85*   CD EAF3        C      	CALL	0EAF3H
  EA88*   20 E5          C      	JR	NZ,$-25	;EA6F
  EA8A*   D1             C      	POP	DE
  EA8B*   CD EABA        C      	CALL	0EABAH
  EA8E*   E1             C      	POP	HL
  EA8F*   C9             C      	RET
                         C      ;
  EA90*   E5             C      	PUSH	HL
  EA91*   D5             C      	PUSH	DE
  EA92*   CD EAF3        C      	CALL	0EAF3H
  EA95*   01 235E        C      	LD	BC,0235EH
  EA98*   56             C      	LD	D,(HL)
  EA99*   13             C      	INC	DE
  EA9A*   72             C      	LD	(HL),D
  EA9B*   2B             C      	DEC	HL
  EA9C*   73             C      	LD	(HL),E
  EA9D*   D1             C      	POP	DE
  EA9E*   E1             C      	POP	HL
  EA9F*   C9             C      	RET
                         C      ;
  EAA0*   E5             C      	PUSH	HL
  EAA1*   D5             C      	PUSH	DE
  EAA2*   CD EAF3        C      	CALL	0EAF3H
  EAA5*   01 235E        C      	LD	BC,0235EH
  EAA8*   56             C      	LD	D,(HL)
  EAA9*   1B             C      	DEC	DE
  EAAA*   72             C      	LD	(HL),D
  EAAB*   2B             C      	DEC	HL
  EAAC*   73             C      	LD	(HL),E
  EAAD*   D1             C      	POP	DE
  EAAE*   E1             C      	POP	HL
  EAAF*   C9             C      	RET
                         C      ;
  EAB0*   E5             C      	PUSH	HL
  EAB1*   CD EAF3        C      	CALL	0EAF3H
  EAB4*   04             C      	INC	B
  EAB5*   5E             C      	LD	E,(HL)
  EAB6*   23             C      	INC	HL
  EAB7*   56             C      	LD	D,(HL)
  EAB8*   E1             C      	POP	HL
  EAB9*   C9             C      	RET
                         C      ;
  EABA*   E5             C      	PUSH	HL
  EABB*   CD EAF3        C      	CALL	0EAF3H
  EABE*   04             C      	INC	B
  EABF*   73             C      	LD	(HL),E
  EAC0*   23             C      	INC	HL
  EAC1*   72             C      	LD	(HL),D
  EAC2*   E1             C      	POP	HL
  EAC3*   C9             C      	RET
                         C      ;
  EAC4*   CD EAB0        C      	CALL	0EAB0H
  EAC7*   E5             C      	PUSH	HL
  EAC8*   CD EAF3        C      	CALL	0EAF3H
  EACB*   20 B7          C      	JR	NZ,$-71	;EA84
  EACD*   ED 52          C      	SBC	HL,DE
  EACF*   E1             C      	POP	HL
  EAD0*   1B             C      	DEC	DE
  EAD1*   C9             C      	RET
                         C      ;
  EAD2*   E5             C      	PUSH	HL
  EAD3*   CD EAF3        C      	CALL	0EAF3H
  EAD6*   06 77          C      	LD	B,077H
  EAD8*   E1             C      	POP	HL
'SYS3 - MEOS1521 ---> Verbindungen'	MACRO-80 3.44	09-Dec-81	PAGE	1-113


  EAD9*   C9             C      	RET
                         C      ;
  EADA*   E5             C      	PUSH	HL
  EADB*   CD EAF3        C      	CALL	0EAF3H
  EADE*   03             C      	INC	BC
  EADF*   7E             C      	LD	A,(HL)
  EAE0*   B7             C      	OR	A
  EAE1*   E1             C      	POP	HL
  EAE2*   C9             C      	RET
                         C      ;
  EAE3*   E5             C      	PUSH	HL
  EAE4*   CD EAF3        C      	CALL	0EAF3H
  EAE7*   03             C      	INC	BC
  EAE8*   77             C      	LD	(HL),A
  EAE9*   E1             C      	POP	HL
  EAEA*   C9             C      	RET
                         C      ;
  EAEB*   E5             C      	PUSH	HL
  EAEC*   CD EAF3        C      	CALL	0EAF3H
  EAEF*   00             C      	NOP
  EAF0*   77             C      	LD	(HL),A
  EAF1*   E1             C      	POP	HL
  EAF2*   C9             C      	RET
                         C      ;
  EAF3*   E1             C      	POP	HL
  EAF4*   23             C      	INC	HL
  EAF5*   E5             C      	PUSH	HL
  EAF6*   2B             C      	DEC	HL
  EAF7*   C5             C      	PUSH	BC
  EAF8*   4E             C      	LD	C,(HL)
  EAF9*   06 00          C      	LD	B,000H
  EAFB*   2A F9AA        C      	LD	HL,(0F9AAH)
  EAFE*   09             C      	ADD	HL,BC
  EAFF*   C1             C      	POP	BC
  EB00*   C9             C      	RET
                         C      ;
  EB01*   C5             C      	PUSH	BC
  EB02*   D5             C      	PUSH	DE
  EB03*   CD E8D3        C      	CALL	0E8D3H
  EB06*   38 1C          C      	JR	C,$+30	;EB24
  EB08*   CD EA01        C      	CALL	0EA01H
  EB0B*   38 17          C      	JR	C,$+25	;EB24
  EB0D*   FD 5E 03       C      	LD	E,(IY+03)
  EB10*   16 00          C      	LD	D,000H
  EB12*   06 05          C      	LD	B,005H
  EB14*   CD EB29        C      	CALL	0EB29H
  EB17*   3E 15          C      	LD	A,015H
  EB19*   CD E992        C      	CALL	0E992H
  EB1C*   20 03          C      	JR	NZ,$+05	;EB21
  EB1E*   37             C      	SCF
  EB1F*   18 03          C      	JR	$+05	;EB24
  EB21*   B7             C      	OR	A
  EB22*   18 02          C      	JR	$+04	;EB26
  EB24*   3E 02          C      	LD	A,002H
  EB26*   D1             C      	POP	DE
  EB27*   C1             C      	POP	BC
  EB28*   C9             C      	RET
                         C      ;
  EB29*   E5             C      	PUSH	HL
  EB2A*   D5             C      	PUSH	DE
  EB2B*   C5             C      	PUSH	BC
  EB2C*   1E 07          C      	LD	E,007H
  EB2E*   E5             C      	PUSH	HL
  EB2F*   C1             C      	POP	BC
  EB30*   0B             C      	DEC	BC
  EB31*   CD E7A2        C      	CALL	0E7A2H
  EB34*   C1             C      	POP	BC
  EB35*   E1             C      	POP	HL
  EB36*   30 0A          C      	JR	NC,$+12	;EB42
  EB38*   EB             C      	EX	DE,HL
  EB39*   CB 23          C      	SLA	E
  EB3B*   CB 12          C      	RL	D
  EB3D*   10 FA          C      	DJNZ	$-04	;EB39
  EB3F*   73             C      	LD	(HL),E
  EB40*   23             C      	INC	HL
  EB41*   72             C      	LD	(HL),D
  EB42*   E1             C      	POP	HL
  EB43*   C9             C      	RET
                         C      ;
  EB44*   CD E9DA        C      	CALL	0E9DAH
  EB47*   CA E7F0        C      	JP	Z,0E7F0H
  EB4A*   CD EA52        C      	CALL	0EA52H
  EB4D*   28 03          C      	JR	Z,$+05	;EB52
'SYS3 - MEOS1521 ---> Verbindungen'	MACRO-80 3.44	09-Dec-81	PAGE	1-114


  EB4F*   CD E7F0        C      	CALL	0E7F0H
  EB52*   FE 48          C      	CP	048H
  EB54*   CA EBD9        C      	JP	Z,0EBD9H
  EB57*   23             C      	INC	HL
  EB58*   FE 44          C      	CP	044H
  EB5A*   CA EBD0        C      	JP	Z,0EBD0H
  EB5D*   7E             C      	LD	A,(HL)
  EB5E*   CB 47          C      	BIT	0,A
  EB60*   3E 02          C      	LD	A,002H
  EB62*   28 69          C      	JR	Z,$+107	;EBCD
  EB64*   23             C      	INC	HL
  EB65*   CD E8A6        C      	CALL	0E8A6H
  EB68*   38 63          C      	JR	C,$+101	;EBCD
  EB6A*   13             C      	INC	DE
  EB6B*   2B             C      	DEC	HL
  EB6C*   06 07          C      	LD	B,007H
  EB6E*   D5             C      	PUSH	DE
  EB6F*   FD 5E 19       C      	LD	E,(IY+25)
  EB72*   FD 56 1A       C      	LD	D,(IY+26)
  EB75*   CD EB29        C      	CALL	0EB29H
  EB78*   D1             C      	POP	DE
  EB79*   7E             C      	LD	A,(HL)
  EB7A*   23             C      	INC	HL
  EB7B*   01 0006        C      	LD	BC,00006H
  EB7E*   09             C      	ADD	HL,BC
  EB7F*   EB             C      	EX	DE,HL
  EB80*   0E 01          C      	LD	C,001H
  EB82*   CB 4F          C      	BIT	1,A
  EB84*   28 02          C      	JR	Z,$+04	;EB88
  EB86*   ED B0          C      	LDIR
  EB88*   09             C      	ADD	HL,BC
  EB89*   0E 06          C      	LD	C,006H
  EB8B*   CB 57          C      	BIT	2,A
  EB8D*   28 02          C      	JR	Z,$+04	;EB91
  EB8F*   ED B0          C      	LDIR
  EB91*   09             C      	ADD	HL,BC
  EB92*   0E 06          C      	LD	C,006H
  EB94*   09             C      	ADD	HL,BC
  EB95*   0E 03          C      	LD	C,003H
  EB97*   CB 5F          C      	BIT	3,A
  EB99*   28 02          C      	JR	Z,$+04	;EB9D
  EB9B*   ED B0          C      	LDIR
  EB9D*   09             C      	ADD	HL,BC
  EB9E*   46             C      	LD	B,(HL)
  EB9F*   C5             C      	PUSH	BC
  EBA0*   23             C      	INC	HL
  EBA1*   23             C      	INC	HL
  EBA2*   23             C      	INC	HL
  EBA3*   23             C      	INC	HL
  EBA4*   01 0005        C      	LD	BC,00005H
  EBA7*   CB 67          C      	BIT	4,A
  EBA9*   28 02          C      	JR	Z,$+04	;EBAD
  EBAB*   ED B0          C      	LDIR
  EBAD*   C1             C      	POP	BC
  EBAE*   CD EA18        C      	CALL	0EA18H
  EBB1*   28 1A          C      	JR	Z,$+28	;EBCD
  EBB3*   0E 02          C      	LD	C,002H
  EBB5*   AF             C      	XOR	A
  EBB6*   CD EAE3        C      	CALL	0EAE3H
  EBB9*   AF             C      	XOR	A
  EBBA*   E5             C      	PUSH	HL
  EBBB*   CD EAF3        C      	CALL	0EAF3H
  EBBE*   01 2377        C      	LD	BC,02377H
  EBC1*   77             C      	LD	(HL),A
  EBC2*   E1             C      	POP	HL
  EBC3*   CD EA84        C      	CALL	0EA84H
  EBC6*   79             C      	LD	A,C
  EBC7*   F6 01          C      	OR	001H
  EBC9*   CD EAEB        C      	CALL	0EAEBH
  EBCC*   AF             C      	XOR	A
  EBCD*   C3 E7F0        C      	JP	0E7F0H
                         C      ;
  EBD0*   CD EB01        C      	CALL	0EB01H
  EBD3*   38 F8          C      	JR	C,$-06	;EBCD
  EBD5*   0E 0A          C      	LD	C,00AH
  EBD7*   18 DC          C      	JR	$-34	;EBB5
  EBD9*   0E 06          C      	LD	C,006H
  EBDB*   18 D8          C      	JR	$-38	;EBB5
  EBDD*   CD EF8E        C      	CALL	0EF8EH
  EBE0*   28 EB          C      	JR	Z,$-19	;EBCD
  EBE2*   CD EA52        C      	CALL	0EA52H
  EBE5*   28 03          C      	JR	Z,$+05	;EBEA
  EBE7*   CD E7F0        C      	CALL	0E7F0H
'SYS3 - MEOS1521 ---> Verbindungen'	MACRO-80 3.44	09-Dec-81	PAGE	1-115


  EBEA*   FE 48          C      	CP	048H
  EBEC*   CA EC95        C      	JP	Z,0EC95H
  EBEF*   23             C      	INC	HL
  EBF0*   FE 44          C      	CP	044H
  EBF2*   CA EC8F        C      	JP	Z,0EC8FH
  EBF5*   CD E89E        C      	CALL	0E89EH
  EBF8*   30 04          C      	JR	NC,$+06	;EBFE
  EBFA*   3E 02          C      	LD	A,002H
  EBFC*   18 CF          C      	JR	$-47	;EBCD
  EBFE*   FD 7E 03       C      	LD	A,(IY+03)
  EC01*   FE 68          C      	CP	068H
  EC03*   38 04          C      	JR	C,$+06	;EC09
  EC05*   3E 06          C      	LD	A,006H
  EC07*   18 C4          C      	JR	$-58	;EBCD
  EC09*   FD 7E 01       C      	LD	A,(IY+01)
  EC0C*   CD EAD2        C      	CALL	0EAD2H
  EC0F*   3E 15          C      	LD	A,015H
  EC11*   CD E992        C      	CALL	0E992H
  EC14*   28 B7          C      	JR	Z,$-71	;EBCD
  EC16*   CB 46          C      	BIT	0,(HL)
  EC18*   3E 02          C      	LD	A,002H
  EC1A*   28 B1          C      	JR	Z,$-77	;EBCD
  EC1C*   23             C      	INC	HL
  EC1D*   CD E8A6        C      	CALL	0E8A6H
  EC20*   3E 02          C      	LD	A,002H
  EC22*   30 A9          C      	JR	NC,$-85	;EBCD
  EC24*   E5             C      	PUSH	HL
  EC25*   E5             C      	PUSH	HL
  EC26*   CD EAF3        C      	CALL	0EAF3H
  EC29*   09             C      	ADD	HL,BC
  EC2A*   E5             C      	PUSH	HL
  EC2B*   D1             C      	POP	DE
  EC2C*   E1             C      	POP	HL
  EC2D*   01 0006        C      	LD	BC,00006H
  EC30*   ED B0          C      	LDIR
  EC32*   E3             C      	EX	(SP),HL
  EC33*   2B             C      	DEC	HL
  EC34*   CB 4E          C      	BIT	1,(HL)
  EC36*   20 04          C      	JR	NZ,$+06	;EC3C
  EC38*   3E 20          C      	LD	A,020H
  EC3A*   18 04          C      	JR	$+06	;EC40
  EC3C*   E3             C      	EX	(SP),HL
  EC3D*   7E             C      	LD	A,(HL)
  EC3E*   23             C      	INC	HL
  EC3F*   E3             C      	EX	(SP),HL
  EC40*   12             C      	LD	(DE),A
  EC41*   13             C      	INC	DE
  EC42*   7E             C      	LD	A,(HL)
  EC43*   CB 57          C      	BIT	2,A
  EC45*   E1             C      	POP	HL
  EC46*   28 06          C      	JR	Z,$+08	;EC4E
  EC48*   0E 06          C      	LD	C,006H
  EC4A*   ED B0          C      	LDIR
  EC4C*   18 05          C      	JR	$+07	;EC53
  EC4E*   E5             C      	PUSH	HL
  EC4F*   CD E79C        C      	CALL	0E79CH
  EC52*   E1             C      	POP	HL
  EC53*   CB 5F          C      	BIT	3,A
  EC55*   28 06          C      	JR	Z,$+08	;EC5D
  EC57*   0E 03          C      	LD	C,003H
  EC59*   ED B0          C      	LDIR
  EC5B*   18 05          C      	JR	$+07	;EC62
  EC5D*   E5             C      	PUSH	HL
  EC5E*   CD E79F        C      	CALL	0E79FH
  EC61*   E1             C      	POP	HL
  EC62*   CB 67          C      	BIT	4,A
  EC64*   20 0A          C      	JR	NZ,$+12	;EC70
  EC66*   D5             C      	PUSH	DE
  EC67*   3E 20          C      	LD	A,020H
  EC69*   06 05          C      	LD	B,005H
  EC6B*   12             C      	LD	(DE),A
  EC6C*   13             C      	INC	DE
  EC6D*   10 FC          C      	DJNZ	$-02	;EC6B
  EC6F*   E1             C      	POP	HL
  EC70*   EB             C      	EX	DE,HL
  EC71*   CD EAF3        C      	CALL	0EAF3H
  EC74*   1C             C      	INC	E
  EC75*   73             C      	LD	(HL),E
  EC76*   23             C      	INC	HL
  EC77*   72             C      	LD	(HL),D
  EC78*   CD EAF3        C      	CALL	0EAF3H
  EC7B*   06 46          C      	LD	B,046H
  EC7D*   CD EA18        C      	CALL	0EA18H
'SYS3 - MEOS1521 ---> Verbindungen'	MACRO-80 3.44	09-Dec-81	PAGE	1-116


  EC80*   CA E5F0        C      	JP	Z,0E5F0H
  EC83*   3E 80          C      	LD	A,080H
  EC85*   0E 00          C      	LD	C,000H
  EC87*   CD EAF3        C      	CALL	0EAF3H
  EC8A*   07             C      	RLCA
  EC8B*   77             C      	LD	(HL),A
  EC8C*   C3 EBB6        C      	JP	0EBB6H
  EC8F*   3E 20          C      	LD	A,020H
  EC91*   0E 08          C      	LD	C,008H
  EC93*   18 F2          C      	JR	$-12	;EC83
  EC95*   3E 80          C      	LD	A,080H
  EC97*   0E 04          C      	LD	C,004H
  EC99*   18 EC          C      	JR	$-18	;EC87
  EC9B*   CD EA3A        C      	CALL	0EA3AH
  EC9E*   28 03          C      	JR	Z,$+05	;ECA3
  ECA0*   CD E7F0        C      	CALL	0E7F0H
  ECA3*   C3 ED9F        C      	JP	0ED9FH
                         C      ;
  ECA6*   CD EA3E        C      	CALL	0EA3EH
  ECA9*   28 03          C      	JR	Z,$+05	;ECAE
  ECAB*   CD E7F0        C      	CALL	0E7F0H
  ECAE*   CD EAF3        C      	CALL	0EAF3H
  ECB1*   1E 5E          C      	LD	E,05EH
  ECB3*   23             C      	INC	HL
  ECB4*   56             C      	LD	D,(HL)
  ECB5*   1A             C      	LD	A,(DE)
  ECB6*   FE 48          C      	CP	048H
  ECB8*   CA ED9F        C      	JP	Z,0ED9FH
  ECBB*   47             C      	LD	B,A
  ECBC*   CD EADA        C      	CALL	0EADAH
  ECBF*   CD EAF3        C      	CALL	0EAF3H
  ECC2*   07             C      	RLCA
  ECC3*   BE             C      	CP	(HL)
  ECC4*   28 06          C      	JR	Z,$+08	;ECCC
  ECC6*   CD E920        C      	CALL	0E920H
  ECC9*   CA E7F0        C      	JP	Z,0E7F0H
  ECCC*   78             C      	LD	A,B
  ECCD*   FE 44          C      	CP	044H
  ECCF*   CA ED9F        C      	JP	Z,0ED9FH
                         C      ;
  ECD2*   3E 51          C      	LD	A,051H
  ECD4*   CD E992        C      	CALL	0E992H
  ECD7*   CA E7F0        C      	JP	Z,0E7F0H
  ECDA*   CD EA77        C      	CALL	0EA77H
  ECDD*   CD EAF3        C      	CALL	0EAF3H
  ECE0*   06 7E          C      	LD	B,07EH
  ECE2*   3C             C      	INC	A
  ECE3*   EB             C      	EX	DE,HL
  ECE4*   06 20          C      	LD	B,020H
  ECE6*   DD 70 0A       C      	LD	(IX+10),B
  ECE9*   77             C      	LD	(HL),A
  ECEA*   AF             C      	XOR	A
  ECEB*   23             C      	INC	HL
  ECEC*   10 FB          C      	DJNZ	$-03	;ECE9
  ECEE*   CD E938        C      	CALL	0E938H
  ECF1*   CA E7F0        C      	JP	Z,0E7F0H
  ECF4*   3E 61          C      	LD	A,061H
  ECF6*   CD E992        C      	CALL	0E992H
  ECF9*   CA E7F0        C      	JP	Z,0E7F0H
  ECFC*   CD E86F        C      	CALL	0E86FH
  ECFF*   3E 02          C      	LD	A,002H
  ED01*   CA E7F0        C      	JP	Z,0E7F0H
  ED04*   01 0020        C      	LD	BC,00020H
  ED07*   11 FAF4        C      	LD	DE,0FAF4H
  ED0A*   FD E5          C      	PUSH	IY
  ED0C*   E1             C      	POP	HL
  ED0D*   ED B0          C      	LDIR
  ED0F*   FD 46 03       C      	LD	B,(IY+03)
  ED12*   3E 11          C      	LD	A,011H
  ED14*   CD E992        C      	CALL	0E992H
  ED17*   CA E7F0        C      	JP	Z,0E7F0H
  ED1A*   10 F6          C      	DJNZ	$-08	;ED12
  ED1C*   3E 15          C      	LD	A,015H
  ED1E*   CD E992        C      	CALL	0E992H
  ED21*   CA E7F0        C      	JP	Z,0E7F0H
  ED24*   FD 7E 01       C      	LD	A,(IY+01)
  ED27*   FD 77 17       C      	LD	(IY+23),A
  ED2A*   FD E5          C      	PUSH	IY
  ED2C*   D1             C      	POP	DE
  ED2D*   CD EAF3        C      	CALL	0EAF3H
  ED30*   09             C      	ADD	HL,BC
  ED31*   01 0006        C      	LD	BC,00006H
  ED34*   ED B0          C      	LDIR
'SYS3 - MEOS1521 ---> Verbindungen'	MACRO-80 3.44	09-Dec-81	PAGE	1-117


  ED36*   CD EAF3        C      	CALL	0EAF3H
  ED39*   08             C      	EX	AF,AF'
  ED3A*   0E 01          C      	LD	C,001H
  ED3C*   ED B0          C      	LDIR
  ED3E*   CD EAF3        C      	CALL	0EAF3H
  ED41*   0F             C      	RRCA
  ED42*   0E 07          C      	LD	C,007H
  ED44*   ED B0          C      	LDIR
  ED46*   E5             C      	PUSH	HL
  ED47*   CD E79C        C      	CALL	0E79CH
  ED4A*   E1             C      	POP	HL
  ED4B*   0E 03          C      	LD	C,003H
  ED4D*   ED B0          C      	LDIR
  ED4F*   E5             C      	PUSH	HL
  ED50*   CD EAF3        C      	CALL	0EAF3H
  ED53*   01 137E        C      	LD	BC,0137EH
  ED56*   13             C      	INC	DE
  ED57*   12             C      	LD	(DE),A
  ED58*   13             C      	INC	DE
  ED59*   23             C      	INC	HL
  ED5A*   18 09          C      	JR	$+11	;ED65
  ED5C*   02             C      	LD	(BC),A
  ED5D*   03             C      	INC	BC
  ED5E*   F1             C      	POP	AF
  ED5F*   CD C90D        C      	CALL	0C90DH
  ED62*   02             C      	LD	(BC),A
  ED63*   03             C      	INC	BC
  ED64*   C9             C      	RET
                         C      ;
  ED65*   7E             C      	LD	A,(HL)
  ED66*   E1             C      	POP	HL
  ED67*   12             C      	LD	(DE),A
  ED68*   13             C      	INC	DE
  ED69*   CD EAF3        C      	CALL	0EAF3H
  ED6C*   1C             C      	INC	E
  ED6D*   D5             C      	PUSH	DE
  ED6E*   5E             C      	LD	E,(HL)
  ED6F*   23             C      	INC	HL
  ED70*   56             C      	LD	D,(HL)
  ED71*   EB             C      	EX	DE,HL
  ED72*   D1             C      	POP	DE
  ED73*   0E 05          C      	LD	C,005H
  ED75*   ED B0          C      	LDIR
  ED77*   CD E94A        C      	CALL	0E94AH
  ED7A*   28 2D          C      	JR	Z,$+47	;EDA9
  ED7C*   CD E861        C      	CALL	0E861H
  ED7F*   3E 02          C      	LD	A,002H
  ED81*   28 26          C      	JR	Z,$+40	;EDA9
  ED83*   FD 21 FAF4     C      	LD	IY,0FAF4H
  ED87*   CD EA7A        C      	CALL	0EA7AH
  ED8A*   FD 7E 03       C      	LD	A,(IY+03)
  ED8D*   3C             C      	INC	A
  ED8E*   FD 77 03       C      	LD	(IY+03),A
  ED91*   FD 7E 01       C      	LD	A,(IY+01)
  ED94*   3C             C      	INC	A
  ED95*   FD 77 01       C      	LD	(IY+01),A
  ED98*   3E 80          C      	LD	A,080H
  ED9A*   CD E992        C      	CALL	0E992H
  ED9D*   28 0A          C      	JR	Z,$+12	;EDA9
  ED9F*   CD EAF3        C      	CALL	0EAF3H
  EDA2*   00             C      	NOP
  EDA3*   36 00          C      	LD	(HL),000H
  EDA5*   CD E9F8        C      	CALL	0E9F8H
  EDA8*   AF             C      	XOR	A
  EDA9*   C3 E7F0        C      	JP	0E7F0H
                         C      ;
  EDAC*   CD EA3A        C      	CALL	0EA3AH
  EDAF*   28 03          C      	JR	Z,$+05	;EDB4
  EDB1*   CD E7F0        C      	CALL	0E7F0H
  EDB4*   E5             C      	PUSH	HL
  EDB5*   C5             C      	PUSH	BC
  EDB6*   D5             C      	PUSH	DE
  EDB7*   D5             C      	PUSH	DE
  EDB8*   CD EAB0        C      	CALL	0EAB0H
  EDBB*   CD EADA        C      	CALL	0EADAH
  EDBE*   20 05          C      	JR	NZ,$+07	;EDC5
  EDC0*   CD E8F2        C      	CALL	0E8F2H
  EDC3*   28 2C          C      	JR	Z,$+46	;EDF1
  EDC5*   3D             C      	DEC	A
  EDC6*   CD EAE3        C      	CALL	0EAE3H
  EDC9*   F1             C      	POP	AF
  EDCA*   C5             C      	PUSH	BC
  EDCB*   EB             C      	EX	DE,HL
'SYS3 - MEOS1521 ---> Verbindungen'	MACRO-80 3.44	09-Dec-81	PAGE	1-118


  EDCC*   46             C      	LD	B,(HL)
  EDCD*   EB             C      	EX	DE,HL
  EDCE*   70             C      	LD	(HL),B
  EDCF*   23             C      	INC	HL
  EDD0*   13             C      	INC	DE
  EDD1*   B7             C      	OR	A
  EDD2*   28 03          C      	JR	Z,$+05	;EDD7
  EDD4*   B8             C      	CP	B
  EDD5*   28 13          C      	JR	Z,$+21	;EDEA
  EDD7*   C1             C      	POP	BC
  EDD8*   D5             C      	PUSH	DE
  EDD9*   0B             C      	DEC	BC
  EDDA*   57             C      	LD	D,A
  EDDB*   78             C      	LD	A,B
  EDDC*   B1             C      	OR	C
  EDDD*   28 05          C      	JR	Z,$+07	;EDE4
  EDDF*   7A             C      	LD	A,D
  EDE0*   D1             C      	POP	DE
  EDE1*   F5             C      	PUSH	AF
  EDE2*   18 D7          C      	JR	$-39	;EDBB
  EDE4*   D1             C      	POP	DE
  EDE5*   CD EABA        C      	CALL	0EABAH
  EDE8*   18 0A          C      	JR	$+12	;EDF4
  EDEA*   3E 04          C      	LD	A,004H
  EDEC*   CD EABA        C      	CALL	0EABAH
  EDEF*   18 02          C      	JR	$+04	;EDF3
  EDF1*   3E 01          C      	LD	A,001H
  EDF3*   C1             C      	POP	BC
  EDF4*   D1             C      	POP	DE
  EDF5*   C1             C      	POP	BC
  EDF6*   E1             C      	POP	HL
  EDF7*   C3 E7F0        C      	JP	0E7F0H
                         C      ;
  EDFA*   CD EA3E        C      	CALL	0EA3EH
  EDFD*   28 07          C      	JR	Z,$+09	;EE06
  EDFF*   CD E7F0        C      	CALL	0E7F0H
  EE02*   3E 01          C      	LD	A,001H
  EE04*   18 F1          C      	JR	$-13	;EDF7
  EE06*   E5             C      	PUSH	HL
  EE07*   C5             C      	PUSH	BC
  EE08*   D5             C      	PUSH	DE
  EE09*   D5             C      	PUSH	DE
  EE0A*   CD EAB0        C      	CALL	0EAB0H
  EE0D*   CD EADA        C      	CALL	0EADAH
  EE10*   20 0B          C      	JR	NZ,$+13	;EE1D
  EE12*   CD E920        C      	CALL	0E920H
  EE15*   28 2A          C      	JR	Z,$+44	;EE41
  EE17*   CD EABA        C      	CALL	0EABAH
  EE1A*   CD EADA        C      	CALL	0EADAH
  EE1D*   3D             C      	DEC	A
  EE1E*   CD EAE3        C      	CALL	0EAE3H
  EE21*   F1             C      	POP	AF
  EE22*   C5             C      	PUSH	BC
  EE23*   46             C      	LD	B,(HL)
  EE24*   EB             C      	EX	DE,HL
  EE25*   70             C      	LD	(HL),B
  EE26*   EB             C      	EX	DE,HL
  EE27*   23             C      	INC	HL
  EE28*   13             C      	INC	DE
  EE29*   B7             C      	OR	A
  EE2A*   28 03          C      	JR	Z,$+05	;EE2F
  EE2C*   B8             C      	CP	B
  EE2D*   28 0D          C      	JR	Z,$+15	;EE3C
  EE2F*   C1             C      	POP	BC
  EE30*   D5             C      	PUSH	DE
  EE31*   0B             C      	DEC	BC
  EE32*   57             C      	LD	D,A
  EE33*   78             C      	LD	A,B
  EE34*   B1             C      	OR	C
  EE35*   28 0C          C      	JR	Z,$+14	;EE43
  EE37*   7A             C      	LD	A,D
  EE38*   D1             C      	POP	DE
  EE39*   F5             C      	PUSH	AF
  EE3A*   18 D1          C      	JR	$-45	;EE0D
  EE3C*   3E 04          C      	LD	A,004H
  EE3E*   C1             C      	POP	BC
  EE3F*   18 03          C      	JR	$+05	;EE44
  EE41*   3E 01          C      	LD	A,001H
  EE43*   D1             C      	POP	DE
  EE44*   CD EABA        C      	CALL	0EABAH
  EE47*   D1             C      	POP	DE
  EE48*   C1             C      	POP	BC
  EE49*   E1             C      	POP	HL
'SYS3 - MEOS1521 ---> Verbindungen'	MACRO-80 3.44	09-Dec-81	PAGE	1-119


  EE4A*   18 AB          C      	JR	$-83	;EDF7
  EE4C*   CD EA3A        C      	CALL	0EA3AH
  EE4F*   28 03          C      	JR	Z,$+05	;EE54
  EE51*   CD E7F0        C      	CALL	0E7F0H
  EE54*   C5             C      	PUSH	BC
  EE55*   D5             C      	PUSH	DE
  EE56*   D5             C      	PUSH	DE
  EE57*   CD EAB0        C      	CALL	0EAB0H
  EE5A*   CD EAC7        C      	CALL	0EAC7H
  EE5D*   20 09          C      	JR	NZ,$+11	;EE68
  EE5F*   CD E957        C      	CALL	0E957H
  EE62*   38 29          C      	JR	C,$+43	;EE8D
  EE64*   AF             C      	XOR	A
  EE65*   CD EAE3        C      	CALL	0EAE3H
  EE68*   1A             C      	LD	A,(DE)
  EE69*   77             C      	LD	(HL),A
  EE6A*   CD EADA        C      	CALL	0EADAH
  EE6D*   3C             C      	INC	A
  EE6E*   CD EAE3        C      	CALL	0EAE3H
  EE71*   F1             C      	POP	AF
  EE72*   B7             C      	OR	A
  EE73*   28 05          C      	JR	Z,$+07	;EE7A
  EE75*   EB             C      	EX	DE,HL
  EE76*   BE             C      	CP	(HL)
  EE77*   EB             C      	EX	DE,HL
  EE78*   28 0C          C      	JR	Z,$+14	;EE86
  EE7A*   0B             C      	DEC	BC
  EE7B*   F5             C      	PUSH	AF
  EE7C*   78             C      	LD	A,B
  EE7D*   B1             C      	OR	C
  EE7E*   28 02          C      	JR	Z,$+04	;EE82
  EE80*   18 D8          C      	JR	$-38	;EE5A
  EE82*   F1             C      	POP	AF
  EE83*   AF             C      	XOR	A
  EE84*   18 02          C      	JR	$+04	;EE88
  EE86*   3E 04          C      	LD	A,004H
  EE88*   CD EABA        C      	CALL	0EABAH
  EE8B*   18 02          C      	JR	$+04	;EE8F
  EE8D*   3E 01          C      	LD	A,001H
  EE8F*   D1             C      	POP	DE
  EE90*   C1             C      	POP	BC
  EE91*   C3 E7F0        C      	JP	0E7F0H
  EE94*   CD EA3A        C      	CALL	0EA3AH
  EE97*   28 03          C      	JR	Z,$+05	;EE9C
  EE99*   CD E7F0        C      	CALL	0E7F0H
  EE9C*   CD EADA        C      	CALL	0EADAH
  EE9F*   20 05          C      	JR	NZ,$+07	;EEA6
  EEA1*   CD E8F2        C      	CALL	0E8F2H
  EEA4*   28 11          C      	JR	Z,$+19	;EEB7
  EEA6*   3D             C      	DEC	A
  EEA7*   CD EAE3        C      	CALL	0EAE3H
  EEAA*   CD EAB0        C      	CALL	0EAB0H
  EEAD*   D5             C      	PUSH	DE
  EEAE*   E1             C      	POP	HL
  EEAF*   13             C      	INC	DE
  EEB0*   CD EABA        C      	CALL	0EABAH
  EEB3*   56             C      	LD	D,(HL)
  EEB4*   AF             C      	XOR	A
  EEB5*   18 02          C      	JR	$+04	;EEB9
  EEB7*   3E 01          C      	LD	A,001H
  EEB9*   C3 E7F0        C      	JP	0E7F0H
  EEBC*   CD EA3E        C      	CALL	0EA3EH
  EEBF*   28 05          C      	JR	Z,$+07	;EEC6
  EEC1*   CD E7F0        C      	CALL	0E7F0H
  EEC4*   18 1F          C      	JR	$+33	;EEE5
  EEC6*   EB             C      	EX	DE,HL
  EEC7*   CD EADA        C      	CALL	0EADAH
  EECA*   20 08          C      	JR	NZ,$+10	;EED4
  EECC*   CD E920        C      	CALL	0E920H
  EECF*   28 14          C      	JR	Z,$+22	;EEE5
  EED1*   CD EADA        C      	CALL	0EADAH
  EED4*   3D             C      	DEC	A
  EED5*   CD EAE3        C      	CALL	0EAE3H
  EED8*   CD EAB0        C      	CALL	0EAB0H
  EEDB*   EB             C      	EX	DE,HL
  EEDC*   72             C      	LD	(HL),D
  EEDD*   EB             C      	EX	DE,HL
  EEDE*   13             C      	INC	DE
  EEDF*   CD EABA        C      	CALL	0EABAH
  EEE2*   AF             C      	XOR	A
  EEE3*   18 02          C      	JR	$+04	;EEE7
  EEE5*   3E 01          C      	LD	A,001H
  EEE7*   C3 E7F0        C      	JP	0E7F0H
'SYS3 - MEOS1521 ---> Verbindungen'	MACRO-80 3.44	09-Dec-81	PAGE	1-120


  EEEA*   CD EA3A        C      	CALL	0EA3AH
  EEED*   28 03          C      	JR	Z,$+05	;EEF2
  EEEF*   CD E7F0        C      	CALL	0E7F0H
  EEF2*   CD EAC4        C      	CALL	0EAC4H
  EEF5*   20 09          C      	JR	NZ,$+11	;EF00
  EEF7*   CD E957        C      	CALL	0E957H
  EEFA*   38 13          C      	JR	C,$+21	;EF0F
  EEFC*   AF             C      	XOR	A
  EEFD*   CD EAE3        C      	CALL	0EAE3H
  EF00*   1A             C      	LD	A,(DE)
  EF01*   CD EABA        C      	CALL	0EABAH
  EF04*   57             C      	LD	D,A
  EF05*   CD EADA        C      	CALL	0EADAH
  EF08*   3C             C      	INC	A
  EF09*   CD EAE3        C      	CALL	0EAE3H
  EF0C*   AF             C      	XOR	A
  EF0D*   18 02          C      	JR	$+04	;EF11
  EF0F*   3E 01          C      	LD	A,001H
  EF11*   C3 E7F0        C      	JP	0E7F0H
                         C      ;
  EF14*   3E FF          C      	LD	A,0FFH
  EF16*   F5             C      	PUSH	AF
  EF17*   E5             C      	PUSH	HL
  EF18*   CD E9DA        C      	CALL	0E9DAH
  EF1B*   28 4B          C      	JR	Z,$+77	;EF68
  EF1D*   CD E8D3        C      	CALL	0E8D3H
  EF20*   38 46          C      	JR	C,$+72	;EF68
  EF22*   CD EA01        C      	CALL	0EA01H
  EF25*   38 41          C      	JR	C,$+67	;EF68
  EF27*   FD 4E 03       C      	LD	C,(IY+03)
  EF2A*   0D             C      	DEC	C
  EF2B*   28 3B          C      	JR	Z,$+61	;EF68
  EF2D*   CD E8D3        C      	CALL	0E8D3H
  EF30*   38 40          C      	JR	C,$+66	;EF72
  EF32*   E1             C      	POP	HL
  EF33*   FD 7E 06       C      	LD	A,(IY+06)
  EF36*   BE             C      	CP	(HL)
  EF37*   E5             C      	PUSH	HL
  EF38*   20 F0          C      	JR	NZ,$-14	;EF2A
  EF3A*   23             C      	INC	HL
  EF3B*   23             C      	INC	HL
  EF3C*   FD E5          C      	PUSH	IY
  EF3E*   D1             C      	POP	DE
  EF3F*   06 04          C      	LD	B,004H
  EF41*   1A             C      	LD	A,(DE)
  EF42*   BE             C      	CP	(HL)
  EF43*   23             C      	INC	HL
  EF44*   13             C      	INC	DE
  EF45*   20 E3          C      	JR	NZ,$-27	;EF2A
  EF47*   10 F8          C      	DJNZ	$-06	;EF41
  EF49*   1A             C      	LD	A,(DE)
  EF4A*   BE             C      	CP	(HL)
  EF4B*   38 DD          C      	JR	C,$-33	;EF2A
  EF4D*   20 08          C      	JR	NZ,$+10	;EF57
  EF4F*   23             C      	INC	HL
  EF50*   13             C      	INC	DE
  EF51*   1A             C      	LD	A,(DE)
  EF52*   BE             C      	CP	(HL)
  EF53*   38 D5          C      	JR	C,$-41	;EF2A
  EF55*   2B             C      	DEC	HL
  EF56*   1B             C      	DEC	DE
  EF57*   EB             C      	EX	DE,HL
  EF58*   79             C      	LD	A,C
  EF59*   01 0002        C      	LD	BC,00002H
  EF5C*   ED B0          C      	LDIR
  EF5E*   4F             C      	LD	C,A
  EF5F*   EB             C      	EX	DE,HL
  EF60*   E1             C      	POP	HL
  EF61*   F1             C      	POP	AF
  EF62*   3E FE          C      	LD	A,0FEH
  EF64*   F5             C      	PUSH	AF
  EF65*   E5             C      	PUSH	HL
  EF66*   18 C2          C      	JR	$-60	;EF2A
                         C      ;    
  EF68*   CD E9F8        C      	CALL	0E9F8H
  EF6B*   E1             C      	POP	HL
  EF6C*   D1             C      	POP	DE
  EF6D*   3E 07          C      	LD	A,007H
  EF6F*   C3 E7F0        C      	JP	0E7F0H
  EF72*   CD E9F8        C      	CALL	0E9F8H
  EF75*   E1             C      	POP	HL
  EF76*   F1             C      	POP	AF
  EF77*   16 FF          C      	LD	D,0FFH
'SYS3 - MEOS1521 ---> Verbindungen'	MACRO-80 3.44	09-Dec-81	PAGE	1-121


  EF79*   18 F2          C      	JR	$-12	;EF6D
  EF7B*   21 F241        C      	LD	HL,0F241H
  EF7E*   36 48          C      	LD	(HL),048H
  EF80*   3A F266        C      	LD	A,(0F266H)
  EF83*   5F             C      	LD	E,A
  EF84*   3E 05          C      	LD	A,005H
  EF86*   CD CA6E        C      	CALL	0CA6EH
  EF89*   36 50          C      	LD	(HL),050H
  EF8B*   C3 C267        C      	JP	0C267H
  EF8E*   EB             C      	EX	DE,HL
  EF8F*   CD EAF3        C      	CALL	0EAF3H
  EF92*   1E 73          C      	LD	E,073H
  EF94*   23             C      	INC	HL
  EF95*   72             C      	LD	(HL),D
  EF96*   EB             C      	EX	DE,HL
  EF97*   CD E9DA        C      	CALL	0E9DAH
  EF9A*   C9             C      	RET
  EF9B*   CB 7F          C      	BIT	7,A
  EF9D*   CA E9BB        C      	JP	Z,0E9BBH
  EFA0*   CB 67          C      	BIT	4,A
  EFA2*   C0             C      	RET	NZ
  EFA3*   3E 20          C      	LD	A,020H
  EFA5*   C3 E9BE        C      	JP	0E9BEH
  EFA8*   DD 36 00 C0    C      	LD	(IX+00),0C0H
  EFAC*   3E 01          C      	LD	A,001H
  EFAE*   C3 E9C6        C      	JP	0E9C6H
                         C      ;
  EFB1*   FF             C      	RST	38H
  EFB2*   FF             C      	RST	38H
  EFB3*   FF             C      	RST	38H
  EFB4*   FF             C      	RST	38H
  EFB5*   FF             C      	RST	38H
  EFB6*   FF             C      	RST	38H
  EFB7*   FF             C      	RST	38H
  EFB8*   FF             C      	RST	38H
  EFB9*   FF             C      	RST	38H
  EFBA*   FF             C      	RST	38H
  EFBB*   FF             C      	RST	38H
  EFBC*   FF             C      	RST	38H
  EFBD*   FF             C      	RST	38H
  EFBE*   FF             C      	RST	38H
  EFBF*   FF             C      	RST	38H
                         C      ;
                         C          PAGE
'SYS3 - MEOS1521 ---> Verbindungen'	MACRO-80 3.44	09-Dec-81	PAGE	1-122


                         C      
                         C      ;	-----
  EFC0*   FE 05          C      	CP	005H		;PN K0
  EFC2*   20 02          C      	JR	NZ,$+04	;EFC6
  EFC4*   CB 9E          C      	RES	3,(HL)
  EFC6*   C3 CC25        C      	JP	0CC25H
                         C      ;	-----
  EFC9*   F3             C      	DI
  EFCA*   D3 FC          C      	OUT	(0FCH),A
  EFCC*   77             C      	LD	(HL),A
  EFCD*   FB             C      	EI
  EFCE*   C9             C      	RET
                         C      ;	-----
  EFCF*   F3             C      	DI
  EFD0*   D3 FC          C      	OUT	(0FCH),A
  EFD2*   AE             C      	XOR	(HL)
  EFD3*   FB             C      	EI
  EFD4*   C9             C      	RET
                         C      ;	-----
  EFD5*   F3             C      	DI
  EFD6*   CD F266        C      	CALL	0F266H
  EFD9*   FB             C      	EI
  EFDA*   C9             C      	RET
                         C      ;	-----
  EFDB*   F3             C      	DI
  EFDC*   78             C      	LD	A,B
  EFDD*   E6 04          C      	AND	004H
  EFDF*   C9             C      	RET
                         C      ;	-----
  EFE0*   3A F26B        C      	LD	A,(0F26BH)
  EFE3*   FB             C      	EI
  EFE4*   C9             C      	RET
                         C      ;	-----
  EFE5*   F3             C      	DI
  EFE6*   20 02          C      	JR	NZ,$+04	;EFEA
  EFE8*   D3 FC          C      	OUT	(0FCH),A
  EFEA*   72             C      	LD	(HL),D
  EFEB*   FB             C      	EI
  EFEC*   C9             C      	RET
                         C      ;	-----
  EFED*   CD E881        C      	CALL	0E881H
  EFF0*   C3 C909        C      	JP	0C909H
  EFF3*   CD E881        C      	CALL	0E881H
  EFF6*   C3 C91A        C      	JP	0C91AH
                         C      ;	-----
  EFF9*   21 F2D5        C      	LD	HL,0F2D5H
  EFFC*   C3 B573        C      	JP	0B573H
                         C      ;	-----
  EFFF*   FF             C      	RST	38H
  F000*   FF             C      	RST	38H
  F001*   FF             C      	RST	38H
  F002*   FF             C      	RST	38H
  F003*   FF             C      	RST	38H
  F004*   FF             C      	RST	38H
  F005*   FF             C      	RST	38H
  F006*   FF             C      	RST	38H
  F007*   FF             C      	RST	38H
  F008*   FF             C      	RST	38H
  F009*   FF             C      	RST	38H
  F00A*   FF             C      	RST	38H
  F00B*   FF             C      	RST	38H
  F00C*   FF             C      	RST	38H
  F00D*   FF             C      	RST	38H
  F00E*   FF             C      	RST	38H
  F00F*   FF             C      	RST	38H
  F010*   FF             C      	RST	38H
  F011*   FF             C      	RST	38H
                         C      ;
  F012*                  C      ENDE3 EQU $
                                
                                	TITLE ''
                                	END
''	MACRO-80 3.44	09-Dec-81	PAGE	S


Macros:

Symbols:
0100 	A0100           012A 	A012A           0134 	A0134           
014B 	A014B           0178 	A0178           017E 	A017E           
019B 	A019B           01A8 	A01A8           01C5 	A01C5           
01D8 	A01D8           01E5 	A01E5           01E6 	A01E6           
01EB 	A01EB           0214 	A0214           02A3 	A02A3           
02E1 	A02E1           02F3 	A02F3           0302 	A0302           
0310 	A0310           0311 	A0311           0317 	A0317           
031A 	A031A           0331 	A0331           042B 	A042B           
0640 	A0640           A000*	AA000           A008*	AA008           
A028*	AA028           A066*	AA066           A068*	AA068           
A074*	AA074           A09F*	AA09F           B400*	B400            
B403*	B403            B40F*	B40F            B524*	B524            
B6BE*	B6BE            B760*	B760            B897*	B897            
B8E0*	B8E0            BA01*	BA01            BA2A*	BA2A            
BAB9*	BAB9            BB45*	BB45            BC00*	BC00            
BD80*	BD80            BD87*	BD87            BE6C*	BE6C            
BEC2*	BEC2            BEE7*	BEE7            BF77*	BF77            
C08C*	C08C            C0AC*	C0AC            C159*	C159            
C169*	C169            C189*	C189            C20E*	C20E            
C405*	C405            C462*	C462            C4A3*	C4A3            
C594*	C594            C5AB*	C5AB            C662*	C662            
C6FC*	C6FC            C721*	C721            CA44*	CA44            
CA6E*	CA6E            CDBA*	CDBA            01B0 	D01B0           
035A 	D035A           037E 	D037E           038E 	D038E           
0393 	D0393           0398 	D0398           039F 	D039F           
03B7 	D03B7           03C0 	D03C0           03FE 	D03FE           
0400 	D0400           0421 	D0421           043D 	D043D           
0443 	D0443           04AF 	D04AF           04C0 	D04C0           
04CE 	D04CE           04D6 	D04D6           04E4 	D04E4           
04EC 	D04EC           0580 	D0580           058A 	D058A           
059E 	D059E           05A4 	D05A4           05A9 	D05A9           
05AE 	D05AE           05B3 	D05B3           05B8 	D05B8           
05C8 	D05C8           05D1 	D05D1           0613 	D0613           
0618 	D0618           061D 	D061D           0622 	D0622           
0627 	D0627           062C 	D062C           0631 	D0631           
0636 	D0636           063B 	D063B           074E 	D074E           
07FC 	D07FC           D378*	D378            D862*	D862            
A800*	ENDE1           DFA7*	ENDE2           F012*	ENDE3           
BF77*	MEM             BEE7*	MOVE            



No Fatal error(s)


