	MACRO-80 3.44	09-Dec-81	PAGE	1


                                ;--------------------------\            ; Vorspann fuer BIN-Datei
  0000*   F0                                DB      0F0H                ; Startbyte ---> weitere BIN-Datei
  0001*   53 32 31                          DB      'S21'               ;                Name der BIN-Datei
  0004*                                     DS      25,0
  001D*   02                                DB      002H                ; HS-Bereich : 2
  001E*   0000                              DW      00000H              ; Ladeadresse: B000H
                                ;--------------------------/
                                
                                ;	PN	BC11
                                ;****************************************************************
                                ;*               B  A  S  I  C   -   I n t e r p r e t e r      *
                                ;*               -----------------------------------------------*
                                ;*               reassembliert: M. Herbote --- K EAW  ZFT (WFT) *
                                ;*               -----------------------------------------------*
                                ;*               Stand        : 07.Juni 1984                    *
                                ;****************************************************************
                                
                                            PAGE    87
	MACRO-80 3.44	09-Dec-81	PAGE	1-1


                                
                         C                  INCLUDE incBC11a.MAC
                         C      ;****************************************************************
                         C      ;*               Variablen - Deklarationen                      *
                         C      ;****************************************************************
  01A4                   C      BC.AKJPB    EQU     001A4H
  00FF                   C      BC.D001     EQU     000FFH
  0100                   C      BC.D002     EQU     BC.D001+1
  0101                   C      BC.D003     EQU     BC.D002+1
  0102                   C      BC.D004     EQU     BC.D003+1
  0103                   C      BC.D005     EQU     BC.D004+1
  0104                   C      BC.D006     EQU     BC.D005+1
  0106                   C      BC.D007     EQU     BC.D006+2
  0108                   C      BC.D008     EQU     BC.D007+2
  011E                   C      BC.D009     EQU     BC.D008+22
  0144                   C      BC.D010     EQU     BC.D009+38
  0146                   C      BC.D011     EQU     BC.D010+2
  0148                   C      BC.D012     EQU     BC.D011+2
  014A                   C      BC.D013     EQU     BC.D012+2
  014C                   C      BC.D014     EQU     BC.D013+2
  014E                   C      BC.D015     EQU     BC.D014+2
  014F                   C      BC.D016     EQU     BC.D015+1
  0150                   C      BC.D017     EQU     BC.D016+1
  0152                   C      BC.D018     EQU     BC.D017+2
  0154                   C      BC.D019     EQU     BC.D018+2
  0156                   C      BC.D020     EQU     BC.D019+2
  0158                   C      BC.D021     EQU     BC.D020+2
  015A                   C      BC.D022     EQU     BC.D021+2
  015C                   C      BC.D023     EQU     BC.D022+2
  015E                   C      BC.D024     EQU     BC.D023+2
  0160                   C      BC.D025     EQU     BC.D024+2
  0162                   C      BC.D026     EQU     BC.D025+2
  0164                   C      BC.D027     EQU     BC.D026+2
  0165                   C      BC.D028     EQU     BC.D027+1
  0166                   C      BC.D029     EQU     BC.D028+1
  0168                   C      BC.D030     EQU     BC.D029+2
  016A                   C      BC.D031     EQU     BC.D030+2
  016B                   C      BC.D032     EQU     BC.D031+1
  016C                   C      BC.D033     EQU     BC.D032+1
  016D                   C      BC.D034     EQU     BC.D033+1
  016E                   C      BC.D035     EQU     BC.D034+1
  0187                   C      BC.D036     EQU     BC.D035+25
  0189                   C      BC.D037     EQU     BC.D036+2
  018B                   C      BC.D038     EQU     BC.D037+2
  018D                   C      BC.D039     EQU     BC.D038+2
  018E                   C      BC.D040     EQU     BC.D039+1
  0190                   C      BC.D041     EQU     BC.D040+2
  0191                   C      BC.D042     EQU     BC.D041+1
  0192                   C      BC.D043     EQU     BC.D042+1
  0195                   C      BC.D044     EQU     BC.D043+3
  0196                   C      BC.D045     EQU     BC.D044+1
  0197                   C      BC.D046     EQU     BC.D045+1
  019A                   C      BC.D047     EQU     BC.D046+3
  019C                   C      BC.D048     EQU     BC.D047+2
  019E                   C      BC.D049     EQU     BC.D048+2
  019F                   C      BC.D050     EQU     BC.D049+1
  01A1                   C      BC.D051     EQU     BC.D050+2
  01A3                   C      BC.D052     EQU     BC.D051+2
  01A4                   C      BC.D053     EQU     BC.D052+1
  01A5                   C      BC.D054     EQU     BC.D053+1
  01A7                   C      BC.D055     EQU     BC.D054+2
  01A8                   C      BC.D056     EQU     BC.D055+1
  01AA                   C      BC.D057     EQU     BC.D056+2
  01AB                   C      BC.D058     EQU     BC.D057+1
  01AC                   C      BC.D059     EQU     BC.D058+1
  01AE                   C      BC.D060     EQU     BC.D059+2
  01AF                   C      BC.D061     EQU     BC.D060+1
  01B0                   C      BC.D062     EQU     BC.D061+1
  01B1                   C      BC.D063     EQU     BC.D062+1
  02B0                   C      BC.D064     EQU     BC.D063+255
  02F8                   C      BC.D065     EQU     BC.D064+72
  02FF                   C      BC.D066     EQU     BC.D065+7
                                
                                            PAGE
	MACRO-80 3.44	09-Dec-81	PAGE	1-2


                                
                                            .PHASE  00000H
                         C                  INCLUDE incBC11b.MAC
                         C      ;
                         C      ;           Bereich  00100H bis 002FFH
                         C      ;
  0000                   C                  DS      010H,0FFH
  0010    33 33          C                  DB      '33'
  0012    CD E9F2        C                  CALL    0E9F2H  ;???
  0015    3E BF          C                  LD      A,0BFH
  0017    D3 C0          C                  OUT     (0C0H),A
  0019    3E 87          C                  LD      A,087H
  001B    D3 C1          C                  OUT     (0C1H),A
  001D    21 B220        C                  LD      HL,0B220H   ;???
  0020    11 2FB7        C                  LD      DE,02FB7H   ;???
  0023    01 00C0        C                  LD      BC,000C0H
  0026    ED B0          C                  LDIR
  0028    3E 85          C                  LD      A,085H
  002A    D3 C1          C                  OUT     (0C1H),A
  002C    3E B7          C                  LD      A,0B7H
  002E    D3 C0          C                  OUT     (0C0H),A
  0030    21 306B        C                  LD      HL,0306BH   ;???
  0033    22 0150        C                  LD      (00150H),HL ;???
  0036    23             C                  INC     HL
  0037    22 015E        C                  LD      (0015EH),HL ;???
  003A    22 0160        C                  LD      (00160H),HL ;???
  003D    22 0162        C                  LD      (00162H),HL ;???
  0040    CD EA0E        C                  CALL    0EA0EH  ;???
  0043    C9             C                  RET
  0044                   C                  DS      02CH,0FFH
                         C      ;
  0070    33 33          C                  DB      '33'
  0072    CD E9F2        C                  CALL    0E9F2H  ;???
  0075    CD C131        C                  CALL    0C131H  ;???
  0078    CD EA0E        C                  CALL    0EA0EH  ;???
  007B    C9             C                  RET
  007C                   C                  DS      4,0FFH
                         C      ;
  0080    33 33          C                  DB      '33'
  0082    CD E9F2        C                  CALL    0E9F2H  ;???
  0085    CD C96D        C                  CALL    0C96DH  ;???
  0088    21 0015        C                  LD      HL,00015H
  008B    22 B213        C                  LD      (0B213H),HL ;???
  008E    CD EA0E        C                  CALL    0EA0EH  ;???
  0091    C9             C                  RET
  0092                   C                  DS      8,0
                         C      ;
  009A    DB A1          C                  IN      A,(0A1H)
  009C    CB 5F          C                  BIT     3,A
  009E    C9             C                  RET
  009F    00             C                  NOP
                         C      ;
  00A0                   C                  DS      2,0
  00A2    CD C1C0        C                  CALL    0C1C0H  ;???
  00A5    C9             C                  RET
                         C      ;
  00A6    CD E9F2        C                  CALL    0E9F2H  ;???
  00A9    CD 0327        C                  CALL    00327H  ;???
  00AC    D5             C                  PUSH    DE
  00AD    CD 0092        C                  CALL    00092H  ;???
  00B0    20 FB          C                  JR      NZ,$-3
  00B2    CD 009F        C                  CALL    0009FH  ;???
  00B5    FE FC          C                  CP      0FCH
  00B7    30 08          C                  JR      NC,$+10
  00B9    FE 80          C                  CP      080H
  00BB    38 F0          C                  JR      C,$-14
  00BD    FE 8C          C                  CP      08CH
  00BF    30 EC          C                  JR      NC,$-18
  00C1    D1             C                  POP     DE
  00C2    E6 0F          C                  AND     00FH
  00C4    BB             C                  CP      E
  00C5    30 E5          C                  JR      NC,$-25
  00C7    47             C                  LD      B,A
  00C8    04             C                  INC     B
  00C9    AF             C                  XOR     A
  00CA    CD 032A        C                  CALL    0032AH  ;???
  00CD    CD 0092        C                  CALL    00092H  ;???
  00D0    28 FB          C                  JR      Z,$-3
  00D2    CD EA0E        C                  CALL    0EA0EH  ;???
  00D5    C9             C                  RET
  00D6                   C                  DS      4,0FFH            
                         C      ;
	MACRO-80 3.44	09-Dec-81	PAGE	1-3


  00DA    33 33          C                  DB      '33'
  00DC    CD E9F2        C                  CALL    0E9F2H  ;???
  00DF    21 FF01        C                  LD      HL,0FF01H
  00E2    22 0310        C                  LD      (00310H),HL ;???
  00E5    21 00F0        C                  LD      HL,000F0H
  00E8    22 030A        C                  LD      (0030AH),HL ;??? 
  00EB    00             C                  NOP
  00EC    CD EA0E        C                  CALL    0EA0EH  ;???
  00EF    C9             C                  RET
                         C      ;
  00F0    CD E8ED        C                  CALL    0E8EDH  ;???
  00F3    FE 0A          C                  CP      00AH
  00F5    28 06          C                  JR      Z,$+8
  00F7    FE 20          C                  CP      ' '
  00F9    38 F5          C                  JR      C,$-9
  00FB    C9             C                  RET
                         C      ;
  00FC    FF             C                  DB      0FFH
  00FD    3E 0D          C                  LD      A,00DH
  00FF    C9             C                  RET
                         C                  PAGE
	MACRO-80 3.44	09-Dec-81	PAGE	1-4


                         C      
                         C      ;****************************************************************
                         C      ;*               Pruefsummen-Programm                           *
                         C      ;*               Aufruf  :     EXEC 0100                        *
                         C      ;*               Ergebnis:     Pruefsummen stehen ab 4000H      *
                         C      ;****************************************************************
                         C      ;           ORG     00100H
  0100    21 4000        C                  LD      HL,04000H           ;Ergebnisbereich loeschen
  0103    11 4001        C                  LD      DE,04001H
  0106    01 0100        C                  LD      BC,00100H
  0109    36 00          C                  LD      (HL),0
  010B    ED B0          C                  LDIR
  010D    DD 21 4000     C                  LD      IX,04000H
  0111    11 0300        C                  LD      DE,00300H
  0114    01 002F        C                  LD      BC,0002FH
  0117    C5             C      BC.J001:    PUSH    BC
  0118    21 0000        C                  LD      HL,00000H
  011B    01 0100        C                  LD      BC,BC.D002
  011E    1A             C                  LD      A,(DE)
  011F    D5             C                  PUSH    DE
  0120    5F             C                  LD      E,A
  0121    16 00          C                  LD      D,000H
  0123    19             C                  ADD     HL,DE
  0124    D1             C                  POP     DE
  0125    13             C                  INC     DE
  0126    0B             C                  DEC     BC
  0127    78             C                  LD      A,B
  0128    B1             C                  OR      C
  0129    20 F3          C                  JR      NZ,$-11
  012B    DD 75 00       C                  LD      (IX+00),L
  012E    DD 74 01       C                  LD      (IX+01),H
  0131    DD 23          C                  INC     IX
  0133    DD 23          C                  INC     IX
  0135    C1             C                  POP     BC
  0136    0B             C                  DEC     BC
  0137    78             C                  LD      A,B
  0138    B1             C                  OR      C
  0139    C2 0117        C                  JP      NZ,BC.J001
  013C    7F             C                  LD      A,A
  013D    00             C                  NOP
  013E    00             C                  NOP
  013F    00             C                  NOP
  0140    03             C                  INC     BC
  0141    3E 0A          C                  LD      A,00AH
  0143    CD 01F3        C                  CALL    001F3H  ;???
  0146    01 0002        C                  LD      BC,00002H
  0149    11 0909        C                  LD      DE,00909H   ;???
  014C    21 0107        C                  LD      HL,00107H   ;???
  014F    ED B0          C                  LDIR
  0151    16 1F          C                  LD      D,01FH
  0153    CD 01FE        C                  CALL    001FEH  ;???
  0156    01 0419        C                  LD      BC,00419H   ;???
  0159    CD 0202        C                  CALL    00202H  ;???
  015C    01 0010        C                  LD      BC,00010H
  015F    21 0900        C                  LD      HL,00900H
  0162    CD 01F1        C                  CALL    001F1H  ;???
  0165    01 0007        C                  LD      BC,00007H
  0168    21 090F        C                  LD      HL,0090FH
  016B    CD 01F1        C                  CALL    001F1H  ;???
  016E    DD 36 0B 00    C                  LD      (IX+11),0
  0172    01 0600        C                  LD      BC,00600H   ;???
  0175    CD 0202        C                  CALL    00202H  ;???
  0178    01 0025        C                  LD      BC,25H
  017B    21 0885        C                  LD      HL,00885H   ;???
  017E    CD 01F1        C                  CALL    001F1H  ;???
  0181    0E 03          C                  LD      C,3
  0183    21 0895        C                  LD      HL,00895H   ;???
  0186    CD 01F1        C                  CALL    001F1H  ;???
  0189    16 53          C                  LD      D,53H
  018B    CD 01FE        C                  CALL    001FEH  ;???
  018E    21 0899        C                  LD      HL,00899H   ;???
  0191    0E 4B          C                  LD      C,4BH
  0193    CD 01F1        C                  CALL    001F1H  ;???
  0196    FD 21 07A6     C                  LD      IY,007A6H   ;???
  019A    CD 010C        C                  CALL    00010CH ;???
  019D    CA 01D0        C                  JP      Z,001D0H    ;???
  01A0    21 07AE        C                  LD      HL,007AEH   ;???
  01A3    7E             C                  LD      A,(HL)
  01A4    FE 46          C                  CP      046H
  01A6    CA 0208        C                  JP      Z,00208H    ;???
  01A9    FE 41          C                  CP      041H
  01AB    CA 03D3        C                  JP      Z,003D3H    ;???
	MACRO-80 3.44	09-Dec-81	PAGE	1-5


  01AE    FE 53          C                  CP      053H
  01B0    CA 03C8        C                  JP      Z,003C8H    ;???
  01B3    01 0500        C                  LD      BC,00500H   ;???
  01B6    CD 0202        C                  CALL    00202H  ;???
  01B9    C3 0165        C                  JP      00165H  ;???
                         C      ;
  01BC    3A 0794        C                  LD      A,(00794H)  ;???
  01BF    5F             C                  LD      E,A
  01C0    CD 01FA        C                  CALL    001FAH  ;???
  01C3    31 0100        C                  LD      SP,00100H
  01C6    18 EB          C                  JR      $-19
                         C      ;
  01C8    DD 5E 00       C                  LD      E,(IX+0)
  01CB    3E 04          C                  LD      A,4
  01CD    CD 0109        C                  CALL    00109H  ;???
  01D0    1E 44          C                  LD      E,044H
  01D2    CD 01FA        C                  CALL    001FAH  ;???
  01D5    C3 010F        C                  JP      0010FH  ;???
                         C      ;
  01D8    CD 01DD        C                  CALL    001DDH  ;???
  01DB    18 EB          C                  JR      $-19
                         C      ;
  01DD    DD 5E 01       C                  LD      E,(IX+1)
  01E0    CD 01FA        C                  CALL    001FAH  ;???
  01E3    C9             C                  RET
                         C      ;
  01E4    3E 03          C                  LD      A,3
  01E6    21 085A        C                  LD      HL,0085AH   ;???
  01E9    CD 0109        C                  CALL    00109H  ;???
  01EC    B7             C                  OR      A
  01ED    C2 0120        C                  JP      NZ,00120H   ;???
  01F0    C9             C                  RET
                         C      ;
  01F1    3E 0D          C                  LD      A,00DH
  01F3    11 0044        C                  LD      DE,00044H   ;???
  01F6    CD 0109        C                  CALL    00109H  ;???
  01F9    C9             C                  RET
                         C      ;
  01FA    3E 05          C                  LD      A,5
  01FC    18 F8          C                  JR      $-6
                         C      ;
  01FE    3E 01          C                  LD      A,1
  0200    18 02          C                  JR      $+4
                         C      ;
  0202    3E 0B          C                  LD      A,00BH
  0204    1E 44          C                  LD      E,044H
  0206    18 EE          C                  JR      $-16
                         C      ;
  0208    CD 04D5        C                  CALL    004D5H  ;???
  020B    DD 36 07 00    C                  LD      (IX+7),0
  020F    16 46          C                  LD      D,046H
  0211    CD 01FE        C                  CALL    001FEH  ;???
  0214    0E 0D          C                  LD      C,00DH
  0216    21 085C        C                  LD      HL,0085CH   ;???
  0219    CD 01F1        C                  CALL    001F1H  ;???
  021C    FD 21 07A6     C                  LD      IY,007A6H   ;???
  0220    CD 010C        C                  CALL    0010CH  ;???
  0223    3A 07AE        C                  LD      A,(007AEH)  ;???
  0226    CA 01D0        C                  JP      Z,001D0H    ;???
  0229    FE 44          C                  CP      044H
  022B    28 DB          C                  JR      Z,$-35
  022D    FE 48          C                  CP      048H
  022F    28 D7          C                  JR      Z,$-39
  0231    32 0795        C                  LD      (00795H),A  ;???
  0234    01 000D        C                  LD      BC,0000DH
  0237    21 0869        C                  LD      HL,00869H   ;???
  023A    CD 01F1        C                  CALL    001F1H  ;???
  023D    FD 21 07AA     C                  LD      IY,007AAH   ;???
  0241    CD 010C        C                  CALL    0010CH  ;???
  0244    CA 01C3        C                  JP      Z,001C3H    ;???
  0247    FD 5E 00       C                  LD      E,(IY+0)
  024A    FD 56 01       C                  LD      D,(IY+1)
  024D    FD 6E 02       C                  LD      L,(IY+2)
  0250    FD 66 03       C                  LD      H,(IY+3)
  0253    23             C                  INC     HL
  0254    7E             C                  LD      A,(HL)
  0255    E6 7F          C                  AND     07FH
  0257    FE 20          C                  CP      020H
  0259    20 07          C                  JR      NZ,$+9
  025B    E5             C                  PUSH    HL
  025C    ED 52          C                  SBC     HL,DE
  025E    E1             C                  POP     HL
  025F    2B             C                  DEC     HL
	MACRO-80 3.44	09-Dec-81	PAGE	1-6


  0260    20 F2          C                  JR      NZ,$-12
  0262    7E             C                  LD      A,(HL)
  0263    FE 2C          C                  CP      02CH
  0265    28 01          C                  JR      Z,$+3
  0267    23             C                  INC     HL
  0268    36 FF          C                  LD      (HL),0FFH
  026A    B7             C                  OR      A
  026B    ED 52          C                  SBC     HL,DE
  026D    22 0798        C                  LD      (00798H),HL ;???
  0270    42             C                  LD      B,D
  0271    4B             C                  LD      C,E
  0272    11 0928        C                  LD      DE,00928H   ;???
  0275    FD 6E 00       C                  LD      L,(IY+0)
  0278    FD 66 01       C                  LD      H,(IY+1)
  027B    ED B0          C                  LDIR
  027D    01 0B05        C                  LD      BC,00B05H   ;???
  0280    CD 05B0        C                  CALL    005B0H  ;???
  0283    30 02          C                  JR      NC,$+4
  0285    20 F6          C                  JR      NZ,$-8
  0287    B7             C                  OR      A
  0288    CC 05E2        C                  CALL    Z,005E2H    ;???
  028B    01 0C07        C                  LD      BC,00C07H   ;???
  028E    CD 05ED        C                  CALL    005EDH  ;???
  0291    DD 7E 02       C                  LD      A,(IX+2)
  0294    FE 52          C                  CP      052H
  0296    28 02          C                  JR      Z,$+4
  0298    FE 50          C                  CP      050H
  029A    DD 36 08 06    C                  LD      (IX+8),6
  029E    28 04          C                  JR      Z,$+6
  02A0    DD 36 08 04    C                  LD      (IX+8),4
  02A4    21 0928        C                  LD      HL,00928H   ;???
  02A7    E5             C                  PUSH    HL
  02A8    01 00FE        C                  LD      BC,000FEH
  02AB    7E             C                  LD      A,(HL)
  02AC    23             C                  INC     HL
  02AD    0C             C                  INC     C
  02AE    FE FF          C                  CP      0FFH
  02B0    28 04          C                  JR      Z,$+6
  02B2    FE 2C          C                  CP      02CH
  02B4    20 F5          C                  JR      NZ,$-9
  02B6    E1             C                  POP     HL
  02B7    F5             C                  PUSH    AF
  02B8    E5             C                  PUSH    HL
  02B9    C5             C                  PUSH    BC
  02BA    CD 03AD        C                  CALL    003ADH  ;???
  02BD    C1             C                  POP     BC
  02BE    E1             C                  POP     HL
  02BF    DD 7E 08       C                  LD      A,(IX+8)
  02C2    B9             C                  CP      C
  02C3    F5             C                  PUSH    AF
  02C4    38 22          C                  JR      C,$+24H
  02C6    03             C                  INC     BC
  02C7    3E 06          C                  LD      A,6
  02C9    DD BE 08       C                  CP      (IX+8)
  02CC    11 07A0        C                  LD      DE,007A0H   ;???
  02CF    28 03          C                  JR      Z,$+5
  02D1    11 07A2        C                  LD      DE,007A2H   ;???
  02D4    ED B0          C                  LDIR
  02D6    F1             C                  POP     AF
  02D7    DA 039C        C                  JP      C,0039CH    ;???
  02DA    23             C                  INC     HL
  02DB    E5             C                  PUSH    HL
  02DC    CD 02ED        C                  CALL    002EDH  ;???
  02DF    E1             C                  POP     HL
  02E0    F1             C                  POP     AF
  02E1    FE FF          C                  CP      0FFH
  02E3    20 C2          C                  JR      NZ,$-60
  02E5    C3 01B3        C                  JP      001B3H  ;???
  02E8    DD 4E 08       C                  LD      C,(IX+8)
  02EB    18 DA          C                  JR      $-36
                         C      ;
  02ED    CD 0510        C                  CALL    00510H  ;???
  02F0    CD 0526        C                  CALL    00526H  ;???
  02F3    3A 079F        C                  LD      A,(0079FH)  ;???
  02F6    B7             C                  OR      A
  02F7    20 13          C                  JR      NZ,$+15H
  02F9    01 0C2D        C                  LD      BC,00C2DH   ;???
  02FC    CD 0202        C                  CALL    00202H  ;???
  02FF    01             C                  DB      1
                         C      ;            
                                            PAGE
	MACRO-80 3.44	09-Dec-81	PAGE	1-7


                                
                                ;****************************************************************
                                ;*               Systemroutinen - Sprungverteiler               *
                                ;****************************************************************
  0300    C3 2FC9               BC.INIT:    JP      BC.J118
  0303    C3 0473               BC.RECOV:   JP      BC.J006
  0306    C3 0A44               BC.USR:     JP      BC.J033
  0309    C3 0000               BC.CIN:     JP      0
  030C    C3 0000               BC.RIV:     JP      0
  030F    C3 0000               BC.CON:     JP      0
  0312    C3 0000               BC.WRTV:    JP      0
  0315    C3 0000               BC.LISTX:   JP      0
  0318    C3 0000               BC.CSTSX:   JP      0
  031B    C3 0000               BC.IOCHX:   JP      0
  031E    C3 0000               BC.IOSTX:   JP      0
  0321    C3 0000               BC.MEMCK:   JP      0
  0324    C3 0000               BC.TRAPX:   JP      0
  0327    C3 0A2D               BC.PAR:     JP      BC.C043
  032A    C3 121E               BC.RUCK:    JP      BC.J050
                                ;****************************************************************
                                ;*               T O K E N  -  Adresstabellen                   *
                                ;****************************************************************
  032D    22A3                  BC.TB1:     DW      BC.SGN
  032F    23AD                              DW      BC.INT
  0331    22CE                              DW      BC.ABS
  0333    0306                              DW      BC.USR
  0335    11F6                              DW      BC.FRE
  0337    16D4                              DW      BC.INP
  0339    122F                              DW      BC.POS
  033B    2A0E                              DW      BC.SQR
  033D    2B0E                              DW      BC.RND
  033F    20EB                              DW      BC.LOG
  0341    2A64                              DW      BC.EXP
  0343    2B4A                              DW      BC.COS
  0345    2B50                              DW      BC.SIN
  0347    2BD3                              DW      BC.TAN
  0349    2BEA                              DW      BC.ATN
  034B    1F6A                              DW      BC.PEEK
  034D    1599                              DW      BC.LEN
  034F    13BA                              DW      BC.STRD
  0351    172B                              DW      BC.VAL
  0353    15A8                              DW      BC.ASC
  0355    15B6                              DW      BC.CHRD
  0357    15C6                              DW      BC.LEFTD
  0359    15F6                              DW      BC.RGHTD
  035B    15FF                              DW      BC.MIDD
  035D    122A                              DW      BC.LPOS
  035F    162E                              DW      BC.INSTR
                                
  0361    79                    BC.TB2:     DB      79H                 ;TAB
  0362    24A7                              DW      24A7H
  0364    79                                DB      79H                 ;TO
  0365    1F8D                              DW      1F8DH
  0367    7C                                DB      7CH                 ;FN
  0368    213B                              DW      213BH
  036A    7C                                DB      7CH                 ;SPC
  036B    21BF                              DW      21BFH
  036D    7F                                DB      7FH                 ;THEN
  036E    2A17                              DW      2A17H
  0370    50                                DB      50H                 ;NOT
  0371    0FBD                              DW      0FBDH
  0373    46                                DB      46H                 ;STEP
  0374    0FBC                              DW      0FBCH
                                
  0376    09C3                  BC.TB3:     DW      BC.END
  0378    086A                              DW      BC.FOR
  037A    0E3B                              DW      BC.NEXT
  037C    0B0B                              DW      BC.DATA
  037E    0D55                              DW      BC.INPUT
  0380    1065                              DW      BC.DIM
  0382    0DA6                              DW      BC.READ
  0384    0B27                              DW      BC.LET
  0386    0AC5                              DW      BC.GOTO
  0388    131D                              DW      BC.FNEND
  038A    0C23                              DW      BC.IF
  038C    096A                              DW      BC.REST
  038E    0AA8                              DW      BC.GOSUB
  0390    0AE6                              DW      BC.RETRN
  0392    0B0D                              DW      BC.DATA+2           ;REM
  0394    09C1                              DW      BC.STOP
  0396    16DD                              DW      BC.OUT
  0398    0C06                              DW      BC.ON
	MACRO-80 3.44	09-Dec-81	PAGE	1-8


  039A    09FC                              DW      BC.NULL
  039C    16E3                              DW      BC.WAIT
  039E    1236                              DW      BC.DEF
  03A0    1F71                              DW      BC.POKE
  03A2    0C5C                              DW      BC.PRINT
  03A4    0C5C                              DW      BC.PRINT            ;"?"
  03A6    0D55                  BC.GRF1:    DW      BC.INPUT            ;LISTEN
  03A8    0A72                              DW      BC.CLEAR
  03AA    131D                              DW      BC.FNRTN
  03AC    17C5                              DW      BC.SAVE
  03AE    0B0D                              DW      BC.DATA+2           ;"!"
                                
  03B0    0B0D                  BC.TB4:     DW      BC.DATA+2
  03B2    0C59                              DW      BC.LPRNT
  03B4    1ADB                              DW      BC.TRACE
  03B6    1AD8                              DW      BC.LTRCE
  03B8    1C84                              DW      BC.RANDO
  03BA    1746                              DW      BC.SWTCH
  03BC    1762                              DW      BC.LWDTH
  03BE    09F9                              DW      BC.LNULL
  03C0    1765                              DW      BC.WIDTH
  03C2    1C9E                              DW      BC.LVAR
  03C4    1C9B                              DW      BC.LLVAR
  03C6    0C5C                  BC.SVC1:    DW      BC.PRINT            ;SPEAK
  03C8    046D                              DW      BC.J004             ;"'"
  03CA    1F59                              DW      BC.PREC
  03CC    1F26                              DW      BC.CALL
  03CE    1EF9                              DW      BC.KILL
  03D0    1EB6                              DW      BC.EXCH
  03D2    0D4F                              DW      BC.LINE
  03D4    1DB0                              DW      BC.LOADG
  03D6    0A9D                              DW      BC.RUN
  03D8    17FE                              DW      BC.LOAD
  03DA    05B3                              DW      BC.NEW
  03DC    0D24                              DW      BC.AUTO
  03DE    1DF2                              DW      BC.COPY
  03E0    1D6B                              DW      BC.ALODC
  03E2    1D6E                              DW      BC.AMRGC
  03E4    1CF2                              DW      BC.ALOAD
  03E6    1CF5                              DW      BC.AMRG
  03E8    1841                              DW      BC.ASAVE
  03EA    07EF                              DW      BC.LIST
  03EC    07EC                              DW      BC.LLIST
  03EE    18B3                              DW      BC.RENB
  03F0    1AA3                              DW      BC.DELET
  03F2    1AFE                              DW      BC.EDIT
  03F4    09E7                              DW      BC.CONT
                                
                                            PAGE
	MACRO-80 3.44	09-Dec-81	PAGE	1-9


                                
  03F6    21 0004               BC.C001:    LD      HL,4
  03F9    39                                ADD     HL,SP
  03FA    01 0011                           LD      BC,17
  03FD    7E                                LD      A,M
  03FE    23                                INC     HL
  03FF    FE 81                             CP      081H
  0401    C0                                RET     NZ
  0402    7E                                LD      A,M
  0403    23                                INC     HL
  0404    E5                                PUSH    HL
  0405    66                                LD      H,M
  0406    6F                                LD      L,A
  0407    7A                                LD      A,D
  0408    B3                                OR      E
  0409    EB                                EX      DE,HL
  040A    28 07                             JR      Z,$+09
  040C    EB                                EX      DE,HL
  040D    7C                                LD      A,H
  040E    92                                SUB     D
  040F    20 02                             JR      NZ,$+04
  0411    7D                                LD      A,L
  0412    93                                SUB     E
  0413    E1                                POP     HL
  0414    23                                INC     HL
  0415    C8                                RET     Z
  0416    09                                ADD     HL,BC
  0417    18 E4                             JR      $-26
                                
  0419    CD 043E               BC.C002:    CALL    BC.C005
  041C    C5                                PUSH    BC
  041D    E3                                EX      (SP),HL
  041E    C1                                POP     BC
  041F    B7                    BC.C003:    OR      A
  0420    E5                                PUSH    HL
  0421    ED 52                             SBC     HL,DE
  0423    C5                                PUSH    BC
  0424    E3                                EX      (SP),HL
  0425    C1                                POP     BC
  0426    EB                                EX      DE,HL
  0427    E3                                EX      (SP),HL
  0428    03                                INC     BC
  0429    ED B8                             LDDR
  042B    23                                INC     HL
  042C    13                                INC     DE
  042D    42                                LD      B,D
  042E    4B                                LD      C,E
  042F    D1                                POP     DE
  0430    C9                                RET
                                
  0431    E5                    BC.C004:    PUSH    HL
  0432    2A 0162                           LD      HL,(BC.D026)
  0435    06 00                             LD      B,000H
  0437    09                                ADD     HL,BC
  0438    09                                ADD     HL,BC
  0439    CD 043E                           CALL    BC.C005
  043C    E1                                POP     HL
  043D    C9                                RET
                                
  043E    D5                    BC.C005:    PUSH    DE
  043F    EB                                EX      DE,HL
  0440    21 FFD8                           LD      HL,0FFD8H
  0443    39                                ADD     HL,SP
  0444    7C                                LD      A,H
  0445    92                                SUB     D
  0446    20 02                             JR      NZ,$+04
  0448    7D                                LD      A,L
  0449    93                                SUB     E
  044A    EB                                EX      DE,HL
  044B    D1                                POP     DE
  044C    D0                                RET     NC
  044D    1E 07                 BC.J002:    LD      E,007H
  044F    18 2D                             JR      $+47
                                
  0451    BE                    BC.C006:    CP      M
  0452    CA 0947                           JP      Z,BC.C031
  0455    18 16                             JR      $+24
                                
  0457    3A 014F               BC.J003:    LD      A,(BC.D016)
  045A    B7                                OR      A
  045B    20 0A                             JR      NZ,$+12
  045D    C1                                POP     BC
	MACRO-80 3.44	09-Dec-81	PAGE	1-10


  045E    21 2F84                           LD      HL,BC.D126
  0461    CD 07BD                           CALL    BC.C027
  0464    C3 05F4                           JP      BC.J018
  0467    2A 014C                           LD      HL,(BC.D014)
  046A    22 0154                           LD      (BC.D019),HL
  046D    1E 02                 BC.J004:    LD      E,2
  046F    01                                DB      1
  0470    1E 0B                 BC.J005:    LD      E,11
  0472    01                                DB      1
  0473    1E 16                 BC.J006:    LD      E,22
  0475    01                                DB      1
  0476    1E 0A                 BC.J007:    LD      E,10
  0478    01                                DB      1
  0479    1E 12                 BC.J008:    LD      E,18
  047B    01                                DB      1
  047C    1E 01                 BC.J009:    LD      E,1
  047E    CD 05DB               BC.J010:    CALL    BC.C014
  0481    CD 05F8                           CALL    BC.C015
  0484    CD 0CEE                           CALL    BC.C048
  0487    21 2E12                           LD      HL,BC.D123
  048A    1D                                DEC     E
  048B    28 07                             JR      Z,$+09
  048D    CB 7E                             BIT     7,M
  048F    23                                INC     HL
  0490    28 FB                             JR      Z,$-03
  0492    18 F6                             JR      $-08
                                
  0494    CD 07BD               BC.J011:    CALL    BC.C027
  0497    2A 0154                           LD      HL,(BC.D019)
  049A    7C                                LD      A,H
  049B    A5                                AND     L
  049C    3C                                INC     A
  049D    C4 24C1                           CALL    NZ,BC.C146
  04A0    CD 05F8               BC.J012:    CALL    BC.C015
  04A3    32 01AB                           LD      (BC.D058),A
  04A6    CD 0CDB                           CALL    BC.C047             ;"READY" ausgeben
  04A9    21 FFFF               BC.J013:    LD      HL,0FFFFH
  04AC    22 0154                           LD      (BC.D019),HL
  04AF    3A 01AB                           LD      A,(BC.D058)
  04B2    B7                                OR      A
  04B3    28 25                             JR      Z,$+39
  04B5    2A 019A                           LD      HL,(BC.D047)
  04B8    FA 1DD5                           JP      M,BC.J068
  04BB    ED 5B 019C                        LD      DE,(BC.D048)
  04BF    19                                ADD     HL,DE
  04C0    DA 116B                           JP      C,BC.J049
  04C3    22 019A               BC.J014:    LD      (BC.D047),HL
  04C6    E5                                PUSH    HL
  04C7    CD 24C9                           CALL    BC.C147
  04CA    CD 0764                           CALL    BC.C023
  04CD    CD 0707                           CALL    BC.C022
  04D0    CD 0947                           CALL    BC.C031
  04D3    D1                                POP     DE
  04D4    B7                                OR      A
  04D5    28 C9                             JR      Z,$-53
  04D7    37                                SCF
  04D8    18 0A                             JR      $+12
                                
  04DA    CD 0707                           CALL    BC.C022             ;Zeile eingeben
  04DD    CD 0947                           CALL    BC.C031
  04E0    3C                                INC     A
  04E1    3D                                DEC     A
  04E2    28 C5                             JR      Z,$-57
  04E4    F5                                PUSH    AF
  04E5    FE 03                             CP      003H
  04E7    CA 0990                           JP      Z,BC.J031
  04EA    D9                                EXX
  04EB    21 01AB                           LD      HL,BC.D058
  04EE    34                                INC     M
  04EF    35                                DEC     M
  04F0    D9                                EXX
  04F3                          BC.D067     EQU     $+2
  04F1    CC 0A49               BC.J015:    CALL    Z,BC.C045
  04F4    FE 20                             CP      ' '
  04F6    20 01                             JR      NZ,$+03
  04F8    23                                INC     HL
  04F9    D5                    BC.J016:    PUSH    DE
  04FA    CD 0609                           CALL    BC.C017             ;TOKEN  comprimieren
  04FD    47                                LD      B,A
  04FE    D1                                POP     DE
  04FF    F1                                POP     AF
  0500    D2 0914                           JP      NC,BC.J025
  0503    D5                                PUSH    DE
	MACRO-80 3.44	09-Dec-81	PAGE	1-11


  0504    C5                                PUSH    BC
  0505    23                                INC     HL
  0506    7E                                LD      A,M
  0507    B7                                OR      A
  0508    28 0C                             JR      Z,$+14
  050A    FE 20                             CP      020H
  050C    28 F7                             JR      Z,$-07
  050E    FE 09                             CP      009H
  0510    28 F3                             JR      Z,$-11
  0512    FE 0A                             CP      00AH
  0514    28 EF                             JR      Z,$-15
  0516    F5                                PUSH    AF
  0517    CD 0592                           CALL    BC.C009
  051A    C5                                PUSH    BC
  051B    30 14                             JR      NC,$+22
  051D    EB                                EX      DE,HL
  051E    2A 015E                           LD      HL,(BC.D024)
  0521    1A                                LD      A,(DE)
  0522    02                                LD      (BC),A
  0523    03                                INC     BC
  0524    13                                INC     DE
  0525    7C                                LD      A,H
  0526    92                                SUB     D
  0527    20 02                             JR      NZ,$+04
  0529    7D                                LD      A,L
  052A    93                                SUB     E
  052B    20 F4                             JR      NZ,$-10
  052D    ED 43 015E                        LD      (BC.D024),BC
  0531    D1                                POP     DE
  0532    F1                                POP     AF
  0533    28 21                             JR      Z,$+35
  0535    ED 4B 015E                        LD      BC,(BC.D024)
  0539    E1                                POP     HL
  053A    09                                ADD     HL,BC
  053B    E5                                PUSH    HL
  053C    CD 0419                           CALL    BC.C002
  053F    E1                                POP     HL
  0540    22 015E                           LD      (BC.D024),HL
  0543    EB                                EX      DE,HL
  0544    74                                LD      M,H
  0545    23                                INC     HL
  0546    23                                INC     HL
  0547    D1                                POP     DE
  0548    73                                LD      M,E
  0549    23                                INC     HL
  054A    72                                LD      M,D
  054B    23                                INC     HL
  054C    11 01B1                           LD      DE,BC.D063
  054F    1A                                LD      A,(DE)
  0550    77                                LD      M,A
  0551    23                                INC     HL
  0552    13                                INC     DE
  0553    B7                                OR      A
  0554    20 F9                             JR      NZ,$-05
  0556                          BC.D068     EQU     $
  0556    CD 05C2               BC.J017:    CALL    BC.C012
  0559    23                                INC     HL
  055A    EB                                EX      DE,HL
  055B    21 04A9                           LD      HL,BC.J013
  055E    E5                                PUSH    HL
  055F    62                    BC.C007:    LD      H,D
  0560    6B                                LD      L,E
  0561    7E                                LD      A,M
  0562    23                                INC     HL
  0563    B6                                OR      M
  0564    C8                                RET     Z
  0565    23                                INC     HL
  0566    23                                INC     HL
  0567    23                                INC     HL
  0568    AF                                XOR     A
  0569    BE                                CP      M
  056A    23                                INC     HL
  056B    20 FC                             JR      NZ,$-02
  056D    EB                                EX      DE,HL
  056E    73                                LD      M,E
  056F    23                                INC     HL
  0570    72                                LD      M,D
  0571    18 EC                             JR      $-18
                                
  0573    11 0000               BC.C008:    LD      DE,0
  0576    D5                                PUSH    DE
  0577    28 0C                             JR      Z,$+14
  0579    D1                                POP     DE
	MACRO-80 3.44	09-Dec-81	PAGE	1-12


  057A    CD 0985                           CALL    BC.C034
  057D    D5                                PUSH    DE
  057E    28 0E                             JR      Z,$+16
  0580    3E A6                             LD      A,0A6H
  0582    CD 0451                           CALL    BC.C006
  0585    11 FFFF                           LD      DE,0FFFFH
  0588    C4 0985                           CALL    NZ,BC.C034
  058B    C2 046D                           JP      NZ,BC.J004
  058E    EB                                EX      DE,HL
  058F    D1                                POP     DE
  0590    E3                                EX      (SP),HL
  0591    E5                                PUSH    HL
  0592    2A 015C               BC.C009:    LD      HL,(BC.D023)
  0595    44                    BC.C010:    LD      B,H
  0596    4D                                LD      C,L
  0597    7E                                LD      A,M
  0598    23                                INC     HL
  0599    B6                                OR      M
  059A    2B                                DEC     HL
  059B    C8                                RET     Z
  059C    23                                INC     HL
  059D    23                                INC     HL
  059E    7E                                LD      A,M
  059F    23                                INC     HL
  05A0    66                                LD      H,M
  05A1    6F                                LD      L,A
  05A2    ED 52                             SBC     HL,DE
  05A4    60                                LD      H,B
  05A5    69                                LD      L,C
  05A6    7E                                LD      A,M
  05A7    23                                INC     HL
  05A8    66                                LD      H,M
  05A9    6F                                LD      L,A
  05AA    3F                                CCF
  05AB    C8                                RET     Z
  05AC    3F                                CCF
  05AD    D0                                RET     NC
  05AE    D9                                EXX
  05AF    19                                ADD     HL,DE
  05B0    D9                                EXX
  05B1    18 E2                             JR      $-28
                                
                                            PAGE
	MACRO-80 3.44	09-Dec-81	PAGE	1-13


                                
                                ;****************************************************************
                                ;*               TOKEN - Routine:  N  E  W                      *
                                ;****************************************************************
  05B3    C0                    BC.NEW:     RET     NZ
  05B4    2A 015C               BC.C011:    LD      HL,(BC.D023)        ;Quelltext-Anfang
  05B7    AF                                XOR     A
  05B8    32 01A3                           LD      (BC.D052),A         ;(L)TRACE - Schalter
  05BB    77                                LD      M,A
  05BC    23                                INC     HL
  05BD    77                                LD      M,A
  05BE    23                                INC     HL
  05BF    22 015E                           LD      (BC.D024),HL        ;hochz. Adr. des Quellt.
                                                                        ;zeigt auf  3x 00H
  05C2    2A 015C               BC.C012:    LD      HL,(BC.D023)
  05C5    2B                                DEC     HL
  05C6    22 0150               BC.C013:    LD      (BC.D017),HL        ;akt. Unterbrechungsadresse
  05C9    2A 0104                           LD      HL,(BC.D006)        ;init. mit Beginn Zeichenkettenber.
  05CC    22 0148                           LD      (BC.D012),HL        ;-------------  "  --------------
  05CF    CD 097B                           CALL    BC.C033
  05D2    2A 015E                           LD      HL,(BC.D024)
  05D5    22 0160                           LD      (BC.D025),HL        ;1.freie Byte einf. Var.,Beginn dim. Var.
  05D8    22 0162                           LD      (BC.D026),HL        ;1.freie Byte dim.  Var.
  05DB    C1                    BC.C014:    POP     BC
  05DC    ED 7B 015A                        LD      SP,(BC.D022)        ;akt. Stackpointer
  05E0    21 0108                           LD      HL,BC.D008
  05E3    22 0106                           LD      (BC.D007),HL
  05E6    AF                                XOR     A
  05E7    67                                LD      H,A
  05E8    6F                                LD      L,A
  05E9    22 0158                           LD      (BC.D021),HL
  05EC    32 014E                           LD      (BC.D015),A
  05EF    32 01A7                           LD      (BC.D055),A
  05F2    E5                                PUSH    HL
  05F3    C5                                PUSH    BC
  05F4    2A 0150               BC.J018:    LD      HL,(BC.D017)
  05F7    C9                                RET
                                
  05F8    AF                    BC.C015:    XOR     A
  05F9    32 0100                           LD      (BC.D002),A         ;<>0  CON-Unterdr. bei CIN
  05FC                          BC.D069     EQU     $
  05FC    FD 21 030F            BC.C016:    LD      IY,BC.CON
  0600    FD 22 018E                        LD      (BC.D040),IY        ;evtl. akt. L-Geraet
  0604    FD 21 0190                        LD      IY,BC.D041
  0608    C9                                RET
                                
  0609    AF                    BC.C017:    XOR     A                   ;Ersetzung Sprachelemente durch
  060A    32 0103                           LD      (BC.D005),A         ;TOKEN
  060D    0E 05                             LD      C,005H              ;HL  zeigt auf Eingabezeile
  060F    11 01B1                           LD      DE,BC.D063          ;DE  verkuerzte Zeile
  0612    7E                    BC.J019:    LD      A,M
  0613    47                                LD      B,A
  0614    B7                                OR      A
  0615    CA 06AD                           JP      Z,BC.J020
  0618    FE 21                             CP      021H
  061A    38 4F                             JR      C,$+81
  061C    FE 22                             CP      022H
  061E    28 7B                             JR      Z,$+125
  0620    3A 0103                           LD      A,(BC.D005)
  0623    B7                                OR      A
  0624    47                                LD      B,A
  0625    7E                                LD      A,M
  0626    20 43                             JR      NZ,$+69
  0628    FE 30                             CP      030H
  062A    38 04                             JR      C,$+06
  062C    FE 3A                             CP      03AH
  062E    38 3B                             JR      C,$+61
  0630    D5                                PUSH    DE
  0631    11 2C63                           LD      DE,BC.D121
  0634    E5                                PUSH    HL
  0635    18 02                             JR      $+04
  0637    23                                INC     HL
  0638    13                                INC     DE
  0639    1A                                LD      A,(DE)
  063A    B7                                OR      A
  063B    28 25                             JR      Z,$+39
  063D    FE 20                             CP      020H
  063F    20 09                             JR      NZ,$+11
  0641    13                                INC     DE
  0642    7E                                LD      A,M
  0643    FE 20                             CP      020H
  0645    20 03                             JR      NZ,$+05
	MACRO-80 3.44	09-Dec-81	PAGE	1-14


  0647    23                                INC     HL
  0648    18 F8                             JR      $-06
  064A    EB                                EX      DE,HL
  064B    1A                                LD      A,(DE)
  064C    FE 60                             CP      060H
  064E    38 02                             JR      C,$+04
  0650    E6 5F                             AND     05FH
  0652    AE                                XOR     M
  0653    E6 7F                             AND     07FH
  0655    EB                                EX      DE,HL
  0656    20 49                             JR      NZ,$+75
  0658    1A                                LD      A,(DE)
  0659    17                                RLA
  065A    30 DB                             JR      NC,$-35
  065C    F1                                POP     AF
  065D    78                                LD      A,B
  065E    F6 80                             OR      080H
  0660    18 08                             JR      $+10
  0662    E1                                POP     HL
  0663    7E                                LD      A,M
  0664    FE 60                             CP      060H
  0666    38 02                             JR      C,$+04
  0668    E6 5F                             AND     05FH
  066A    D1                                POP     DE
  066B    EB                                EX      DE,HL
  066C    FE C9                             CP      0C9H
  066E    36 3A                             LD      M,03AH
  0670    20 02                             JR      NZ,$+04
  0672    0C                                INC     C
  0673    23                                INC     HL
  0674    EB                                EX      DE,HL
  0675    23                                INC     HL
  0676    12                                LD      (DE),A
  0677    13                                INC     DE
  0678    0C                                INC     C
  0679    D6 3A                             SUB     03AH
  067B    28 0A                             JR      Z,$+12
  067D    FE 9B                             CP      09BH
  067F    06 3A                             LD      B,03AH
  0681    28 11                             JR      Z,$+19
  0683    FE 49                             CP      049H
  0685    20 03                             JR      NZ,$+05
  0687    32 0103                           LD      (BC.D005),A
  068A    D6 54                             SUB     054H
  068C    28 05                             JR      Z,$+07
  068E    D6 0E                             SUB     00EH
  0690    C2 0612                           JP      NZ,BC.J019
  0693    47                                LD      B,A
  0694    7E                                LD      A,M
  0695    B7                                OR      A
  0696    28 15                             JR      Z,$+23
  0698    B8                                CP      B
  0699    28 D0                             JR      Z,$-46
  069B    23                                INC     HL
  069C    12                                LD      (DE),A
  069D    0C                                INC     C
  069E    13                                INC     DE
  069F    18 F3                             JR      $-11
  06A1    E1                                POP     HL
  06A2    E5                                PUSH    HL
  06A3    04                                INC     B
  06A4    EB                                EX      DE,HL
  06A5    CB 7E                             BIT     7,M
  06A7    23                                INC     HL
  06A8    28 FB                             JR      Z,$-03
  06AA    EB                                EX      DE,HL
  06AB    18 8C                             JR      $-114
                                
  06AD    21 01B0               BC.J020:    LD      HL,BC.D062
  06B0    12                                LD      (DE),A
  06B1    13                                INC     DE
  06B2    12                                LD      (DE),A
  06B3    13                                INC     DE
  06B4    12                                LD      (DE),A
  06B5    C9                                RET
  06B6    78                                LD      A,B
  06B7    3D                                DEC     A
  06B8    FD B6 00                          OR      (IY+00)
  06BB    28 4A                             JR      Z,$+76
  06BD    CD 0770                           CALL    BC.C025
  06C0    10 08                             DJNZ    $+10
  06C2    CD 0770                           CALL    BC.C025
  06C5    CD 0770                           CALL    BC.C025
	MACRO-80 3.44	09-Dec-81	PAGE	1-15


  06C8    18 3A                             JR      $+60
  06CA    2B                                DEC     HL
  06CB    7E                                LD      A,M
  06CC    CD 0766                           CALL    BC.C024
  06CF    CD 07C9                           CALL    BC.C028
  06D2    FE 7F                             CP      07FH
  06D4    28 EA                             JR      Z,$-20
  06D6    F5                                PUSH    AF
  06D7    CD 0770                           CALL    BC.C025
  06DA    F1                                POP     AF
  06DB    18 36                             JR      $+56
                                
  06DD    3E 3F                 BC.C018:    LD      A,03FH
  06DF    CD 0772                           CALL    BC.C026
  06E2    3E 3F                 BC.C019:    LD      A,03FH
  06E4    CD 0772                           CALL    BC.C026
  06E7    CD 0764                           CALL    BC.C023
  06EA    CD 0707                           CALL    BC.C022
  06ED    23                                INC     HL
  06EE    7E                                LD      A,M
  06EF    2B                                DEC     HL
  06F0    FE 03                             CP      003H
  06F2    C9                                RET
                                
  06F3    CD 05FC               BC.C020:    CALL    BC.C016
  06F6    F5                    BC.C021:    PUSH    AF
  06F7    3E 5E                             LD      A,05EH
  06F9    CD 0772                           CALL    BC.C026
  06FC    F1                                POP     AF
  06FD    F6 40                             OR      040H
  06FF    18 71                             JR      $+115
  0701    CD 06F6                           CALL    BC.C021
  0704    CD 0D0E                           CALL    BC.C050
  0707    21 01B1               BC.C022:    LD      HL,BC.D063          ;Eingabeschleife
  070A    06 01                             LD      B,001H              ;1B1H  ...  Eingabepuffer
  070C    78                                LD      A,B
  070D    32 01A7                           LD      (BC.D055),A
  0710    CD 07C9                           CALL    BC.C028
  0713    FE 07                             CP      007H
  0715    28 3C                             JR      Z,$+62
  0717    FE 0D                             CP      00DH
  0719    CA 0CE9                           JP      Z,BC.J040
  071C    FE 03                             CP      003H
  071E    CA 0CE1                           JP      Z,BC.J039
  0721    FE 15                             CP      015H
  0723    28 DC                             JR      Z,$-34
  0725    FE 7F                             CP      07FH
  0727    28 8D                             JR      Z,$-113
  0729    FE 12                             CP      012H
  072B    20 14                             JR      NZ,$+22
  072D    CD 06F6                           CALL    BC.C021
  0730    CD 0D0E                           CALL    BC.C050
  0733    21 01B1                           LD      HL,BC.D063
  0736    48                                LD      C,B
  0737    0D                                DEC     C
  0738    28 D6                             JR      Z,$-40
  073A    7E                                LD      A,M
  073B    23                                INC     HL
  073C    CD 0766                           CALL    BC.C024
  073F    18 F6                             JR      $-08
  0741    FE 09                             CP      009H
  0743    28 0E                             JR      Z,$+16
  0745    FE 0A                             CP      00AH
  0747    20 06                             JR      NZ,$+08
  0749    05                                DEC     B
  074A    28 BB                             JR      Z,$-67
  074C    04                                INC     B
  074D    18 04                             JR      $+06
  074F    FE 20                             CP      020H
  0751    38 BD                             JR      C,$-65
  0753    4F                                LD      C,A
  0754    78                                LD      A,B
  0755    FE FD                             CP      0FDH
  0757    3E 07                             LD      A,007H
  0759    30 04                             JR      NC,$+06
  075B    79                                LD      A,C
  075C    77                                LD      M,A
  075D    23                                INC     HL
  075E    04                                INC     B
  075F    CD 0766                           CALL    BC.C024
  0762    18 AC                             JR      $-82
                                
  0764    3E 20                 BC.C023:    LD      A,' '               ;Zeichen ==> BWS
	MACRO-80 3.44	09-Dec-81	PAGE	1-16


  0766    FE 0A                 BC.C024:    CP      00AH
  0768    20 08                             JR      NZ,$+10
  076A    CD 0CEE                           CALL    BC.C048
  076D    3E 0A                             LD      A,00AH
  076F    C9                                RET
                                
  0770    3E 5C                 BC.C025:    LD      A,'\'               ;'
  0772    C5                    BC.C026:    PUSH    BC
  0773    4F                                LD      C,A
  0774    3A 0100                           LD      A,(BC.D002)
  0777    B7                                OR      A
  0778    20 3F                             JR      NZ,$+65
  077A    79                                LD      A,C
  077B    FE 09                             CP      009H
  077D    20 27                             JR      NZ,$+41
  077F    FD 7E 01                          LD      A,(IY+01)
  0782    E6 F8                             AND     0F8H
  0784    3D                                DEC     A
  0785    FD BE 00                          CP      (IY+00)
  0788    38 17                             JR      C,$+25
  078A    FD 7E 00                          LD      A,(IY+00)
  078D    E6 07                             AND     007H
  078F    2F                                CPL
  0790    C6 09                             ADD     A,009H
  0792    47                                LD      B,A
  0793    0E 20                             LD      C,020H
  0795    CD 018D                           CALL    BC.D039
  0798    FD 34 00                          INC     (IY+00)
  079B    10 F8                             DJNZ    $-06
  079D    0E 09                             LD      C,009H
  079F    18 18                             JR      $+26
  07A1    CD 0CEE                           CALL    BC.C048
  07A4    18 F7                             JR      $-07
  07A6    FE 20                             CP      020H
  07A8    38 0C                             JR      C,$+14
  07AA    FD 7E 00                          LD      A,(IY+00)
  07AD    FD BE 01                          CP      (IY+01)
  07B0    CC 0CEE                           CALL    Z,BC.C048
  07B3    FD 34 00                          INC     (IY+00)
  07B6    CD 018D                           CALL    BC.D039
  07B9    79                                LD      A,C
  07BA    C1                                POP     BC
  07BB    B7                                OR      A
  07BC    C9                                RET
                                
  07BD                          BC.D070     EQU     $
  07BD    7E                    BC.C027:    LD      A,M
  07BE    CB BF                             RES     7,A
  07C0    CD 0766                           CALL    BC.C024
  07C3    CB 7E                             BIT     7,M
  07C5    C0                                RET     NZ
  07C6    23                                INC     HL
  07C7    18 F4                             JR      $-10
                                
  07C9    CD 0309               BC.C028:    CALL    BC.CIN
  07CC    E6 7F                             AND     07FH
  07CE    FE 18                             CP      018H
  07D0    28 0F                             JR      Z,$+17
  07D2    FE 0F                             CP      00FH
  07D4    C0                                RET     NZ
  07D5    CD 06F3                           CALL    BC.C020
  07D8    3A 0100                           LD      A,(BC.D002)
  07DB    2F                                CPL
  07DC    32 0100                           LD      (BC.D002),A
  07DF    AF                                XOR     A
  07E0    C9                                RET
  07E1    CD 06F3                           CALL    BC.C020
  07E4    CD 0CEE                           CALL    BC.C048
  07E7    CD 0324                           CALL    BC.TRAPX
  07EA    AF                                XOR     A
  07EB    C9                                RET
                                
                                            PAGE
	MACRO-80 3.44	09-Dec-81	PAGE	1-17


                                
                                ;****************************************************************
                                ;*               TOKEN - Routinen:  L L I S T , L I S T         *
                                ;****************************************************************
  07EC    CD 18A6               BC.LLIST:   CALL    BC.C098
  07EF    C1                    BC.LIST:    POP     BC
  07F0    CD 0573                           CALL    BC.C008
  07F3    C5                                PUSH    BC
  07F4    CD 0CEE               BC.D071:    CALL    BC.C048
  07F7    E1                                POP     HL
  07F8    D1                                POP     DE
  07F9    4E                                LD      C,M
  07FA    23                                INC     HL
  07FB    46                                LD      B,M
  07FC    23                                INC     HL
  07FD    78                                LD      A,B
  07FE    B1                                OR      C
  07FF    28 33                             JR      Z,$+53
  0801    CD 0993                           CALL    BC.C036
  0804    C5                                PUSH    BC
  0805    4E                                LD      C,M
  0806    23                                INC     HL
  0807    46                                LD      B,M
  0808    23                                INC     HL
  0809    C5                                PUSH    BC
  080A    E3                                EX      (SP),HL
  080B    EB                                EX      DE,HL
  080C    7C                                LD      A,H
  080D    92                                SUB     D
  080E    20 02                             JR      NZ,$+04
  0810    7D                                LD      A,L
  0811    93                                SUB     E
  0812    C1                                POP     BC
  0813    38 1E                             JR      C,$+32
  0815    E3                                EX      (SP),HL
  0816    E5                                PUSH    HL
  0817    C5                                PUSH    BC
  0818    EB                                EX      DE,HL
  0819    CD 24C9                           CALL    BC.C147
  081C    E1                                POP     HL
  081D    CD 0764                           CALL    BC.C023
  0820    CD 0837                           CALL    BC.C030
  0823    21 01B1                           LD      HL,BC.D063
  0826    01 07F4                           LD      BC,BC.D071
  0829    C5                                PUSH    BC
  082A    2B                    BC.C029:    DEC     HL
  082B    06 00                             LD      B,000H
  082D    CD 13F0                           CALL    BC.C072
  0830    C3 1434                           JP      BC.C076
  0833    C1                                POP     BC
  0834    C3 04A0                           JP      BC.J012
                                
  0837    01 01B0               BC.C030:    LD      BC,BC.D062
  083A    3E                                DB      03EH                ;LD  A,0E1H
  083B    E1                    BC.J021:    POP     HL
  083C    7E                    BC.J022:    LD      A,M
  083D    03                                INC     BC
  083E    B7                                OR      A
  083F    23                                INC     HL
  0840    02                                LD      (BC),A
  0841    C8                                RET     Z
  0842    F2 083C                           JP      P,BC.J022
  0845    FE C9                             CP      0C9H
  0847    20 01                             JR      NZ,$+03
  0849    0B                                DEC     BC
  084A    D6 80                             SUB     080H
  084C    E5                                PUSH    HL
  084D    21 2C63                           LD      HL,BC.D121
  0850    28 08                             JR      Z,$+10
  0852    CB 7E                             BIT     7,M
  0854    23                                INC     HL
  0855    28 FB                             JR      Z,$-03
  0857    3D                                DEC     A
  0858    20 F8                             JR      NZ,$-06
  085A    7E                                LD      A,M
  085B    FE 20                             CP      020H
  085D    28 08                             JR      Z,$+10
  085F    B7                                OR      A
  0860    CB BF                             RES     7,A
  0862    02                                LD      (BC),A
  0863    FA 083B                           JP      M,BC.J021
  0866    03                                INC     BC
	MACRO-80 3.44	09-Dec-81	PAGE	1-18


  0867    23                                INC     HL
  0868    18 F0                             JR      $-14
                                
                                            PAGE
	MACRO-80 3.44	09-Dec-81	PAGE	1-19


                                
                                ;****************************************************************
                                ;*               TOKEN - Routine:  F O R                        *
                                ;****************************************************************
  086A    3E 29                 BC.FOR:     LD      A,029H
  086C    32 014E                           LD      (BC.D015),A
  086F    CD 0B27                           CALL    BC.LET
  0872    E3                                EX      (SP),HL
  0873    CD 03F6                           CALL    BC.C001
  0876    D1                                POP     DE
  0877    20 02                             JR      NZ,$+04
  0879    09                                ADD     HL,BC
  087A    F9                                LD      SP,HL
  087B    EB                                EX      DE,HL
  087C    0E 0A                             LD      C,00AH
  087E    CD 0431                           CALL    BC.C004
  0881    E5                                PUSH    HL
  0882    CD 0B0B                           CALL    BC.DATA
  0885    E3                                EX      (SP),HL
  0886    E5                                PUSH    HL
  0887    2A 0154                           LD      HL,(BC.D019)
  088A    E3                                EX      (SP),HL
  088B    3E 9F                             LD      A,09FH
  088D    CD 0451                           CALL    BC.C006
  0890    CD 0E88                           CALL    BC.C053
  0893    CD 0E85                           CALL    BC.C052
  0896    E5                                PUSH    HL
  0897    CD 2302                           CALL    BC.C131
  089A    E1                                POP     HL
  089B    C5                                PUSH    BC
  089C    DD E5                             PUSH    IX
  089E    D5                                PUSH    DE
  089F    01 8100                           LD      BC,08100H
  08A2    DD 21 0000                        LD      IX,00000H
  08A6    51                                LD      D,C
  08A7    59                                LD      E,C
  08A8    7E                                LD      A,M
  08A9    FE A4                             CP      0A4H
  08AB    3E 01                             LD      A,001H
  08AD    20 0E                             JR      NZ,$+16
  08AF    CD 0947                           CALL    BC.C031
  08B2    CD 0E85                           CALL    BC.C052
  08B5    E5                                PUSH    HL
  08B6    CD 2302                           CALL    BC.C131
  08B9    CD 22BF                           CALL    BC.C125
  08BC    E1                                POP     HL
  08BD    C5                                PUSH    BC
  08BE    DD E5                             PUSH    IX
  08C0    D5                                PUSH    DE
  08C1    F5                                PUSH    AF
  08C2    33                                INC     SP
  08C3    E5                                PUSH    HL
  08C4    2A 0150                           LD      HL,(BC.D017)
  08C7    E3                                EX      (SP),HL
  08C8    06 81                 BC.J023:    LD      B,081H
  08CA    C5                                PUSH    BC
  08CB    33                                INC     SP
  08CC                          BC.D072     EQU     $
  08CC    CD 0318               BC.J024:    CALL    BC.CSTSX            ;nach Ausfuehrung eines TOKEN, Weiterarbeit
  08CF    3C                                INC     A                   ;HL  ==>  :  bzw.  00H
  08D0    CC 0998                           CALL    Z,BC.C037
  08D3    22 0150                           LD      (BC.D017),HL
  08D6    7E                                LD      A,M
  08D7    FE 3A                             CP      03AH
  08D9    28 39                             JR      Z,$+59
  08DB    B7                                OR      A
  08DC    C2 046D                           JP      NZ,BC.J004
  08DF    23                                INC     HL
  08E0    7E                                LD      A,M
  08E1    23                                INC     HL
  08E2    B6                                OR      M
  08E3    23                                INC     HL
  08E4    CA 09C8                           JP      Z,BC.J032
  08E7    5E                                LD      E,M
  08E8    23                                INC     HL
  08E9    56                                LD      D,M
  08EA    ED 53 0154                        LD      (BC.D019),DE
  08EE    3A 01A3                           LD      A,(BC.D052)
  08F1    B7                                OR      A
  08F2    28 20                             JR      Z,$+34
  08F4    F5                                PUSH    AF
  08F5    FC 18A6                           CALL    M,BC.C098
	MACRO-80 3.44	09-Dec-81	PAGE	1-20


  08F8    D5                                PUSH    DE
  08F9    E5                                PUSH    HL
  08FA    3E 3C                             LD      A,03CH
  08FC    CD 0772                           CALL    BC.C026
  08FF    EB                    BC.D073:    EX      DE,HL
  0900    CD 24C9                           CALL    BC.C147
  0903    3E 3E                             LD      A,03EH
  0905    CD 0772                           CALL    BC.C026
  0908    E1                                POP     HL
  0909    D1                                POP     DE
  090A    F1                                POP     AF
  090B    87                                ADD     A,A
  090C    30 06                             JR      NC,$+08
  090E    CD 05FC                           CALL    BC.C016
  0911    87                                ADD     A,A
  0912    38 E0                             JR      C,$-30
  0914    CD 0947               BC.J025:    CALL    BC.C031             ;bei Ausfuehrung  Zeile
  0917    11 08CC                           LD      DE,BC.D072
  091A    D5                                PUSH    DE
  091B    C8                    BC.J026:    RET     Z
  091C    D6 80                 BC.J027:    SUB     080H                ;TOKEN -Auswertung
  091E    DA 0B2B                           JP      C,BC.J036           ;kein TOKEN
  0921    FE 46                             CP      046H                ;MID$
  0923    CA 0B8B                           JP      Z,BC.J038
  0926    FE 1D                             CP      01DH                ;USING
  0928    38 0F                             JR      C,$+17
  092A    D6 49                             SUB     049H
  092C    DA 046D                           JP      C,BC.J004           ;"SYNTAX ERROR"
  092F    FE 23                             CP      023H                ;nicht belegte TOKEN:  ECH ...
  0931    D2 046D                           JP      NC,BC.J004          ;"SYNTAX ERROR"
  0934    11 03B0                           LD      DE,BC.TB4
  0937    18 03                             JR      $+05
                                
  0939    11 0376                           LD      DE,BC.TB3
  093C    07                                RLCA
  093D    4F                                LD      C,A
  093E    06 00                             LD      B,000H
  0940    EB                                EX      DE,HL
  0941    09                                ADD     HL,BC
  0942    4E                                LD      C,M
  0943    23                                INC     HL
  0944    46                                LD      B,M
  0945    C5                                PUSH    BC
  0946    EB                                EX      DE,HL
  0947    23                    BC.C031:    INC     HL
  0948    7E                    BC.C032:    LD      A,M
  0949    FE D5                             CP      0D5H
  094B    20 08                             JR      NZ,$+10
  094D    23                                INC     HL
  094E    7E                                LD      A,M
  094F    FE 3A                             CP      03AH
  0951    C8                                RET     Z
  0952    B7                                OR      A
  0953    20 F8                             JR      NZ,$-06
  0955    FE 3A                             CP      03AH
  0957    D0                                RET     NC
  0958    FE 20                             CP      020H
  095A    28 EB                             JR      Z,$-19
  095C    FE 09                             CP      009H
  095E    28 E7                             JR      Z,$-23
  0960    FE 0A                             CP      00AH
  0962    28 E3                             JR      Z,$-27
  0964    FE 30                             CP      030H
  0966    3F                                CCF
  0967    3C                                INC     A
  0968    3D                                DEC     A
  0969    C9                                RET
                                
  096A    28 0F                 BC.REST:    JR      Z,$+17              ;TOKEN:  R E S T O R E
  096C    CD 0985                           CALL    BC.C034
  096F    E5                                PUSH    HL
  0970    CD 0592                           CALL    BC.C009
  0973    D1                                POP     DE
  0974    D2 0AE1                           JP      NC,BC.J035
  0977    60                                LD      H,B
  0978    69                                LD      L,C
  0979    18 04                             JR      $+06
                                
  097B    EB                    BC.C033:    EX      DE,HL
  097C    2A 015C                           LD      HL,(BC.D023)
  097F    2B                                DEC     HL
  0980    22 0164               BC.J028:    LD      (BC.D027),HL
  0983    EB                                EX      DE,HL
	MACRO-80 3.44	09-Dec-81	PAGE	1-21


  0984    C9                                RET
                                
  0985    2B                    BC.C034:    DEC     HL
  0986    CD 0947               BC.C035:    CALL    BC.C031
  0989    CD 0A49                           CALL    BC.C045
  098C    18 BA                             JR      $-68
                                
  098E    C1                    BC.J029:    POP     BC
  098F    C1                    BC.J030:    POP     BC
  0990    B7                    BC.J031:    OR      A
  0991    18 34                             JR      $+54
                                
  0993    CD 0318               BC.C036:    CALL    BC.CSTSX
  0996    3C                                INC     A
  0997    C0                                RET     NZ
  0998    CD 07C9               BC.C037:    CALL    BC.C028
  099B    FE 14                             CP      014H
  099D    20 0C                             JR      NZ,$+14
  099F    E5                                PUSH    HL
  09A0    2A 0154                           LD      HL,(BC.D019)
  09A3    7C                                LD      A,H
  09A4    A5                                AND     L
  09A5    3C                                INC     A
  09A6    C4 1A9D                           CALL    NZ,BC.C100
  09A9    E1                                POP     HL
  09AA    C9                                RET
  09AB    FE 13                             CP      013H
  09AD    20 0B                             JR      NZ,$+13
  09AF    CD 07C9                           CALL    BC.C028
  09B2    FE 03                             CP      003H
  09B4    28 04                             JR      Z,$+06
  09B6    FE 11                             CP      011H
  09B8    20 F5                             JR      NZ,$-09
  09BA    FE 03                             CP      003H
  09BC    C0                                RET     NZ
  09BD    CD 06F3                           CALL    BC.C020
  09C0    3E                                DB      03EH                ;LD  A,0C0H
                                
  09C1    C0                    BC.STOP:    RET     NZ                  ;TOKEN:  S T O P
  09C2    F6                                DB      0F6H                ;OR  0C0H
                                
  09C3    C0                    BC.END:     RET     NZ                  ;TOKEN:  E N D
  09C4    22 0150                           LD      (BC.D017),HL
  09C7    C1                    BC.EDQ:     POP     BC
  09C8    F5                    BC.J032:    PUSH    AF
  09C9    2A 0154                           LD      HL,(BC.D019)
  09CC    7D                                LD      A,L
  09CD    A4                                AND     H
  09CE    3C                                INC     A
  09CF    28 09                             JR      Z,$+11
  09D1    22 0156                           LD      (BC.D020),HL
  09D4    2A 0150                           LD      HL,(BC.D017)
  09D7    22 0158                           LD      (BC.D021),HL
  09DA    CD 05F8                           CALL    BC.C015
  09DD    F1                                POP     AF
  09DE    21 2FAF                           LD      HL,BC.D130
  09E1    C2 0494                           JP      NZ,BC.J011
  09E4    C3 04A0                           JP      BC.J012
                                
  09E7    1E 11                 BC.CONT:    LD      E,011H              ;TOKEN:  C O N T I N U E
  09E9    2A 0158                           LD      HL,(BC.D021)
  09EC    7C                                LD      A,H
  09ED    B5                                OR      L
  09EE    28 56                             JR      Z,$+88
  09F0    EB                                EX      DE,HL
  09F1    2A 0156                           LD      HL,(BC.D020)
  09F4    22 0154                           LD      (BC.D019),HL
  09F7    EB                                EX      DE,HL
  09F8    C9                                RET
                                
  09F9    CD 189F               BC.LNULL:   CALL    BC.C097             ;TOKEN:  L N U L L
  09FC    CD 171B               BC.NULL:    CALL    BC.C091             ;TOKEN:  N U L L
  09FF    FE 32                             CP      032H
  0A01    30 41                             JR      NC,$+67
  0A03    FD 77 03                          LD      (IY+03),A
  0A06    3E 2C                             LD      A,02CH
  0A08    BE                                CP      M
  0A09    C0                                RET     NZ
  0A0A    CD 0947                           CALL    BC.C031
  0A0D    CD 171B                           CALL    BC.C091
  0A10    FD 77 04                          LD      (IY+04),A
  0A13    C9                                RET
                                
	MACRO-80 3.44	09-Dec-81	PAGE	1-22


  0A14    7E                    BC.C038:    LD      A,M
  0A15    FE 41                             CP      'A'
  0A17    D8                                RET     C
  0A18    FE 5B                             CP      '['
  0A1A    3F                                CCF
  0A1B    C9                                RET
                                
  0A1E                          BC.D074     EQU     $+2
  0A1C    CD 0E88               BC.C039:    CALL    BC.C053
  0A1F    18 0C                             JR      $+14
                                
  0A21    CD 0947               BC.C040:    CALL    BC.C031
  0A24    CD 0E85               BC.C041:    CALL    BC.C052
  0A27    CD 22BF               BC.C042:    CALL    BC.C125
  0A2A    FA 0A44                           JP      M,BC.J033
  0A2D    3A 016B               BC.C043:    LD      A,(BC.D032)
  0A30    FE 91                             CP      091H
  0A32    DA 2375                           JP      C,BC.C139
  0A35    01 9180                           LD      BC,09180H
  0A38    21DD                              DW      21DDH
  0A3A    0000                  BC.C044:    DW      0
  0A3C    11 0000                           LD      DE,0
  0A3F    CD 2336                           CALL    BC.C136
  0A42    51                                LD      D,C
  0A43    C8                                RET     Z
  0A44    1E 05                 BC.J033:    LD      E,005H
  0A46    C3 047E                           JP      BC.J010
                                
  0A49    2B                    BC.C045:    DEC     HL                  ;Zeilennummer umwandeln
  0A4A    11 0000                           LD      DE,0
  0A4D    23                                INC     HL
  0A4E    7E                                LD      A,M
  0A4F    B7                                OR      A
  0A50    C8                                RET     Z
  0A51    FE 30                             CP      '0'
  0A53    3F                                CCF
  0A54    D0                                RET     NC
  0A55    FE 3A                             CP      ':'
  0A57    D0                                RET     NC
  0A58    E5                                PUSH    HL
  0A59    21 1998                           LD      HL,BC.D096
  0A5C    B7                                OR      A
  0A5D    ED 52                             SBC     HL,DE
  0A5F    DA 046D                           JP      C,BC.J004
  0A62    62                                LD      H,D
  0A63    6B                                LD      L,E
  0A64    19                                ADD     HL,DE
  0A65    29                                ADD     HL,HL
  0A66    19                                ADD     HL,DE
  0A67    29                                ADD     HL,HL
  0A68    D6 30                             SUB     030H
  0A6A    5F                                LD      E,A
  0A6B    16 00                             LD      D,000H
  0A6D    19                                ADD     HL,DE
  0A6E    EB                                EX      DE,HL
  0A6F    E1                                POP     HL
  0A70    18 DB                             JR      $-35
                                
  0A72    28 26                 BC.CLEAR:   JR      Z,$+40              ;TOKEN:  C L E A R
  0A74    CD 0A24                           CALL    BC.C041
  0A77    CD 0948                           CALL    BC.C032
  0A7A    C0                                RET     NZ
  0A7B    E5                                PUSH    HL
  0A7C    2A 0104                           LD      HL,(BC.D006)
  0A7F    ED 52                             SBC     HL,DE
  0A81    EB                                EX      DE,HL
  0A82    DA 046D                           JP      C,BC.J004
  0A85    2A 015E                           LD      HL,(BC.D024)
  0A88    01 0028                           LD      BC,00028H
  0A8B    09                                ADD     HL,BC
  0A8C    7C                                LD      A,H
  0A8D    92                                SUB     D
  0A8E    20 02                             JR      NZ,$+04
  0A90    7D                                LD      A,L
  0A91    93                                SUB     E
  0A92    D2 044D                           JP      NC,BC.J002
  0A95    EB                                EX      DE,HL
  0A96    22 015A                           LD      (BC.D022),HL
  0A99    E1                                POP     HL
  0A9A    C3 05C6                           JP      BC.C013
                                
  0A9D    CA 05C2               BC.RUN:     JP      Z,BC.C012           ;TOKEN:  R U N
  0AA0    CD 05C6                           CALL    BC.C013
	MACRO-80 3.44	09-Dec-81	PAGE	1-23


  0AA3    01 08CC                           LD      BC,BC.D072
  0AA6    18 1C                             JR      $+30
                                
  0AA8    0E 03                 BC.GOSUB:   LD      C,003H              ;TOKEN:  G O S U B
  0AAA    CD 0431                           CALL    BC.C004
  0AAD    C1                                POP     BC
  0AAE    E5                                PUSH    HL
  0AAF    ED 5B 0154                        LD      DE,(BC.D019)
  0AB3    D5                                PUSH    DE
  0AB4    7A                                LD      A,D
  0AB5    B3                                OR      E
  0AB6    3C                                INC     A
  0AB7    3A 01A7                           LD      A,(BC.D055)
  0ABA    57                                LD      D,A
  0ABB    20 04                             JR      NZ,$+06
  0ABD    AF                                XOR     A
  0ABE    32 01A7                           LD      (BC.D055),A
  0AC1    1E 8C                             LD      E,08CH
  0AC3    D5                                PUSH    DE
  0AC4    C5                                PUSH    BC
  0AC5    CD 0A49               BC.GOTO:    CALL    BC.C045             ;TOKEN:  G O T O
  0AC8    CD 0B0D                           CALL    BC.DATA+2
  0ACB    E5                                PUSH    HL
  0ACC    2A 0154                           LD      HL,(BC.D019)
  0ACF    7C                                LD      A,H
  0AD0    92                                SUB     D
  0AD1    20 02                             JR      NZ,$+04
  0AD3    7D                                LD      A,L
  0AD4    93                                SUB     E
  0AD5    E1                                POP     HL
  0AD6    23                                INC     HL
  0AD7    DC 0595                           CALL    C,BC.C010
  0ADA    D4 0592               BC.J034:    CALL    NC,BC.C009
  0ADD    60                                LD      H,B
  0ADE    69                                LD      L,C
  0ADF    2B                                DEC     HL
  0AE0    D8                                RET     C
  0AE1    1E 08                 BC.J035:    LD      E,8
  0AE3    C3 047E                           JP      BC.J010
                                
  0AE6    C0                    BC.RETRN:   RET     NZ                  ;TOKEN:  R E T U R N
  0AE7    16 FF                             LD      D,0FFH
  0AE9    CD 03F6                           CALL    BC.C001
  0AEC    56                                LD      D,M
  0AED    23                                INC     HL
  0AEE    F9                                LD      SP,HL
  0AEF    FE 8C                             CP      08CH
  0AF1    1E 03                             LD      E,003H
  0AF3    20 EE                             JR      NZ,$-16
  0AF5    E1                                POP     HL
  0AF6    22 0154                           LD      (BC.D019),HL
  0AF9    7C                                LD      A,H
  0AFA    A5                                AND     L
  0AFB    3C                                INC     A
  0AFC    21 01A7                           LD      HL,BC.D055
  0AFF    7E                                LD      A,M
  0B00    72                                LD      M,D
  0B01    20 04                             JR      NZ,$+06
  0B03    B7                                OR      A
  0B04    C2 13A5                           JP      NZ,BC.J053
  0B07    21 08CC                           LD      HL,BC.D072
  0B0A    E3                                EX      (SP),HL
  0B0B    01 0E3A               BC.DATA:    LD      BC,BC.D078          ;TOKEN:  D A T A
  0B0E    00                                NOP
  0B0F    06 00                             LD      B,000H
  0B11    79                                LD      A,C
  0B12    48                                LD      C,B
  0B13    47                                LD      B,A
  0B14    7E                                LD      A,M
  0B15    B7                                OR      A
  0B16    C8                                RET     Z
  0B17    B8                                CP      B
  0B18    C8                                RET     Z
  0B19    23                                INC     HL
  0B1A    FE 22                             CP      022H
  0B1C    28 F3                             JR      Z,$-11
  0B1E    D6 8A                 BC.D075:    SUB     08AH
  0B20    20 F2                             JR      NZ,$-12
  0B22    B8                                CP      B
  0B23    8A                                ADC     A,D
  0B24    57                                LD      D,A
  0B25    18 ED                             JR      $-17
                                
	MACRO-80 3.44	09-Dec-81	PAGE	1-24


  0B27    FE C6                 BC.LET:     CP      0C6H                ;TOKEN:  L E T
  0B29    28 60                             JR      Z,$+98
  0B2B    CD 106A               BC.J036:    CALL    BC.C060
  0B2E    3E AD                             LD      A,0ADH
  0B30    CD 0451                           CALL    BC.C006
  0B33    D5                    BC.C046:    PUSH    DE
  0B34    3A 0102                           LD      A,(BC.D004)
  0B37    F5                                PUSH    AF
  0B38    CD 0E9A                           CALL    BC.C056
  0B3B    F1                                POP     AF
  0B3C    E3                                EX      (SP),HL
  0B3D    22 0150                           LD      (BC.D017),HL
  0B40    1F                                RRA
  0B41    CD 0E8A                           CALL    BC.C054
  0B44    20 07                             JR      NZ,$+09
  0B46    E5                                PUSH    HL
  0B47    CD 2316                           CALL    BC.C133
  0B4A    D1                                POP     DE
  0B4B    E1                                POP     HL
  0B4C    C9                                RET
                                
  0B4D    E5                    BC.J037:    PUSH    HL
  0B4E    2A 0166                           LD      HL,(BC.D029)
  0B51    E5                                PUSH    HL
  0B52    23                                INC     HL
  0B53    23                                INC     HL
  0B54    5E                                LD      E,M
  0B55    23                                INC     HL
  0B56    56                                LD      D,M
  0B57    21 02B0                           LD      HL,BC.D064
  0B5A    7C                                LD      A,H
  0B5B    92                                SUB     D
  0B5C    20 02                             JR      NZ,$+04
  0B5E    7D                                LD      A,L
  0B5F    93                                SUB     E
  0B60    30 18                             JR      NC,$+26
  0B62    2A 015A                           LD      HL,(BC.D022)
  0B65    7C                                LD      A,H
  0B66    92                                SUB     D
  0B67    20 02                             JR      NZ,$+04
  0B69    7D                                LD      A,L
  0B6A    93                                SUB     E
  0B6B    D1                                POP     DE
  0B6C    30 14                             JR      NC,$+22
  0B6E    2A 015E                           LD      HL,(BC.D024)
  0B71    7C                                LD      A,H
  0B72    92                                SUB     D
  0B73    20 02                             JR      NZ,$+04
  0B75    7D                                LD      A,L
  0B76    93                                SUB     E
  0B77    30 09                             JR      NC,$+11
  0B79    3E D1                             LD      A,0D1H
  0B7B    CD 1583                           CALL    BC.C086
  0B7E    EB                                EX      DE,HL
  0B7F    CD 13CA                           CALL    BC.C067
  0B82    CD 1583                           CALL    BC.C086
  0B85    E1                                POP     HL
  0B86    CD 2319                           CALL    BC.C134
  0B89    E1                                POP     HL
  0B8A    C9                                RET
                                
  0B8B    CD 0947               BC.J038:    CALL    BC.C031
  0B8E    3E 28                             LD      A,028H
  0B90    CD 0451                           CALL    BC.C006
  0B93    CD 106A                           CALL    BC.C060
  0B96    CD 0E89                           CALL    BC.C053+1
  0B99    3E 2C                             LD      A,02CH
  0B9B    CD 0451                           CALL    BC.C006
  0B9E    D5                                PUSH    DE
  0B9F    CD 171B                           CALL    BC.C091
  0BA2    B7                                OR      A
  0BA3    CA 0A44                           JP      Z,BC.J033
  0BA6    F5                                PUSH    AF
  0BA7    1E FF                             LD      E,0FFH
  0BA9    7E                                LD      A,M
  0BAA    FE 29                             CP      029H
  0BAC    28 08                             JR      Z,$+10
  0BAE    3E 2C                             LD      A,02CH
  0BB0    CD 0451                           CALL    BC.C006
  0BB3    CD 171B                           CALL    BC.C091
  0BB6    3E 29                             LD      A,029H
  0BB8    CD 0451                           CALL    BC.C006
  0BBB    3E AD                             LD      A,0ADH
	MACRO-80 3.44	09-Dec-81	PAGE	1-25


  0BBD    CD 0451                           CALL    BC.C006
  0BC0    F1                                POP     AF
  0BC1    E3                                EX      (SP),HL
  0BC2    3D                                DEC     A
  0BC3    BE                                CP      M
  0BC4    06 00                             LD      B,000H
  0BC6    30 08                             JR      NC,$+10
  0BC8    4F                                LD      C,A
  0BC9    7E                                LD      A,M
  0BCA    91                                SUB     C
  0BCB    BB                                CP      E
  0BCC    47                                LD      B,A
  0BCD    38 01                             JR      C,$+03
  0BCF    43                                LD      B,E
  0BD0    C5                                PUSH    BC
  0BD1    23                                INC     HL
  0BD2    23                                INC     HL
  0BD3    46                                LD      B,M
  0BD4    23                                INC     HL
  0BD5    66                                LD      H,M
  0BD6    68                                LD      L,B
  0BD7    06 00                             LD      B,000H
  0BD9    09                                ADD     HL,BC
  0BDA    C1                                POP     BC
  0BDB    E3                                EX      (SP),HL
  0BDC    C5                                PUSH    BC
  0BDD    CD 0E95                           CALL    BC.C055
  0BE0    C1                                POP     BC
  0BE1    D1                                POP     DE
  0BE2    E5                                PUSH    HL
  0BE3    2A 0166                           LD      HL,(BC.D029)
  0BE6    78                                LD      A,B
  0BE7    96                                SUB     M
  0BE8    F5                                PUSH    AF
  0BE9    78                                LD      A,B
  0BEA    38 01                             JR      C,$+03
  0BEC    7E                                LD      A,M
  0BED    23                                INC     HL
  0BEE    23                                INC     HL
  0BEF    4E                                LD      C,M
  0BF0    23                                INC     HL
  0BF1    46                                LD      B,M
  0BF2    CD 1559                           CALL    BC.C081
  0BF5    F1                                POP     AF
  0BF6    38 09                             JR      C,$+11
  0BF8    28 07                             JR      Z,$+09
  0BFA    EB                                EX      DE,HL
  0BFB    36 20                             LD      M,020H
  0BFD    23                                INC     HL
  0BFE    3D                                DEC     A
  0BFF    20 FA                             JR      NZ,$-04
  0C01    CD 1563                           CALL    BC.C083
  0C04    E1                                POP     HL
  0C05    C9                                RET
                                
  0C06    CD 171B               BC.ON:      CALL    BC.C091             ;TOKEN:  O N
  0C09    7E                                LD      A,M
  0C0A    47                                LD      B,A
  0C0B    FE 8C                             CP      08CH                ;GOSUB
  0C0D    28 06                             JR      Z,$+08
  0C0F    3E 88                             LD      A,088H              ;GOTO
  0C11    CD 0451                           CALL    BC.C006
  0C14    2B                                DEC     HL
  0C15    4B                                LD      C,E
  0C16    0D                                DEC     C
  0C17    78                                LD      A,B
  0C18    CA 091C                           JP      Z,BC.J027
  0C1B    CD 0986                           CALL    BC.C035
  0C1E    FE 2C                             CP      02CH
  0C20    C0                                RET     NZ
  0C21    18 F3                             JR      $-11
                                
  0C23    CD 0E9A               BC.IF:      CALL    BC.C056             ;TOKEN:  I F
  0C26    7E                                LD      A,M
  0C27    FE 2C                             CP      02CH
  0C29    CC 0947                           CALL    Z,BC.C031
  0C2C    FE 88                             CP      088H
  0C2E    28 06                             JR      Z,$+08
  0C30    3E A2                             LD      A,0A2H
  0C32    CD 0451                           CALL    BC.C006
  0C35    2B                                DEC     HL
  0C36    E5                                PUSH    HL
  0C37    CD 22BF                           CALL    BC.C125
	MACRO-80 3.44	09-Dec-81	PAGE	1-26


  0C3A    E1                                POP     HL
  0C3B    28 09                             JR      Z,$+11
  0C3D    CD 0947                           CALL    BC.C031
  0C40    DA 0AC5                           JP      C,BC.GOTO
  0C43    C3 091B                           JP      BC.J026
  0C46    16 01                             LD      D,001H
  0C48    CD 0B0B                           CALL    BC.DATA
  0C4B    B7                                OR      A
  0C4C    C8                                RET     Z
  0C4D    CD 0947                           CALL    BC.C031
  0C50    FE C9                             CP      0C9H
  0C52    20 F4                             JR      NZ,$-10
  0C54    15                                DEC     D
  0C55    20 F1                             JR      NZ,$-13
  0C57    18 E4                             JR      $-26
                                
  0C59    CD 189F               BC.LPRNT:   CALL    BC.C097             ;TOKEN:  L P R I N T
  0C5C    CA 0CEE               BC.PRINT:   JP      Z,BC.C048           ;TOKEN:  P R I N T
  0C5F    FE 9D                             CP      09DH
  0C61    CA 2821                           JP      Z,BC.J104
  0C64    FE 9E                             CP      09EH
  0C66    28 4E                             JR      Z,$+80
  0C68    FE A1                             CP      0A1H
  0C6A    28 49                             JR      Z,$+75
  0C6C    E5                                PUSH    HL
  0C6D    FE 2C                             CP      02CH
  0C6F    28 32                             JR      Z,$+52
  0C71    FE 3B                             CP      03BH
  0C73    28 5F                             JR      Z,$+97
  0C75    C1                                POP     BC
  0C76    CD 0E9A                           CALL    BC.C056
  0C79    E5                                PUSH    HL
  0C7A    3A 0102                           LD      A,(BC.D004)
  0C7D    B7                                OR      A
  0C7E    20 1A                             JR      NZ,$+28
  0C80    CD 24DD                           CALL    BC.C148
  0C83    CD 13ED                           CALL    BC.C070
  0C86    2A 0166                           LD      HL,(BC.D029)
  0C89    FD 7E 00                          LD      A,(IY+00)
  0C8C    86                                ADD     A,M
  0C8D    FD BE 01                          CP      (IY+01)
  0C90    D4 0CEE                           CALL    NC,BC.C048
  0C93    CD 1434                           CALL    BC.C076
  0C96    CD 0764                           CALL    BC.C023
  0C99    AF                                XOR     A
  0C9A    C4 1434                           CALL    NZ,BC.C076
  0C9D    E1                                POP     HL
  0C9E    CD 0948                           CALL    BC.C032
  0CA1    18 B9                             JR      $-69
  0CA3    FD 7E 00                          LD      A,(IY+00)
  0CA6    FD BE 02                          CP      (IY+02)
  0CA9    D4 0CEE                           CALL    NC,BC.C048
  0CAC    30 26                             JR      NC,$+40
  0CAE    D6 0E                             SUB     00EH
  0CB0    30 FC                             JR      NC,$-02
  0CB2    2F                                CPL
  0CB3    18 18                             JR      $+26
  0CB5    37                                SCF
  0CB6    F5                                PUSH    AF
  0CB7    CD 1718                           CALL    BC.C090
  0CBA    3E 29                             LD      A,029H
  0CBC    CD 0451                           CALL    BC.C006
  0CBF    2B                                DEC     HL
  0CC0    F1                                POP     AF
  0CC1    E5                                PUSH    HL
  0CC2    3E FF                             LD      A,0FFH
  0CC4    38 04                             JR      C,$+06
  0CC6    FD 7E 00                          LD      A,(IY+00)
  0CC9    2F                                CPL
  0CCA    83                                ADD     A,E
  0CCB    30 07                             JR      NC,$+09
  0CCD    3C                                INC     A
  0CCE    47                                LD      B,A
  0CCF    CD 0764                           CALL    BC.C023
  0CD2    10 FB                             DJNZ    $-03
  0CD4    E1                                POP     HL
  0CD5    CD 0947                           CALL    BC.C031
  0CD8    C8                                RET     Z
  0CD9    18 81                             JR      $-125
                                
  0CDB    21 2F9B               BC.C047:    LD      HL,BC.D128
  0CDE    C3 01A4                           JP      BC.AKJPB
                                
	MACRO-80 3.44	09-Dec-81	PAGE	1-27


  0CE1    21 01B1               BC.J039:    LD      HL,BC.D063
  0CE4    77                                LD      M,A
  0CE5    23                                INC     HL
  0CE6    CD 06F6                           CALL    BC.C021
  0CE9    36 00                 BC.J040:    LD      M,0
  0CEB    21 01B0                           LD      HL,BC.D062
  0CEE    3E 0D                 BC.C048:    LD      A,00DH
  0CF0    FD 77 00                          LD      (IY+00),A
  0CF3    CD 0772                           CALL    BC.C026
  0CF6    3E 0A                             LD      A,00AH
  0CF8    CD 0772                           CALL    BC.C026
  0CFB    FD 7E 03              BC.C049:    LD      A,(IY+03)
  0CFE    3C                                INC     A
  0CFF    3D                                DEC     A
  0D00    FD 77 00                          LD      (IY+00),A
  0D03    C8                                RET     Z
  0D04    F5                                PUSH    AF
  0D05    FD 7E 04                          LD      A,(IY+04)
  0D08    CD 0772                           CALL    BC.C026
  0D0B    F1                                POP     AF
  0D0C    18 F1                             JR      $-13
                                
  0D0E    CD 0CEE               BC.C050:    CALL    BC.C048
  0D11    3A 01AB                           LD      A,(BC.D058)
  0D14    B7                                OR      A
  0D15    C8                                RET     Z
  0D16    E5                                PUSH    HL
  0D17    C5                                PUSH    BC
  0D18    2A 019A                           LD      HL,(BC.D047)
  0D1B    CD 24C9                           CALL    BC.C147
  0D1E    CD 0764                           CALL    BC.C023
  0D21    C1                                POP     BC
  0D22    E1                                POP     HL
  0D23    C9                                RET
                                
  0D24    D1                    BC.AUTO:    POP     DE                  ;TOKEN:  A U T O
  0D25    11 000A                           LD      DE,0000AH
  0D28    D5                                PUSH    DE
  0D29    DC 0985                           CALL    C,BC.C034
  0D2C    EB                                EX      DE,HL
  0D2D    E3                                EX      (SP),HL
  0D2E    EB                                EX      DE,HL
  0D2F    FE 2C                             CP      02CH
  0D31    20 06                             JR      NZ,$+08
  0D33    CD 0947                           CALL    BC.C031
  0D36    DC 0985                           CALL    C,BC.C034
  0D39    B7                                OR      A
  0D3A    C2 046D                           JP      NZ,BC.J004
  0D3D    ED 53 019C                        LD      (BC.D048),DE
  0D41    7A                                LD      A,D
  0D42    B3                                OR      E
  0D43    CA 046D                           JP      Z,BC.J004
  0D46    3E 01                             LD      A,001H
  0D48    32 01AB                           LD      (BC.D058),A
  0D4B    E1                                POP     HL
  0D4C    C3 04C3                           JP      BC.J014
                                
  0D4F    3E 84                 BC.LINE:    LD      A,084H              ;TOKEN:  L I N E
  0D51    CD 0451                           CALL    BC.C006
  0D54    F6                                DB      0F6H                ;OR  0AFH
                                
  0D55    AF                    BC.INPUT:   XOR     A                   ;TOKEN:  I N P U T
  0D56    F5                                PUSH    AF
  0D57    7E                                LD      A,M
  0D58    FE 22                             CP      022H
  0D5A    3E 00                             LD      A,000H
  0D5C    32 0100                           LD      (BC.D002),A
  0D5F    20 0D                             JR      NZ,$+15
  0D61    CD 13EE                           CALL    BC.C071
  0D64    3E 3B                             LD      A,03BH
  0D66    CD 0451                           CALL    BC.C006
  0D69    E5                                PUSH    HL
  0D6A    CD 1434                           CALL    BC.C076
  0D6D    E1                                POP     HL
  0D6E    E3                                EX      (SP),HL
  0D6F    E5                                PUSH    HL
  0D70    CD 139C                           CALL    BC.C065
  0D73    CD 06E2                           CALL    BC.C019
  0D76    CA 098E                           JP      Z,BC.J029
  0D79    F1                                POP     AF
  0D7A    28 2F                             JR      Z,$+49
  0D7C    E3                                EX      (SP),HL
  0D7D    CD 106A                           CALL    BC.C060
	MACRO-80 3.44	09-Dec-81	PAGE	1-28


  0D80    CD 0E89                           CALL    BC.C053+1
  0D83    E3                                EX      (SP),HL
  0D84    D5                                PUSH    DE
  0D85    06 00                             LD      B,000H
  0D87    CD 13F0                           CALL    BC.C072
  0D8A    EB                                EX      DE,HL
  0D8B    21 0D93                           LD      HL,BC.D076
  0D8E    E3                                EX      (SP),HL
  0D8F    D5                                PUSH    DE
  0D90    C3 0B4D                           JP      BC.J037
                                
  0D93    E1                    BC.D076:    POP     HL
  0D94    CD 0948                           CALL    BC.C032
  0D97    C8                                RET     Z
  0D98    3E 2C                             LD      A,02CH
  0D9A    CD 0451                           CALL    BC.C006
  0D9D    E5                                PUSH    HL
  0D9E    CD 06DD                           CALL    BC.C018
  0DA1    CA 098F                           JP      Z,BC.J030
  0DA4    18 D6                             JR      $-40
                                
  0DA6    E5                    BC.READ:    PUSH    HL                  ;TOKEN:  R E A D
  0DA7    2A 0164                           LD      HL,(BC.D027)
  0DAA    F6 AF                             OR      0AFH
  0DAC    32 014F                           LD      (BC.D016),A
  0DAF    E3                                EX      (SP),HL
  0DB0    18 05                             JR      $+07
  0DB2    3E 2C                             LD      A,02CH
  0DB4    CD 0451                           CALL    BC.C006
  0DB7    CD 106A                           CALL    BC.C060
  0DBA    E3                                EX      (SP),HL
  0DBB    D5                                PUSH    DE
  0DBC    7E                                LD      A,M
  0DBD    FE 2C                             CP      02CH
  0DBF    28 0C                             JR      Z,$+14
  0DC1    3A 014F                           LD      A,(BC.D016)
  0DC4    B7                                OR      A
  0DC5    20 54                             JR      NZ,$+86
  0DC7    CD 06DD                           CALL    BC.C018
  0DCA    CA 098E                           JP      Z,BC.J029
  0DCD    3A 0102               BC.J041:    LD      A,(BC.D004)
  0DD0    B7                                OR      A
  0DD1    28 1A                             JR      Z,$+28
  0DD3    CD 0947                           CALL    BC.C031
  0DD6    57                                LD      D,A
  0DD7    47                                LD      B,A
  0DD8    FE 22                             CP      022H
  0DDA    28 05                             JR      Z,$+07
  0DDC    16 3A                             LD      D,03AH
  0DDE    06 2C                             LD      B,02CH
  0DE0    2B                                DEC     HL
  0DE1    CD 13F1                           CALL    BC.C073
  0DE4    EB                                EX      DE,HL
  0DE5    21 0DF8                           LD      HL,BC.D077
  0DE8    E3                                EX      (SP),HL
  0DE9    D5                                PUSH    DE
  0DEA    C3 0B4D                           JP      BC.J037
                                
  0DED    CD 0947                           CALL    BC.C031
  0DF0    CD 23DE                           CALL    BC.C141
  0DF3    E3                                EX      (SP),HL
  0DF4    CD 2316                           CALL    BC.C133
  0DF7    E1                                POP     HL
  0DF8    CD 0948               BC.D077:    CALL    BC.C032
  0DFB    28 05                             JR      Z,$+07
  0DFD    FE 2C                             CP      02CH
  0DFF    C2 0457                           JP      NZ,BC.J003
  0E02    E3                                EX      (SP),HL
  0E03    CD 0948                           CALL    BC.C032
  0E06    20 AA                             JR      NZ,$-84
  0E08    D1                                POP     DE
  0E09    3A 014F                           LD      A,(BC.D016)
  0E0C    B7                                OR      A
  0E0D    EB                                EX      DE,HL
  0E0E    C2 0980                           JP      NZ,BC.J028
  0E11    B6                                OR      M
  0E12    21 2FA3                           LD      HL,BC.D129
  0E15    D5                                PUSH    DE
  0E16    C4 07BD                           CALL    NZ,BC.C027
  0E19    E1                                POP     HL
  0E1A    C9                                RET
  0E1B    CD 0B0B                           CALL    BC.DATA
  0E1E    B7                                OR      A
	MACRO-80 3.44	09-Dec-81	PAGE	1-29


  0E1F    20 10                             JR      NZ,$+18
  0E21    23                                INC     HL
  0E22    7E                                LD      A,M
  0E23    23                                INC     HL
  0E24    B6                                OR      M
  0E25    1E 04                             LD      E,004H
  0E27    28 69                             JR      Z,$+107
  0E29    23                                INC     HL
  0E2A    5E                                LD      E,M
  0E2B    23                                INC     HL
  0E2C    56                                LD      D,M
  0E2D    ED 53 014C                        LD      (BC.D014),DE
  0E31    CD 0947                           CALL    BC.C031
  0E34    FE 83                             CP      083H
  0E36    20 E3                             JR      NZ,$-27
  0E3A                          BC.D078     EQU     $+2
  0E38    C3 0DCD                           JP      BC.J041
                                
  0E3B    11 0000               BC.NEXT:    LD      DE,0                ;TOKEN:  N E X T
  0E3E    C4 106A               BC.C051:    CALL    NZ,BC.C060
  0E41    22 0150                           LD      (BC.D017),HL
  0E44    CD 03F6                           CALL    BC.C001
  0E47    C2 047C                           JP      NZ,BC.J009
  0E4A    F9                                LD      SP,HL
  0E4B    D5                                PUSH    DE
  0E4C    7E                                LD      A,M
  0E4D    23                                INC     HL
  0E4E    F5                                PUSH    AF
  0E4F    D5                                PUSH    DE
  0E50    CD 22EC                           CALL    BC.C129
  0E53    E3                                EX      (SP),HL
  0E54    E5                                PUSH    HL
  0E55    CD 1F83                           CALL    BC.C106
  0E58    E1                                POP     HL
  0E59    CD 2316                           CALL    BC.C133
  0E5C    E1                                POP     HL
  0E5D    CD 2305                           CALL    BC.C132
  0E60    E5                                PUSH    HL
  0E61    CD 2336                           CALL    BC.C136
  0E64    E1                                POP     HL
  0E65    C1                                POP     BC
  0E66    90                                SUB     B
  0E67    CD 236C                           CALL    BC.C138
  0E6A    28 09                             JR      Z,$+11
  0E6C    EB                                EX      DE,HL
  0E6D    22 0154                           LD      (BC.D019),HL
  0E70    69                                LD      L,C
  0E71    60                                LD      H,B
  0E72    C3 08C8                           JP      BC.J023
  0E75    F9                                LD      SP,HL
  0E76    2A 0150                           LD      HL,(BC.D017)
  0E79    7E                                LD      A,M
  0E7A    FE 2C                             CP      02CH
  0E7C    C2 08CC                           JP      NZ,BC.J024
  0E7F    CD 0947                           CALL    BC.C031
  0E82    CD 0E3E                           CALL    BC.C051
  0E85    CD 0E9A               BC.C052:    CALL    BC.C056
  0E88    F6 37                 BC.C053:    OR      037H
  0E8A    3A 0102               BC.C054:    LD      A,(BC.D004)
  0E8D    8F                                ADC     A,A
  0E8E    B7                                OR      A
  0E8F    E8                                RET     PE
  0E90    1E 0D                 BC.J042:    LD      E,00DH
  0E92    C3 047E                           JP      BC.J010
                                
  0E95    CD 0E9A               BC.C055:    CALL    BC.C056
  0E98    18 EF                             JR      $-15
                                
  0E9A    2B                    BC.C056:    DEC     HL
  0E9B    16 00                             LD      D,0
  0E9D    D5                    BC.C057:    PUSH    DE
  0E9E    0E 01                             LD      C,1
  0EA0    CD 0431                           CALL    BC.C004
  0EA3    CD 0F14                           CALL    BC.C058
  0EA6    22 0152                           LD      (BC.D018),HL
  0EA9                          BC.D079     EQU     $
  0EA9    2A 0152               BC.J043:    LD      HL,(BC.D018)
  0EAC    C1                    BC.D080:    POP     BC
  0EAD    78                                LD      A,B
  0EAE    FE 78                             CP      078H
  0EB0    D4 0E88                           CALL    NC,BC.C053
  0EB3    7E                                LD      A,M
  0EB4    16 00                             LD      D,000H
	MACRO-80 3.44	09-Dec-81	PAGE	1-30


  0EB6    D6 AC                             SUB     0ACH
  0EB8    38 15                             JR      C,$+23
  0EBA    FE 03                             CP      003H
  0EBC    30 11                             JR      NC,$+19
  0EBE    FE 01                             CP      001H
  0EC0    17                                RLA
  0EC1    AA                                XOR     D
  0EC2    BA                                CP      D
  0EC3    57                                LD      D,A
  0EC4    DA 046D                           JP      C,BC.J004
  0EC7    22 014A                           LD      (BC.D013),HL
  0ECA    CD 0947                           CALL    BC.C031
  0ECD    18 E7                             JR      $-23
  0ECF    7A                                LD      A,D
  0ED0    B7                                OR      A
  0ED1    C2 0FE2                           JP      NZ,BC.J045
  0ED4    7E                                LD      A,M
  0ED5    22 014A                           LD      (BC.D013),HL
  0ED8    D6 A5                             SUB     0A5H
  0EDA    D8                                RET     C
  0EDB    FE 07                             CP      007H
  0EDD    D0                                RET     NC
  0EDE    5F                                LD      E,A
  0EDF    3A 0102                           LD      A,(BC.D004)
  0EE2    3D                                DEC     A
  0EE3    B3                                OR      E
  0EE4    7B                                LD      A,E
  0EE5    CA 1512                           JP      Z,BC.J057
  0EE8    07                                RLCA
  0EE9    83                                ADD     A,E
  0EEA    5F                                LD      E,A
  0EEB    21 0361                           LD      HL,BC.TB2
  0EEE    19                                ADD     HL,DE
  0EEF    78                                LD      A,B
  0EF0    56                                LD      D,M
  0EF1    BA                                CP      D
  0EF2    D0                                RET     NC
  0EF3    23                                INC     HL
  0EF4    CD 0E88                           CALL    BC.C053
  0EF7    C5                    BC.J044:    PUSH    BC
  0EF8    01 0EA9                           LD      BC,BC.D079
  0EFB    C5                                PUSH    BC
  0EFC    ED 4B 0166                        LD      BC,(BC.D029)
  0F00    C5                                PUSH    BC
  0F01    ED 4B 0168                        LD      BC,(BC.D030)
  0F05    C5                                PUSH    BC
  0F06    ED 4B 016A                        LD      BC,(BC.D031)
  0F0A    C5                                PUSH    BC
  0F0B    4E                                LD      C,M
  0F0C    23                                INC     HL
  0F0D    46                                LD      B,M
  0F0E    C5                                PUSH    BC
  0F0F    2A 014A                           LD      HL,(BC.D013)
  0F12    18 89                             JR      $-117
                                
  0F14    AF                    BC.C058:    XOR     A
  0F15    32 0102                           LD      (BC.D004),A
  0F18    CD 0947                           CALL    BC.C031
  0F1B    DA 23E3                           JP      C,BC.J084
  0F1E    CD 0A14                           CALL    BC.C038
  0F21    30 44                             JR      NC,$+70
  0F23    FE A5                             CP      0A5H                ;  +
  0F25    28 ED                             JR      Z,$-17
  0F27    FE 2E                             CP      '.'
  0F29    CA 23E3                           JP      Z,BC.J084
  0F2C    FE A6                             CP      0A6H                ;  -
  0F2E    28 26                             JR      Z,$+40
  0F30    FE 22                             CP      022H                ;  "
  0F32    CA 13EE                           JP      Z,BC.C071
  0F35    FE A3                             CP      0A3H                ;  NOT
  0F37    CA 1045                           JP      Z,BC.J046
  0F3A    FE A0                             CP      0A0H                ;  FN
  0F3C    CA 126C                           JP      Z,BC.J052
  0F3F    FE 26                             CP      '&'
  0F41    CA 2471                           JP      Z,BC.J086
  0F44    D6 AF                             SUB     0AFH
  0F46    30 30                             JR      NC,$+50
  0F48    3E 28                 BC.C059:    LD      A,'('
  0F4A    CD 0451                           CALL    BC.C006
  0F4D    CD 0E9A                           CALL    BC.C056
  0F50    3E 29                             LD      A,')'
  0F52    CD 0451                           CALL    BC.C006
  0F55    C9                                RET
	MACRO-80 3.44	09-Dec-81	PAGE	1-31


                                
  0F56    16 7D                             LD      D,07DH
  0F58    CD 0E9D                           CALL    BC.C057
  0F5B    2A 0152                           LD      HL,(BC.D018)
  0F5E    E5                                PUSH    HL
  0F5F    CD 22D2                           CALL    BC.C126
  0F62    CD 0E88               BC.D081:    CALL    BC.C053
  0F65    E1                                POP     HL
  0F66    C9                                RET
                                
  0F67    CD 106A                           CALL    BC.C060
  0F6A    E5                    BC.D082:    PUSH    HL
  0F6B    EB                                EX      DE,HL
  0F6C    22 0166                           LD      (BC.D029),HL
  0F6F    3A 0102                           LD      A,(BC.D004)
  0F72    B7                                OR      A
  0F73    CC 22EC                           CALL    Z,BC.C129
  0F76    E1                                POP     HL
  0F77    C9                                RET
  0F78    06 00                             LD      B,000H
  0F7A    07                                RLCA
  0F7B    4F                                LD      C,A
  0F7C    C5                                PUSH    BC
  0F7D    CD 0947                           CALL    BC.C031
  0F80    79                                LD      A,C
  0F81    FE 29                             CP      029H
  0F83    38 26                             JR      C,$+40
  0F85    FE 30                             CP      030H
  0F87    28 22                             JR      Z,$+36
  0F89    FE 32                             CP      032H
  0F8B    28 1B                             JR      Z,$+29
  0F8D    D2 0A44                           JP      NC,BC.J033
  0F90    3E 28                             LD      A,028H
  0F92    CD 0451                           CALL    BC.C006
  0F95    CD 0E95                           CALL    BC.C055
  0F98    3E 2C                             LD      A,02CH
  0F9A    CD 0451                           CALL    BC.C006
  0F9D    EB                                EX      DE,HL
  0F9E    2A 0166                           LD      HL,(BC.D029)
  0FA1    E3                                EX      (SP),HL
  0FA2    E5                                PUSH    HL
  0FA3    EB                                EX      DE,HL
  0FA4    CD 171B                           CALL    BC.C091
  0FA7    EB                                EX      DE,HL
  0FA8    E3                                EX      (SP),HL
  0FA9    18 08                             JR      $+10
  0FAB    CD 0F48                           CALL    BC.C059
  0FAE    E3                                EX      (SP),HL
  0FAF    11 0F62                           LD      DE,BC.D081
  0FB2    D5                                PUSH    DE
  0FB3    01 032D                           LD      BC,BC.TB1
  0FB6    09                                ADD     HL,BC
  0FB7    4E                                LD      C,M
  0FB8    23                                INC     HL
  0FB9    66                                LD      H,M
  0FBA    69                                LD      L,C
  0FBB    E9                                JP      (HL)
                                
  0FBC    F6 AF                             OR      0AFH
  0FBE    F5                                PUSH    AF
  0FBF    CD 0A1C                           CALL    BC.C039
  0FC2    F1                                POP     AF
  0FC3    EB                                EX      DE,HL
  0FC4    C1                                POP     BC
  0FC5    DD E1                             POP     IX
  0FC7    E3                                EX      (SP),HL
  0FC8    EB                                EX      DE,HL
  0FC9    CD 22F5                           CALL    BC.C130
  0FCC    F5                                PUSH    AF
  0FCD    CD 0A2D                           CALL    BC.C043
  0FD0    F1                                POP     AF
  0FD1    C1                                POP     BC
  0FD2    79                                LD      A,C
  0FD3    21 121D                           LD      HL,BC.D087
  0FD6    20 05                             JR      NZ,$+07
  0FD8    A3                                AND     E
  0FD9    4F                                LD      C,A
  0FDA    78                    BC.D083:    LD      A,B
  0FDB    A2                                AND     D
  0FDC    E9                                JP      (HL)
                                
  0FDD    B3                                OR      E
  0FDE    4F                                LD      C,A
	MACRO-80 3.44	09-Dec-81	PAGE	1-32


  0FDF    78                                LD      A,B
  0FE0    B2                                OR      D
  0FE1    E9                                JP      (HL)
                                
  0FE2    21 0FF4               BC.J045:    LD      HL,BC.D084
  0FE5    3A 0102                           LD      A,(BC.D004)
  0FE8    1F                                RRA
  0FE9    7A                                LD      A,D
  0FEA    17                                RLA
  0FEB    5F                                LD      E,A
  0FEC    16 64                             LD      D,064H
  0FEE    78                                LD      A,B
  0FEF    BA                                CP      D
  0FF0    D0                                RET     NC
  0FF1    C3 0EF7                           JP      BC.J044
                                
  0FF4    F6 0F                 BC.D084:    OR      00FH
  0FF6    79                                LD      A,C
  0FF7    B7                                OR      A
  0FF8    1F                                RRA
  0FF9    C1                                POP     BC
  0FFA    DD E1                             POP     IX
  0FFC    D1                                POP     DE
  0FFD    F5                                PUSH    AF
  0FFE    CD 0E8A                           CALL    BC.C054
  1001    21 103B                           LD      HL,BC.D085
  1004    E5                                PUSH    HL
  1005    CA 2336                           JP      Z,BC.C136
  1008    AF                                XOR     A
  1009    32 0102                           LD      (BC.D004),A
  100C    D5                                PUSH    DE
  100D    CD 1563                           CALL    BC.C083
  1010    D1                                POP     DE
  1011    4E                                LD      C,M
  1012    23                                INC     HL
  1013    46                                LD      B,M
  1014    23                                INC     HL
  1015    C5                                PUSH    BC
  1016    4E                                LD      C,M
  1017    23                                INC     HL
  1018    46                                LD      B,M
  1019    C5                                PUSH    BC
  101A    CD 1567                           CALL    BC.C085
  101D    CD 236C                           CALL    BC.C138
  1020    E1                                POP     HL
  1021    E3                                EX      (SP),HL
  1022    55                                LD      D,L
  1023    E1                                POP     HL
  1024    7B                                LD      A,E
  1025    B2                                OR      D
  1026    C8                                RET     Z
  1027    7A                                LD      A,D
  1028    D6 01                             SUB     001H
  102A    D8                                RET     C
  102B    AF                                XOR     A
  102C    BB                                CP      E
  102D    3C                                INC     A
  102E    D0                                RET     NC
  102F    15                                DEC     D
  1030    1D                                DEC     E
  1031    0A                                LD      A,(BC)
  1032    BE                                CP      M
  1033    23                                INC     HL
  1034    03                                INC     BC
  1035    28 ED                             JR      Z,$-17
  1037    3F                                CCF
  1038    C3 22CA                           JP      BC.J082
                                
  103B    3C                    BC.D085:    INC     A
  103C    8F                                ADC     A,A
  103D    C1                                POP     BC
  103E    A0                                AND     B
  103F    C6 FF                             ADD     A,0FFH
  1041    9F                                SBC     A,A
  1042    C3 22A6                           JP      BC.C123
                                
  1045    16 5A                 BC.J046:    LD      D,05AH
  1047    CD 0E9D                           CALL    BC.C057
  104A    CD 0E88                           CALL    BC.C053
  104D    CD 0A2D                           CALL    BC.C043
  1050    7B                                LD      A,E
  1051    2F                                CPL
  1052    4F                                LD      C,A
	MACRO-80 3.44	09-Dec-81	PAGE	1-33


  1053    7A                                LD      A,D
  1054    2F                                CPL
  1055    CD 121D                           CALL    BC.C063
  1058    C1                                POP     BC
  1059    C3 0EA9                           JP      BC.J043
                                
  105C    CD 0948               BC.D086:    CALL    BC.C032
  105F    C8                                RET     Z
  1060    3E 2C                             LD      A,02CH
  1062    CD 0451                           CALL    BC.C006
  1065    01 105C               BC.DIM:     LD      BC,BC.D086          ;TOKEN:  D I M
  1068    C5                                PUSH    BC
  1069    F6                                DB      0F6H
  106A    AF                    BC.C060:    XOR     A
  106B    32 0101                           LD      (BC.D003),A
  106E    46                                LD      B,M
  106F    CD 0A14               BC.J047:    CALL    BC.C038
  1072    DA 046D                           JP      C,BC.J004
  1075    AF                                XOR     A
  1076    4F                                LD      C,A
  1077    32 0102                           LD      (BC.D004),A
  107A    CD 0947                           CALL    BC.C031
  107D    38 05                             JR      C,$+07
  107F    CD 0A14                           CALL    BC.C038
  1082    38 0B                             JR      C,$+13
  1084    4F                                LD      C,A
  1085    CD 0947                           CALL    BC.C031
  1088    38 FB                             JR      C,$-03
  108A    CD 0A14                           CALL    BC.C038
  108D    30 F6                             JR      NC,$-08
  108F    D6 24                             SUB     024H
  1091    20 09                             JR      NZ,$+11
  1093    3C                                INC     A
  1094    32 0102                           LD      (BC.D004),A
  1097    CB F9                             SET     7,C
  1099    CD 0947                           CALL    BC.C031
  109C    3A 014E                           LD      A,(BC.D015)
  109F    3D                                DEC     A
  10A0    CA 113C                           JP      Z,BC.J048
  10A3    86                                ADD     A,M
  10A4    D6 27                             SUB     027H
  10A6    28 6C                             JR      Z,$+110
  10A8    AF                                XOR     A
  10A9    32 014E                           LD      (BC.D015),A
  10AC    E5                                PUSH    HL
  10AD    2A 0160                           LD      HL,(BC.D025)
  10B0    EB                                EX      DE,HL
  10B1    2A 015E                           LD      HL,(BC.D024)
  10B4    7C                                LD      A,H
  10B5    92                                SUB     D
  10B6    20 02                             JR      NZ,$+04
  10B8    7D                                LD      A,L
  10B9    93                                SUB     E
  10BA    28 12                             JR      Z,$+20
  10BC    79                                LD      A,C
  10BD    96                                SUB     M
  10BE    23                                INC     HL
  10BF    20 02                             JR      NZ,$+04
  10C1    78                                LD      A,B
  10C2    96                                SUB     M
  10C3    23                                INC     HL
  10C4    28 40                             JR      Z,$+66
  10C6    23                                INC     HL
  10C7    23                                INC     HL
  10C8    23                                INC     HL
  10C9    23                                INC     HL
  10CA    23                                INC     HL
  10CB    23                                INC     HL
  10CC    18 E6                             JR      $-24
  10CE    E1                                POP     HL
  10CF    E3                                EX      (SP),HL
  10D0    D5                                PUSH    DE
  10D1    11 0F6A                           LD      DE,BC.D082
  10D4    7C                                LD      A,H
  10D5    92                                SUB     D
  10D6    20 02                             JR      NZ,$+04
  10D8    7D                                LD      A,L
  10D9    93                                SUB     E
  10DA    D1                                POP     DE
  10DB    28 2C                             JR      Z,$+46
  10DD    E3                                EX      (SP),HL
  10DE    E5                                PUSH    HL
  10DF    C5                                PUSH    BC
	MACRO-80 3.44	09-Dec-81	PAGE	1-34


  10E0    01 0008                           LD      BC,00008H
  10E3    2A 0162                           LD      HL,(BC.D026)
  10E6    E5                                PUSH    HL
  10E7    09                                ADD     HL,BC
  10E8    C1                                POP     BC
  10E9    E5                                PUSH    HL
  10EA    CD 0419                           CALL    BC.C002
  10ED    E1                                POP     HL
  10EE    22 0162                           LD      (BC.D026),HL
  10F1    60                                LD      H,B
  10F2    69                                LD      L,C
  10F3    22 0160                           LD      (BC.D025),HL
  10F6    2B                                DEC     HL
  10F7    36 00                             LD      M,000H
  10F9    7C                                LD      A,H
  10FA    92                                SUB     D
  10FB    20 02                             JR      NZ,$+04
  10FD    7D                                LD      A,L
  10FE    93                                SUB     E
  10FF    20 F5                             JR      NZ,$-09
  1101    D1                                POP     DE
  1102    73                                LD      M,E
  1103    23                                INC     HL
  1104    72                                LD      M,D
  1105    23                                INC     HL
  1106    EB                                EX      DE,HL
  1107    E1                                POP     HL
  1108    C9                                RET
  1109    32 016B                           LD      (BC.D032),A
  110C    21 02FF                           LD      HL,BC.D066
  110F    22 0166                           LD      (BC.D029),HL
  1112    E1                                POP     HL
  1113    C9                                RET
  1114    E5                                PUSH    HL
  1115    2A 0101                           LD      HL,(BC.D003)
  1118    E3                                EX      (SP),HL
  1119    57                                LD      D,A
  111A    D5                                PUSH    DE
  111B    C5                                PUSH    BC
  111C    CD 0A21                           CALL    BC.C040
  111F    C1                                POP     BC
  1120    F1                                POP     AF
  1121    EB                                EX      DE,HL
  1122    E3                                EX      (SP),HL
  1123    E5                                PUSH    HL
  1124    EB                                EX      DE,HL
  1125    3C                                INC     A
  1126    57                                LD      D,A
  1127    7E                                LD      A,M
  1128    FE 2C                             CP      02CH
  112A    28 EE                             JR      Z,$-16
  112C    3E 29                             LD      A,029H
  112E    CD 0451                           CALL    BC.C006
  1131    22 0152                           LD      (BC.D018),HL
  1134    E1                                POP     HL
  1135    22 0101                           LD      (BC.D003),HL
  1138    1E 00                             LD      E,000H
  113A    D5                                PUSH    DE
  113B    11                                DB      11H
  113C    E5                    BC.J048:    PUSH    HL
  113D    F5                                PUSH    AF
  113E    2A 0160                           LD      HL,(BC.D025)
  1141    3E 19                             LD      A,019H
  1143    ED 5B 0162                        LD      DE,(BC.D026)
  1147    7C                                LD      A,H
  1148    92                                SUB     D
  1149    20 02                             JR      NZ,$+04
  114B    7D                                LD      A,L
  114C    93                                SUB     E
  114D    28 21                             JR      Z,$+35
  114F    7E                                LD      A,M
  1150    B9                                CP      C
  1151    23                                INC     HL
  1152    20 02                             JR      NZ,$+04
  1154    7E                                LD      A,M
  1155    B8                                CP      B
  1156    23                                INC     HL
  1157    5E                                LD      E,M
  1158    23                                INC     HL
  1159    56                                LD      D,M
  115A    23                                INC     HL
  115B    20 E5                             JR      NZ,$-25
  115D    3A 0101                           LD      A,(BC.D003)
	MACRO-80 3.44	09-Dec-81	PAGE	1-35


  1160    B7                                OR      A
  1161    C2 0476                           JP      NZ,BC.J007
  1164    F1                                POP     AF
  1165    CA 1F01                           JP      Z,BC.J069
  1168    96                                SUB     M
  1169    28 61                             JR      Z,$+99
  116B    1E 09                 BC.J049:    LD      E,9
  116D    C3 047E                           JP      BC.J010
                                
  1170    11 0006                           LD      DE,6
  1173    F1                                POP     AF
  1174    CA 1F19                           JP      Z,BC.J070
  1177    71                                LD      M,C
  1178    23                                INC     HL
  1179    70                                LD      M,B
  117A    23                                INC     HL
  117B    4F                                LD      C,A
  117C    CD 0431                           CALL    BC.C004
  117F    23                                INC     HL
  1180    23                                INC     HL
  1181    22 014A                           LD      (BC.D013),HL
  1184    71                                LD      M,C
  1185    23                                INC     HL
  1186    3A 0101                           LD      A,(BC.D003)
  1189    17                                RLA
  118A    79                                LD      A,C
  118B    01 000B                           LD      BC,0000BH
  118E    30 02                             JR      NC,$+04
  1190    C1                                POP     BC
  1191    03                                INC     BC
  1192    71                                LD      M,C
  1193    23                                INC     HL
  1194    70                                LD      M,B
  1195    23                                INC     HL
  1196    F5                                PUSH    AF
  1197    E5                                PUSH    HL
  1198    CD 23C6                           CALL    BC.C140
  119B    EB                                EX      DE,HL
  119C    E1                                POP     HL
  119D    F1                                POP     AF
  119E    3D                                DEC     A
  119F    20 EA                             JR      NZ,$-20
  11A1    F5                                PUSH    AF
  11A2    42                                LD      B,D
  11A3    4B                                LD      C,E
  11A4    EB                                EX      DE,HL
  11A5    19                                ADD     HL,DE
  11A6    38 C3                             JR      C,$-59
  11A8    CD 043E                           CALL    BC.C005
  11AB    22 0162                           LD      (BC.D026),HL
  11AE    2B                                DEC     HL
  11AF    36 00                             LD      M,000H
  11B1    7C                                LD      A,H
  11B2    92                                SUB     D
  11B3    20 02                             JR      NZ,$+04
  11B5    7D                                LD      A,L
  11B6    93                                SUB     E
  11B7    20 F5                             JR      NZ,$-09
  11B9    03                                INC     BC
  11BA    57                                LD      D,A
  11BB    2A 014A                           LD      HL,(BC.D013)
  11BE    5E                                LD      E,M
  11BF    EB                                EX      DE,HL
  11C0    29                                ADD     HL,HL
  11C1    09                                ADD     HL,BC
  11C2    EB                                EX      DE,HL
  11C3    2B                                DEC     HL
  11C4    2B                                DEC     HL
  11C5    73                                LD      M,E
  11C6    23                                INC     HL
  11C7    72                                LD      M,D
  11C8    23                                INC     HL
  11C9    F1                                POP     AF
  11CA    38 26                             JR      C,$+40
  11CC    47                                LD      B,A
  11CD    4F                                LD      C,A
  11CE    7E                                LD      A,M
  11CF    23                                INC     HL
  11D0    16 E1                             LD      D,0E1H
  11D2    5E                                LD      E,M
  11D3    23                                INC     HL
  11D4    56                                LD      D,M
  11D5    23                                INC     HL
	MACRO-80 3.44	09-Dec-81	PAGE	1-36


  11D6    E3                                EX      (SP),HL
  11D7    F5                                PUSH    AF
  11D8    7C                                LD      A,H
  11D9    92                                SUB     D
  11DA    20 02                             JR      NZ,$+04
  11DC    7D                                LD      A,L
  11DD    93                                SUB     E
  11DE    30 8B                             JR      NC,$-115
  11E0    E5                                PUSH    HL
  11E1    CD 23C6                           CALL    BC.C140
  11E4    D1                                POP     DE
  11E5    19                                ADD     HL,DE
  11E6    F1                                POP     AF
  11E7    3D                                DEC     A
  11E8    44                                LD      B,H
  11E9    4D                                LD      C,L
  11EA    20 E5                             JR      NZ,$-25
  11EC    29                                ADD     HL,HL
  11ED    09                                ADD     HL,BC
  11EE    29                                ADD     HL,HL
  11EF    C1                                POP     BC
  11F0    09                                ADD     HL,BC
  11F1    EB                                EX      DE,HL
  11F2    2A 0152                           LD      HL,(BC.D018)
  11F5    C9                                RET
                                
  11F6    2A 0162               BC.FRE:     LD      HL,(BC.D026)        ;TOKEN:  F R E
  11F9    EB                                EX      DE,HL
  11FA    21 0000                           LD      HL,00000H
  11FD    39                                ADD     HL,SP
  11FE    3A 0102                           LD      A,(BC.D004)
  1201    B7                                OR      A
  1202    28 0D                             JR      Z,$+15
  1204    CD 1563                           CALL    BC.C083
  1207    CD 1473                           CALL    BC.C078
  120A    2A 015A                           LD      HL,(BC.D022)
  120D    EB                                EX      DE,HL
  120E    2A 0148                           LD      HL,(BC.D012)
  1211    AF                                XOR     A
  1212    32 0102                           LD      (BC.D004),A
  1215    ED 52                             SBC     HL,DE
  1217    EB                    BC.C061:    EX      DE,HL
  1218    AF                    BC.C062:    XOR     A
  1219    06 98                             LD      B,098H
  121B    18 0A                             JR      $+12
                                
  121D                          BC.D087     EQU     $
  121D    41                    BC.C063:    LD      B,C
  121E                          BC.D088     EQU     $
  121E    50                    BC.J050:    LD      D,B
  121F    1E 00                             LD      E,000H
  1221    21 0102                           LD      HL,BC.D004
  1224    73                                LD      M,E
  1225    06 90                             LD      B,090H
  1227    C3 22AB                           JP      BC.C124
                                
  122A    3A 0195               BC.LPOS:    LD      A,(BC.D044)         ;TOKEN:  L P O S
  122D    18 03                             JR      $+05
                                
  122F    3A 0190               BC.POS:     LD      A,(BC.D041)         ;TOKEN:  P O S
  1232                          BC.D089     EQU     $
  1232    47                    BC.C064:    LD      B,A
  1233    AF                                XOR     A
  1234    18 E8                             JR      $-22
                                
  1236    CD 13AA               BC.DEF:     CALL    BC.C066             ;TOKEN:  D E F
  1239    CD 139C                           CALL    BC.C065
  123C    EB                                EX      DE,HL
  123D    73                                LD      M,E
  123E    23                                INC     HL
  123F    72                                LD      M,D
  1240    EB                                EX      DE,HL
  1241    2B                                DEC     HL
  1242    CD 0947                           CALL    BC.C031
  1245    28 07                             JR      Z,$+09
  1247    FE AD                             CP      0ADH
  1249    20 F7                             JR      NZ,$-07
  124B    C3 0B0B                           JP      BC.DATA
  124E    B7                                OR      A
  124F    20 0F                             JR      NZ,$+17
  1251    23                                INC     HL
  1252    7E                                LD      A,M
  1253    23                                INC     HL
	MACRO-80 3.44	09-Dec-81	PAGE	1-37


  1254    B6                                OR      M
  1255    CA 046D                           JP      Z,BC.J004
  1258    23                                INC     HL
  1259    5E                                LD      E,M
  125A    23                                INC     HL
  125B    56                                LD      D,M
  125C    ED 53 0154                        LD      (BC.D019),DE
  1260    CD 0947               BC.J051:    CALL    BC.C031
  1263    28 E9                             JR      Z,$-21
  1265    FE 89                             CP      089H
  1267    28 E2                             JR      Z,$-28
  1269    C3 1260                           JP      BC.J051
                                
  126C    CD 13AA               BC.J052:    CALL    BC.C066
  126F    3A 0102                           LD      A,(BC.D004)
  1272    B7                                OR      A
  1273    F5                                PUSH    AF
  1274    22 0152                           LD      (BC.D018),HL
  1277    EB                                EX      DE,HL
  1278    7E                                LD      A,M
  1279    23                                INC     HL
  127A    66                                LD      H,M
  127B    6F                                LD      L,A
  127C    B4                                OR      H
  127D    CA 0479                           JP      Z,BC.J008
  1280    7E                                LD      A,M
  1281    FE 28                             CP      028H
  1283    20 71                             JR      NZ,$+115
  1285    CD 0947                           CALL    BC.C031
  1288    22 014A                           LD      (BC.D013),HL
  128B    18 05                             JR      $+07
  128D    3E 2C                             LD      A,02CH
  128F    CD 0451                           CALL    BC.C006
  1292    0E 05                             LD      C,005H
  1294    CD 0431                           CALL    BC.C004
  1297    3E 29                             LD      A,029H
  1299    32 014E                           LD      (BC.D015),A
  129C    CD 106A                           CALL    BC.C060
  129F    EB                                EX      DE,HL
  12A0    3A 0102                           LD      A,(BC.D004)
  12A3    B7                                OR      A
  12A4    37                                SCF
  12A5    20 10                             JR      NZ,$+18
  12A7    4E                                LD      C,M
  12A8    23                                INC     HL
  12A9    46                                LD      B,M
  12AA    C5                                PUSH    BC
  12AB    23                                INC     HL
  12AC    4E                                LD      C,M
  12AD    23                                INC     HL
  12AE    46                                LD      B,M
  12AF    C5                                PUSH    BC
  12B0    23                                INC     HL
  12B1    4E                                LD      C,M
  12B2    23                                INC     HL
  12B3    46                                LD      B,M
  12B4    C5                                PUSH    BC
  12B5    18 08                             JR      $+10
  12B7    F5                                PUSH    AF
  12B8    D5                                PUSH    DE
  12B9    EB                                EX      DE,HL
  12BA    CD 1410                           CALL    BC.C074
  12BD    D1                                POP     DE
  12BE    F1                                POP     AF
  12BF    E5                                PUSH    HL
  12C0    F5                                PUSH    AF
  12C1    EB                                EX      DE,HL
  12C2    7E                                LD      A,M
  12C3    FE 29                             CP      029H
  12C5    20 C6                             JR      NZ,$-56
  12C7    2A 0152                           LD      HL,(BC.D018)
  12CA    3E 28                             LD      A,028H
  12CC    CD 0451                           CALL    BC.C006
  12CF    E5                                PUSH    HL
  12D0    2A 014A                           LD      HL,(BC.D013)
  12D3    CD 106A                           CALL    BC.C060
  12D6    E3                                EX      (SP),HL
  12D7    CD 0B33                           CALL    BC.C046
  12DA    7E                                LD      A,M
  12DB    FE 29                             CP      029H
  12DD    28 0D                             JR      Z,$+15
  12DF    3E 2C                             LD      A,02CH
  12E1    CD 0451                           CALL    BC.C006
	MACRO-80 3.44	09-Dec-81	PAGE	1-38


  12E4    E3                                EX      (SP),HL
  12E5    3E 2C                             LD      A,02CH
  12E7    CD 0451                           CALL    BC.C006
  12EA    18 E7                             JR      $-23
  12EC    CD 0947                           CALL    BC.C031
  12EF    E3                                EX      (SP),HL
  12F0    3E 29                             LD      A,029H
  12F2    CD 0451                           CALL    BC.C006
  12F5    3E D5                             LD      A,0D5H
  12F7    CD 0948                           CALL    BC.C032
  12FA    28 10                             JR      Z,$+18
  12FC    3E AD                             LD      A,0ADH
  12FE    CD 0451                           CALL    BC.C006
  1301    CD 0E9A                           CALL    BC.C056
  1304    CD 0948                           CALL    BC.C032
  1307    C2 046D                           JP      NZ,BC.J004
  130A    18 3A                             JR      $+60
  130C    0E 02                             LD      C,002H
  130E    CD 0431                           CALL    BC.C004
  1311    ED 5B 0154                        LD      DE,(BC.D019)
  1315    D5                                PUSH    DE
  1316    16 A0                             LD      D,0A0H
  1318    D5                                PUSH    DE
  1319    33                                INC     SP
  131A    C3 08CC                           JP      BC.J024
                                
  131D                          BC.FNRTN    EQU     $                   ;TOKEN  F N R E T U R N
  131D    20 0C                 BC.FNEND:   JR      NZ,$+14             ;TOKEN:  F N E N D
  131F    CD 200E                           CALL    BC.C112
  1322    32 0144                           LD      (BC.D010),A
  1325    2F                                CPL
  1326    32 0102                           LD      (BC.D004),A
  1329    18 09                             JR      $+11
  132B    CD 0E9A                           CALL    BC.C056
  132E    CD 0948                           CALL    BC.C032
  1331    C2 046D                           JP      NZ,BC.J004
  1334    16 FF                             LD      D,0FFH
  1336    CD 03F6                           CALL    BC.C001
  1339    F9                                LD      SP,HL
  133A    FE A0                             CP      0A0H
  133C    1E 17                             LD      E,017H
  133E    C2 047E                           JP      NZ,BC.J010
  1341    D1                                POP     DE
  1342    ED 53 0154                        LD      (BC.D019),DE
  1346    3A 0102                           LD      A,(BC.D004)
  1349    3C                                INC     A
  134A    28 03                             JR      Z,$+05
  134C    3D                                DEC     A
  134D    20 2E                             JR      NZ,$+48
  134F    D1                                POP     DE
  1350    F1                                POP     AF
  1351    30 13                             JR      NC,$+21
  1353    20 37                             JR      NZ,$+57
  1355    E1                                POP     HL
  1356    C1                                POP     BC
  1357    70                                LD      M,B
  1358    2B                                DEC     HL
  1359    71                                LD      M,C
  135A    2B                                DEC     HL
  135B    C1                                POP     BC
  135C    70                                LD      M,B
  135D    2B                                DEC     HL
  135E    71                                LD      M,C
  135F    2B                                DEC     HL
  1360    C1                                POP     BC
  1361    70                                LD      M,B
  1362    2B                                DEC     HL
  1363    71                                LD      M,C
  1364    18 EA                             JR      $-20
  1366    F5                                PUSH    AF
  1367    D5                                PUSH    DE
  1368    21 0102                           LD      HL,BC.D004
  136B    CB 7E                             BIT     7,M
  136D    28 01                             JR      Z,$+03
  136F    77                                LD      M,A
  1370    B7                                OR      A
  1371    11 0144                           LD      DE,BC.D010
  1374    C4 1410                           CALL    NZ,BC.C074
  1377    E1                                POP     HL
  1378    F1                                POP     AF
  1379    1F                                RRA
  137A    C3 0E8A                           JP      BC.C054
  137D    ED 5B 0166                        LD      DE,(BC.D029)
	MACRO-80 3.44	09-Dec-81	PAGE	1-39


  1381    CD 1583                           CALL    BC.C086
  1384    21 0144                           LD      HL,BC.D010
  1387    CD 2319                           CALL    BC.C134
  138A    18 C3                             JR      $-59
  138C    CD 1583                           CALL    BC.C086
  138F    7E                                LD      A,M
  1390    22 0106                           LD      (BC.D007),HL
  1393    E1                                POP     HL
  1394    77                                LD      M,A
  1395    23                                INC     HL
  1396    23                                INC     HL
  1397    71                                LD      M,C
  1398    23                                INC     HL
  1399    70                                LD      M,B
  139A    18 B4                             JR      $-74
                                
  139C    E5                    BC.C065:    PUSH    HL
  139D    2A 0154                           LD      HL,(BC.D019)
  13A0    23                                INC     HL
  13A1    7C                                LD      A,H
  13A2    B5                                OR      L
  13A3    E1                                POP     HL
  13A4    C0                                RET     NZ
  13A5    1E 0C                 BC.J053:    LD      E,12
  13A7    C3 047E                           JP      BC.J010
                                
  13AA    3E A0                 BC.C066:    LD      A,0A0H
  13AC    CD 0451                           CALL    BC.C006
  13AF    F6 80                             OR      080H
  13B1    47                                LD      B,A
  13B2    3E 29                             LD      A,029H
  13B4    32 014E                           LD      (BC.D015),A
  13B7    C3 106F                           JP      BC.J047
                                
  13BA    CD 0E88               BC.STRD:    CALL    BC.C053             ;TOKEN:  S T R $
  13BD    CD 24DD                           CALL    BC.C148
  13C0    CD 13ED                           CALL    BC.C070
  13C3    CD 1563                           CALL    BC.C083
  13C6    01 15C2                           LD      BC,BC.D093
  13C9    C5                                PUSH    BC
  13CA    7E                    BC.C067:    LD      A,M
  13CB    23                                INC     HL
  13CC    23                                INC     HL
  13CD    E5                                PUSH    HL
  13CE    CD 1449                           CALL    BC.C077
  13D1    E1                                POP     HL
  13D2    4E                                LD      C,M
  13D3    23                                INC     HL
  13D4    46                                LD      B,M
  13D5    CD 13E1                           CALL    BC.C069
  13D8    E5                                PUSH    HL
  13D9    CD 1559                           CALL    BC.C081
  13DC    D1                                POP     DE
  13DD    C9                                RET
                                
  13DE    CD 1449               BC.C068:    CALL    BC.C077
  13E1    21 0144               BC.C069:    LD      HL,BC.D010
  13E4    E5                                PUSH    HL
  13E5    77                                LD      M,A
  13E6    23                                INC     HL
  13E7    23                                INC     HL
  13E8    73                                LD      M,E
  13E9    23                                INC     HL
  13EA    72                                LD      M,D
  13EB    E1                                POP     HL
  13EC    C9                                RET
                                
  13ED    2B                    BC.C070:    DEC     HL
  13EE    06 22                 BC.C071:    LD      B,022H
  13F0    50                    BC.C072:    LD      D,B
  13F1    E5                    BC.C073:    PUSH    HL
  13F2    0E FF                             LD      C,0FFH
  13F4    23                                INC     HL
  13F5    7E                                LD      A,M
  13F6    0C                                INC     C
  13F7    B7                                OR      A
  13F8    28 06                             JR      Z,$+08
  13FA    BA                                CP      D
  13FB    28 03                             JR      Z,$+05
  13FD    B8                                CP      B
  13FE    20 F4                             JR      NZ,$-10
  1400    FE 22                             CP      022H
  1402    CC 0947                           CALL    Z,BC.C031
	MACRO-80 3.44	09-Dec-81	PAGE	1-40


  1405    E3                                EX      (SP),HL
  1406    23                                INC     HL
  1407    EB                                EX      DE,HL
  1408    79                                LD      A,C
  1409    CD 13E1                           CALL    BC.C069
  140C    11 0144               BC.J054:    LD      DE,BC.D010
  140F    3E                                DB      3EH
  1410    D5                    BC.C074:    PUSH    DE
  1411    2A 0106                           LD      HL,(BC.D007)
  1414    22 0166                           LD      (BC.D029),HL
  1417    3E 01                             LD      A,001H
  1419    32 0102                           LD      (BC.D004),A
  141C    CD 2319                           CALL    BC.C134
  141F    7C                                LD      A,H
  1420    92                                SUB     D
  1421    20 02                             JR      NZ,$+04
  1423    7D                                LD      A,L
  1424    93                                SUB     E
  1425    22 0106                           LD      (BC.D007),HL
  1428    E1                                POP     HL
  1429    7E                                LD      A,M
  142A    C0                                RET     NZ
  142B    1E 10                             LD      E,16
  142D    C3 047E                           JP      BC.J010
                                
  1430    23                    BC.J055:    INC     HL
  1431    CD 13ED               BC.C075:    CALL    BC.C070
  1434    CD 1563               BC.C076:    CALL    BC.C083
  1437    CD 236C                           CALL    BC.C138
  143A    1C                                INC     E
  143B    1D                                DEC     E
  143C    C8                                RET     Z
  143D    0A                                LD      A,(BC)
  143E    CD 0766                           CALL    BC.C024
  1441    FE 0D                             CP      00DH
  1443    CC 0CFB                           CALL    Z,BC.C049
  1446    03                                INC     BC
  1447    18 F2                             JR      $-12
                                
  1449    B7                    BC.C077:    OR      A
  144B                          BC.D090     EQU     $+1
  144A    0E F1                             LD      C,0F1H
  144C    F5                                PUSH    AF
  144D    2A 015A                           LD      HL,(BC.D022)
  1450    EB                                EX      DE,HL
  1451    2A 0148                           LD      HL,(BC.D012)
  1454    4F                                LD      C,A
  1455    AF                                XOR     A
  1456    47                                LD      B,A
  1457    ED 42                             SBC     HL,BC
  1459    7C                                LD      A,H
  145A    92                                SUB     D
  145B    20 02                             JR      NZ,$+04
  145D    7D                                LD      A,L
  145E    93                                SUB     E
  145F    38 07                             JR      C,$+09
  1461    22 0148                           LD      (BC.D012),HL
  1464    23                                INC     HL
  1465    EB                                EX      DE,HL
  1466    F1                                POP     AF
  1467    C9                                RET
  1468    F1                                POP     AF
  1469    1E 0E                             LD      E,00EH
  146B    28 C0                             JR      Z,$-62
  146D    BF                                CP      A
  146E    F5                                PUSH    AF
  146F    01 144B                           LD      BC,BC.D090
  1472    C5                                PUSH    BC
  1473    2A 0104               BC.C078:    LD      HL,(BC.D006)
  1476    22 0148               BC.J056:    LD      (BC.D012),HL
  1479    AF                                XOR     A
  147A    08                                EX      AF,AF'              ;'
  147B    ED 5B 015A                        LD      DE,(BC.D022)
  147F    D9                                EXX
  1480    21 0108                           LD      HL,BC.D008
  1483    ED 5B 0106            BC.D091:    LD      DE,(BC.D007)
  1487    7C                                LD      A,H
  1488    92                                SUB     D
  1489    20 02                             JR      NZ,$+04
  148B    7D                                LD      A,L
  148C    93                                SUB     E
  148D    01 1483                           LD      BC,BC.D091
  1490    20 3F                             JR      NZ,$+65
	MACRO-80 3.44	09-Dec-81	PAGE	1-41


  1492    2A 015E                           LD      HL,(BC.D024)
  1495    ED 5B 0160                        LD      DE,(BC.D025)
  1499    7C                                LD      A,H
  149A    92                                SUB     D
  149B    20 02                             JR      NZ,$+04
  149D    7D                                LD      A,L
  149E    93                                SUB     E
  149F    28 0A                             JR      Z,$+12
  14A1    CB 7E                             BIT     7,M
  14A3    23                                INC     HL
  14A4    23                                INC     HL
  14A5    CD 14D2                           CALL    BC.C079
  14A8    18 EB                             JR      $-19
  14AA    C1                                POP     BC
  14AB    EB                                EX      DE,HL
  14AC    2A 0162                           LD      HL,(BC.D026)
  14AF    ED 52                             SBC     HL,DE
  14B1    EB                                EX      DE,HL
  14B2    28 44                             JR      Z,$+70
  14B4    CD 236C                           CALL    BC.C138
  14B7    CB 7B                             BIT     7,E
  14B9    E5                                PUSH    HL
  14BA    09                                ADD     HL,BC
  14BB    28 ED                             JR      Z,$-17
  14BD    E3                                EX      (SP),HL
  14BE    4E                                LD      C,M
  14BF    06 00                             LD      B,000H
  14C1    09                                ADD     HL,BC
  14C2    09                                ADD     HL,BC
  14C3    23                                INC     HL
  14C4    D1                    BC.D092:    POP     DE
  14C5    7C                                LD      A,H
  14C6    92                                SUB     D
  14C7    20 02                             JR      NZ,$+04
  14C9    7D                                LD      A,L
  14CA    93                                SUB     E
  14CB    28 DE                             JR      Z,$-32
  14CD    D5                                PUSH    DE
  14CE    01 14C4                           LD      BC,BC.D092
  14D1    C5                                PUSH    BC
  14D2    7E                    BC.C079:    LD      A,M
  14D3    23                                INC     HL
  14D4    23                                INC     HL
  14D5    5E                                LD      E,M
  14D6    23                                INC     HL
  14D7    56                                LD      D,M
  14D8    23                                INC     HL
  14D9    23                                INC     HL
  14DA    23                                INC     HL
  14DB    C8                                RET     Z
  14DC    B7                                OR      A
  14DD    C8                                RET     Z
  14DE    D5                                PUSH    DE
  14DF    D9                                EXX
  14E0    C1                                POP     BC
  14E1    2A 0148                           LD      HL,(BC.D012)
  14E4    ED 42                             SBC     HL,BC
  14E6    D9                                EXX
  14E7    D8                                RET     C
  14E8    D9                                EXX
  14E9    62                                LD      H,D
  14EA    6B                                LD      L,E
  14EB    ED 42                             SBC     HL,BC
  14ED    D9                                EXX
  14EE    D0                                RET     NC
  14EF    D9                                EXX
  14F0    50                                LD      D,B
  14F1    59                                LD      E,C
  14F2    D9                                EXX
  14F3    08                                EX      AF,AF'              ;'
  14F4    E5                                PUSH    HL
  14F5    DD E1                             POP     IX
  14F7    C9                                RET
  14F8    08                                EX      AF,AF'              ;'
  14F9    D0                                RET     NC
  14FA    D9                                EXX
  14FB    2A 0148                           LD      HL,(BC.D012)
  14FE    EB                                EX      DE,HL
  14FF    4F                                LD      C,A
  1500    06 00                             LD      B,000H
  1502    09                                ADD     HL,BC
  1503    2B                                DEC     HL
  1504    ED B8                             LDDR
	MACRO-80 3.44	09-Dec-81	PAGE	1-42


  1506    62                                LD      H,D
  1507    6B                                LD      L,E
  1508    13                                INC     DE
  1509    DD 72 FD                          LD      (IX-03),D
  150C    DD 73 FC                          LD      (IX-04),E
  150F    C3 1476                           JP      BC.J056
                                
  1512    C5                    BC.J057:    PUSH    BC
  1513    E5                                PUSH    HL
  1514    2A 0166                           LD      HL,(BC.D029)
  1517    E3                                EX      (SP),HL
  1518    CD 0F14                           CALL    BC.C058
  151B    E3                                EX      (SP),HL
  151C    CD 0E89                           CALL    BC.C053+1
  151F    7E                                LD      A,M
  1520    E5                                PUSH    HL
  1521    2A 0166                           LD      HL,(BC.D029)
  1524    E5                                PUSH    HL
  1525    86                                ADD     A,M
  1526    1E 0F                             LD      E,00FH
  1528    DA 047E                           JP      C,BC.J010
  152B    CD 13DE                           CALL    BC.C068
  152E    D1                                POP     DE
  152F    CD 1567                           CALL    BC.C085
  1532    E3                                EX      (SP),HL
  1533    CD 1566                           CALL    BC.C084
  1536    E5                                PUSH    HL
  1537    2A 0146                           LD      HL,(BC.D011)
  153A    EB                                EX      DE,HL
  153B    CD 1549                           CALL    BC.C080
  153E    CD 1549                           CALL    BC.C080
  1541    21 0EAC                           LD      HL,BC.D080
  1544    E3                                EX      (SP),HL
  1545    E5                                PUSH    HL
  1546    C3 140C                           JP      BC.J054
                                
  1549    E1                    BC.C080:    POP     HL
  154A    E3                                EX      (SP),HL
  154B    4E                                LD      C,M
  154C    23                                INC     HL
  154D    46                                LD      B,M
  154E    23                                INC     HL
  154F    7E                                LD      A,M
  1550    23                                INC     HL
  1551    66                                LD      H,M
  1552    6F                                LD      L,A
  1553    78                                LD      A,B
  1554    B1                                OR      C
  1555    C8                                RET     Z
  1556    ED B0                             LDIR
  1558    C9                                RET
                                
  1559    60                    BC.C081:    LD      H,B
  155A    69                                LD      L,C
  155B    4F                                LD      C,A
  155C    06 00                             LD      B,0
  155E    18 F3                             JR      $-11
                                
  1560    CD 0E89               BC.C082:    CALL    BC.C053+1
  1563    2A 0166               BC.C083:    LD      HL,(BC.D029)
  1566    EB                    BC.C084:    EX      DE,HL
  1567    CD 1583               BC.C085:    CALL    BC.C086
  156A    EB                                EX      DE,HL
  156B    C0                                RET     NZ
  156C    D5                                PUSH    DE
  156D    50                                LD      D,B
  156E    59                                LD      E,C
  156F    1B                                DEC     DE
  1570    4E                                LD      C,M
  1571    2A 0148                           LD      HL,(BC.D012)
  1574    7C                                LD      A,H
  1575    92                                SUB     D
  1576    20 02                             JR      NZ,$+04
  1578    7D                                LD      A,L
  1579    93                                SUB     E
  157A    20 05                             JR      NZ,$+07
  157C    47                                LD      B,A
  157D    09                                ADD     HL,BC
  157E    22 0148                           LD      (BC.D012),HL
  1581    E1                                POP     HL
  1582    C9                                RET
                                
  1583    2A 0106               BC.C086:    LD      HL,(BC.D007)
	MACRO-80 3.44	09-Dec-81	PAGE	1-43


  1586    2B                                DEC     HL
  1587    2B                                DEC     HL
  1588    2B                                DEC     HL
  1589    46                                LD      B,M
  158A    2B                                DEC     HL
  158B    4E                                LD      C,M
  158C    2B                                DEC     HL
  158D    2B                                DEC     HL
  158E    7C                                LD      A,H
  158F    92                                SUB     D
  1590    20 02                             JR      NZ,$+04
  1592    7D                                LD      A,L
  1593    93                                SUB     E
  1594    C0                                RET     NZ
  1595    22 0106                           LD      (BC.D007),HL
  1598    C9                                RET
                                
  1599    01 1232               BC.LEN:     LD      BC,BC.D089          ;TOKEN:  L E N
  159C    C5                                PUSH    BC
  159D    CD 1560               BC.C087:    CALL    BC.C082
  15A0    AF                                XOR     A
  15A1    57                                LD      D,A
  15A2    32 0102                           LD      (BC.D004),A
  15A5    7E                                LD      A,M
  15A6    B7                                OR      A
  15A7    C9                                RET
                                
  15A8    CD 159D               BC.ASC:     CALL    BC.C087             ;TOKEN:  A S C
  15AB    28 58                             JR      Z,$+90
  15AD    23                                INC     HL
  15AE    23                                INC     HL
  15AF    5E                                LD      E,M
  15B0    23                                INC     HL
  15B1    56                                LD      D,M
  15B2    1A                                LD      A,(DE)
  15B3    C3 1232                           JP      BC.C064
                                
  15B6    3E 01                 BC.CHRD:    LD      A,001H              ;TOKEN:  C H R $
  15B8    CD 13DE                           CALL    BC.C068
  15BB    CD 171E                           CALL    BC.C092
  15BE    2A 0146                           LD      HL,(BC.D011)
  15C1    73                                LD      M,E
  15C2    C1                    BC.D093:    POP     BC
  15C3    C3 140C                           JP      BC.J054
                                
  15C6    CD 16FF               BC.LEFTD:   CALL    BC.C088             ;TOKEN:  L E F T $
  15C9    AF                                XOR     A
  15CA    E3                                EX      (SP),HL
  15CB    4F                                LD      C,A
  15CC    3E                                DB      03EH                ;LD  A,0E5H
  15CD    E5                    BC.LFTD:    PUSH    HL
  15CE    E5                                PUSH    HL
  15CF    7E                                LD      A,M
  15D0    B8                                CP      B
  15D1    38 02                             JR      C,$+04
  15D3    78                                LD      A,B
  15D4    11 000E                           LD      DE,0000EH
  15D7    C5                                PUSH    BC
  15D8    CD 1449                           CALL    BC.C077
  15DB    C1                                POP     BC
  15DC    E1                                POP     HL
  15DD    E5                                PUSH    HL
  15DE    23                                INC     HL
  15DF    23                                INC     HL
  15E0    46                                LD      B,M
  15E1    23                                INC     HL
  15E2    66                                LD      H,M
  15E3    68                                LD      L,B
  15E4    06 00                             LD      B,000H
  15E6    09                                ADD     HL,BC
  15E7    44                                LD      B,H
  15E8    4D                                LD      C,L
  15E9    CD 13E1                           CALL    BC.C069
  15EC    CD 1559                           CALL    BC.C081
  15EF    D1                                POP     DE
  15F0    CD 1567                           CALL    BC.C085
  15F3    C3 140C                           JP      BC.J054
                                
  15F6    CD 16FF               BC.RGHTD:   CALL    BC.C088             ;TOKEN:  R I G H T $
  15F9    D1                                POP     DE
  15FA    D5                                PUSH    DE
  15FB    1A                                LD      A,(DE)
  15FC    90                                SUB     B
	MACRO-80 3.44	09-Dec-81	PAGE	1-44


  15FD    18 CB                             JR      $-51
                                
  15FF    EB                    BC.MIDD:    EX      DE,HL               ;TOKEN:  M I D $
  1600    7E                                LD      A,M
  1601    D1                                POP     DE
  1602    43                                LD      B,E
  1603    04                                INC     B
  1604    05                                DEC     B
  1605    CA 0A44                           JP      Z,BC.J033
  1608    C5                                PUSH    BC
  1609    1E FF                             LD      E,0FFH
  160B    FE 29                             CP      029H
  160D    28 08                             JR      Z,$+10
  160F    3E 2C                             LD      A,02CH
  1611    CD 0451                           CALL    BC.C006
  1614    CD 171B                           CALL    BC.C091
  1617    3E 29                             LD      A,029H
  1619    CD 0451                           CALL    BC.C006
  161C    F1                                POP     AF
  161D    E3                                EX      (SP),HL
  161E    3D                    BC.D094:    DEC     A
  161F    BE                                CP      M
  1620    06 00                             LD      B,000H
  1622    30 AA                             JR      NC,$-84
  1624    4F                                LD      C,A
  1625    7E                                LD      A,M
  1626    91                                SUB     C
  1627    BB                                CP      E
  1628    47                                LD      B,A
  1629    38 A3                             JR      C,$-91
  162B    43                                LD      B,E
  162C    18 A0                             JR      $-94
                                
  162E    E1                    BC.INSTR:   POP     HL                  ;TOKEN:  I N S T R
  162F    3E 28                             LD      A,028H
  1631    CD 0451                           CALL    BC.C006
  1634    CD 0E95                           CALL    BC.C055
  1637    ED 5B 0166                        LD      DE,(BC.D029)
  163B    D5                                PUSH    DE
  163C    3E 2C                             LD      A,02CH
  163E    CD 0451                           CALL    BC.C006
  1641    CD 0E95                           CALL    BC.C055
  1644    ED 5B 0166                        LD      DE,(BC.D029)
  1648    D5                                PUSH    DE
  1649    01 00FF                           LD      BC,BC.D001
  164C    7E                                LD      A,M
  164D    FE 2C                             CP      02CH
  164F    20 15                             JR      NZ,$+23
  1651    C5                                PUSH    BC
  1652    CD 1718                           CALL    BC.C090
  1655    C1                                POP     BC
  1656    1D                                DEC     E
  1657    43                                LD      B,E
  1658    1C                                INC     E
  1659    28 AA                             JR      Z,$-84
  165B    7E                                LD      A,M
  165C    FE 2C                             CP      02CH
  165E    20 06                             JR      NZ,$+08
  1660    C5                                PUSH    BC
  1661    CD 1718                           CALL    BC.C090
  1664    C1                                POP     BC
  1665    4B                                LD      C,E
  1666    3E 29                             LD      A,029H
  1668    CD 0451                           CALL    BC.C006
  166B    E3                                EX      (SP),HL
  166C    C5                                PUSH    BC
  166D    CD 1566                           CALL    BC.C084
  1670    C1                                POP     BC
  1671    EB                                EX      DE,HL
  1672    E1                                POP     HL
  1673    E3                                EX      (SP),HL
  1674    D5                                PUSH    DE
  1675    C5                                PUSH    BC
  1676    CD 1566                           CALL    BC.C084
  1679    C1                                POP     BC
  167A    D1                                POP     DE
  167B    78                                LD      A,B
  167C    96                                SUB     M
  167D    D2 16D1                           JP      NC,BC.J058
  1680    ED 44                             NEG
  1682    B9                                CP      C
  1683    30 01                             JR      NC,$+03
  1685    4F                                LD      C,A
	MACRO-80 3.44	09-Dec-81	PAGE	1-45


  1686    23                                INC     HL
  1687    23                                INC     HL
  1688    7E                                LD      A,M
  1689    23                                INC     HL
  168A    66                                LD      H,M
  168B    6F                                LD      L,A
  168C    E5                                PUSH    HL
  168D    C5                                PUSH    BC
  168E    48                                LD      C,B
  168F    06 00                             LD      B,000H
  1691    09                                ADD     HL,BC
  1692    C1                                POP     BC
  1693    EB                                EX      DE,HL
  1694    79                                LD      A,C
  1695    96                                SUB     M
  1696    38 38                             JR      C,$+58
  1698    3C                                INC     A
  1699    4F                                LD      C,A
  169A    46                                LD      B,M
  169B    23                                INC     HL
  169C    23                                INC     HL
  169D    7E                                LD      A,M
  169E    23                                INC     HL
  169F    66                                LD      H,M
  16A0    6F                                LD      L,A
  16A1    EB                                EX      DE,HL
  16A2    78                                LD      A,B
  16A3    B7                                OR      A
  16A4    28 1D                             JR      Z,$+31
  16A6    C5                                PUSH    BC
  16A7    06 00                             LD      B,000H
  16A9    1A                                LD      A,(DE)
  16AA    ED B1                             CPIR
  16AC    79                                LD      A,C
  16AD    C1                                POP     BC
  16AE    20 20                             JR      NZ,$+34
  16B0    4F                                LD      C,A
  16B1    C5                                PUSH    BC
  16B2    D5                                PUSH    DE
  16B3    E5                                PUSH    HL
  16B4    18 06                             JR      $+08
  16B6    13                                INC     DE
  16B7    1A                                LD      A,(DE)
  16B8    BE                                CP      M
  16B9    20 03                             JR      NZ,$+05
  16BB    23                                INC     HL
  16BC    10 F8                             DJNZ    $-06
  16BE    E1                                POP     HL
  16BF    D1                                POP     DE
  16C0    C1                                POP     BC
  16C1    20 09                             JR      NZ,$+11
  16C3    D1                                POP     DE
  16C4    ED 52                             SBC     HL,DE
  16C6    7D                                LD      A,L
  16C7    CD 1232                           CALL    BC.C064
  16CA    E1                                POP     HL
  16CB    C9                                RET
  16CC    79                                LD      A,C
  16CD    B7                                OR      A
  16CE    20 D6                             JR      NZ,$-40
  16D0    D1                                POP     DE
  16D1    AF                    BC.J058:    XOR     A
  16D2    18 F3                             JR      $-11
                                
  16D4    CD 171E               BC.INP:     CALL    BC.C092             ;TOKEN:  I N P
  16D7    4F                                LD      C,A
  16D8    ED 78                             IN      A,(C)
  16DA    C3 1232                           JP      BC.C064
                                
  16DD    CD 170A               BC.OUT:     CALL    BC.C089             ;TOKEN:  O U T
  16E0    ED 79                             OUT     (C),A
  16E2    C9                                RET
                                
  16E3    CD 170A               BC.WAIT:    CALL    BC.C089             ;TOKEN:  W A I T
  16E6    47                                LD      B,A
  16E7    C5                                PUSH    BC
  16E8    1E 00                             LD      E,000H
  16EA    CD 0948                           CALL    BC.C032
  16ED    28 08                             JR      Z,$+10
  16EF    3E 2C                             LD      A,02CH
  16F1    CD 0451                           CALL    BC.C006
  16F4    CD 171B                           CALL    BC.C091
  16F7    C1                                POP     BC
	MACRO-80 3.44	09-Dec-81	PAGE	1-46


  16F8    ED 78                             IN      A,(C)
  16FA    AB                                XOR     E
  16FB    A0                                AND     B
  16FC    28 FA                             JR      Z,$-04
  16FE    C9                                RET
                                
  16FF    EB                    BC.C088:    EX      DE,HL
  1700    3E 29                             LD      A,029H
  1702    CD 0451                           CALL    BC.C006
  1705    C1                                POP     BC
  1706    D1                                POP     DE
  1707    C5                                PUSH    BC
  1708    43                                LD      B,E
  1709    C9                                RET
                                
  170A    CD 171B               BC.C089:    CALL    BC.C091
  170D    D5                                PUSH    DE
  170E    3E 2C                             LD      A,02CH
  1710    CD 0451                           CALL    BC.C006
  1713    C3 0003                           JP      00003H              ;CALL    BC.C091
  1716    C1                                POP     BC
  1717    C9                                RET
                                
  1718    CD 0947               BC.C090:    CALL    BC.C031
  171B    CD 0E85               BC.C091:    CALL    BC.C052
  171E    CD 0A27               BC.C092:    CALL    BC.C042
  1721    7A                                LD      A,D
  1722    B7                                OR      A
  1723    C2 0A44                           JP      NZ,BC.J033
  1726    CD 0948                           CALL    BC.C032
  1729    7B                                LD      A,E
  172A    C9                                RET
                                
  172B    CD 159D               BC.VAL:     CALL    BC.C087             ;TOKEN:  V A L
  172E    CA 200E                           JP      Z,BC.C112
  1731    5F                                LD      E,A
  1732    23                                INC     HL
  1733    23                                INC     HL
  1734    7E                                LD      A,M
  1735    23                                INC     HL
  1736    66                                LD      H,M
  1737    6F                                LD      L,A
  1738    E5                                PUSH    HL
  1739    19                                ADD     HL,DE
  173A    46                                LD      B,M
  173B    72                                LD      M,D
  173C    E3                                EX      (SP),HL
  173D    C5                                PUSH    BC
  173E    7E                                LD      A,M
  173F    CD 23DE                           CALL    BC.C141
  1742    C1                                POP     BC
  1743    E1                                POP     HL
  1744    70                                LD      M,B
  1745    C9                                RET
                                
  1746    38 09                 BC.SWTCH:   JR      C,$+11              ;TOKEN:  S W I T C H
  1748    CD 031B                           CALL    BC.IOCHX
  174B    EE 03                             XOR     003H
  174D    4F                                LD      C,A
  174E    C3 031E                           JP      BC.IOSTX
  1751    CD 171B                           CALL    BC.C091
  1754    FE 04                             CP      004H
  1756    D2 046D                           JP      NC,BC.J004
  1759    47                                LD      B,A
  175A    CD 031B                           CALL    BC.IOCHX
  175D    E6 FC                             AND     0FCH
  175F    B0                                OR      B
  1760    18 EB                             JR      $-19
                                
  1762    CD 189F               BC.LWDTH:   CALL    BC.C097             ;TOKEN:  L W I D T H
  1765    CD 171B               BC.WIDTH:   CALL    BC.C091             ;TOKEN:  W I D T H
  1768    FE 0E                             CP      00EH
  176A    DA 0A44                           JP      C,BC.J033
  176D    FD 77 01                          LD      (IY+01),A
  1770    4F                                LD      C,A
  1771    D6 0E                             SUB     00EH
  1773    30 FC                             JR      NC,$-02
  1775    C6 1C                             ADD     A,01CH
  1777    ED 44                             NEG
  1779    81                                ADD     A,C
  177A    FD 77 02                          LD      (IY+02),A
  177D    C9                                RET
                                
	MACRO-80 3.44	09-Dec-81	PAGE	1-47


  177F                          BC.D095     EQU     $+1
  177E    CD 0A14               BC.C093:    CALL    BC.C038
  1781    DA 046D                           JP      C,BC.J004
  1784    4F                                LD      C,A
  1785    06 03                             LD      B,003H
  1787    CD 030C                           CALL    BC.RIV
  178A    38 1B                             JR      C,$+29
  178C    3C                                INC     A
  178D    20 F6                             JR      NZ,$-08
  178F    10 F6                             DJNZ    $-08
  1791    CD 030C                           CALL    BC.RIV
  1794    38 11                             JR      C,$+19
  1796    3C                                INC     A
  1797    28 F8                             JR      Z,$-06
  1799    3D                                DEC     A
  179A    B9                                CP      C
  179B    28 05                             JR      Z,$+07
  179D    CD 17AB                           CALL    BC.C094
  17A0    18 E5                             JR      $-25
  17A2    0E 07                             LD      C,007H
  17A4    C3 030F                           JP      BC.CON
  17A7    1E 13                             LD      E,013H
  17A9    18 11                             JR      $+19
                                
  17AB    06 03                 BC.C094:    LD      B,003H
  17AD    CD 17B6                           CALL    BC.C095
  17B0    B7                                OR      A
  17B1    20 F8                             JR      NZ,$-06
  17B3    10 F8                             DJNZ    $-06
  17B5    C9                                RET
                                
  17B6    CD 030C               BC.C095:    CALL    BC.RIV
  17B9    D0                                RET     NC
  17BA    1E 14                             LD      E,014H
  17BC    C3 047E                           JP      BC.J010
  17BF    14                                INC     D
  17C0    C4 05B4                           CALL    NZ,BC.C011
  17C3    18 F5                             JR      $-09
                                
  17C5    CD 0A14               BC.SAVE:    CALL    BC.C038             ;TOKEN:  S A V E
  17C8    DA 046D                           JP      C,BC.J004
  17CB    4F                                LD      C,A
  17CC    CD 0947                           CALL    BC.C031
  17CF    C2 046D                           JP      NZ,BC.J004
  17D2    E5                                PUSH    HL
  17D3    C5                                PUSH    BC
  17D4    01 08FF                           LD      BC,BC.D073
  17D7    CD 0312                           CALL    BC.WRTV
  17DA    10 FB                             DJNZ    $-03
  17DC    C1                                POP     BC
  17DD    CD 0312                           CALL    BC.WRTV
  17E0    2A 015E                           LD      HL,(BC.D024)
  17E3    EB                                EX      DE,HL
  17E4    2A 015C                           LD      HL,(BC.D023)
  17E7    4E                                LD      C,M
  17E8    23                                INC     HL
  17E9    CD 0312                           CALL    BC.WRTV
  17EC    7C                                LD      A,H
  17ED    92                                SUB     D
  17EE    20 02                             JR      NZ,$+04
  17F0    7D                                LD      A,L
  17F1    93                                SUB     E
  17F2    20 F3                             JR      NZ,$-11
  17F4    01 08FF                           LD      BC,BC.D073
  17F7    CD 0312               BC.J059:    CALL    BC.WRTV
  17FA    10 FB                             DJNZ    $-03
  17FC    E1                                POP     HL
  17FD    C9                                RET
                                
  17FE    FE 97                 BC.LOAD:    CP      097H                ;TOKEN:  L O A D
  1800    16 FF                             LD      D,0FFH
  1802    28 0B                             JR      Z,$+13
  1804    32 0166                           LD      (BC.D029),A
  1807    CD 05B4               BC.J060:    CALL    BC.C011
  180A    16 00                             LD      D,000H
  180C    21 0165                           LD      HL,BC.D028
  180F    CD 0947                           CALL    BC.C031
  1812    CD 177E                           CALL    BC.C093
  1815    2A 015C                           LD      HL,(BC.D023)
  1818    06 03                             LD      B,003H
  181A    CD 030C                           CALL    BC.RIV
  181D    38 A0                             JR      C,$-94
  181F    5F                                LD      E,A
	MACRO-80 3.44	09-Dec-81	PAGE	1-48


  1820    96                                SUB     M
  1821    A2                                AND     D
  1822    20 18                             JR      NZ,$+26
  1824    73                                LD      M,E
  1825    CD 043E                           CALL    BC.C005
  1828    7E                                LD      A,M
  1829    B7                                OR      A
  182A    23                                INC     HL
  182B    20 EB                             JR      NZ,$-19
  182D    10 EB                             DJNZ    $-19
  182F    22 015E                           LD      (BC.D024),HL
  1832    3A 01AB                           LD      A,(BC.D058)
  1835    B7                                OR      A
  1836    CC 0CDB                           CALL    Z,BC.C047
  1839    C3 0556                           JP      BC.J017
  183C    1E 15                             LD      E,015H
  183E    C3 047E                           JP      BC.J010
                                
  1841    C0                    BC.ASAVE:   RET     NZ                  ;TOKEN:  A S A V E
  1842    E1                                POP     HL
  1843    01 08FF                           LD      BC,BC.D073
  1846    CD 0312                           CALL    BC.WRTV
  1849    10 FB                             DJNZ    $-03
  184B    2A 015C                           LD      HL,(BC.D023)
  184E    7E                                LD      A,M
  184F    23                                INC     HL
  1850    B6                                OR      M
  1851    23                                INC     HL
  1852    28 31                             JR      Z,$+51
  1854    5E                                LD      E,M
  1855    23                                INC     HL
  1856    56                                LD      D,M
  1857    23                                INC     HL
  1858    E5                                PUSH    HL
  1859    CD 1218                           CALL    BC.C062
  185C    CD 24DD                           CALL    BC.C148
  185F    23                                INC     HL
  1860    CD 1895                           CALL    BC.C096
  1863    E1                                POP     HL
  1864    7E                                LD      A,M
  1865    FE 09                             CP      009H
  1867    28 05                             JR      Z,$+07
  1869    0E 20                             LD      C,020H
  186B    CD 0312                           CALL    BC.WRTV
  186E    CD 0837                           CALL    BC.C030
  1871    E5                                PUSH    HL
  1872    21 01B1                           LD      HL,BC.D063
  1875    CD 1895                           CALL    BC.C096
  1878    E1                                POP     HL
  1879    0E 0D                             LD      C,00DH
  187B    CD 0312                           CALL    BC.WRTV
  187E    0E 0A                             LD      C,00AH
  1880    CD 0312                           CALL    BC.WRTV
  1883    18 C9                             JR      $-53
  1885    0E 1A                             LD      C,01AH
  1887    CD 0312                           CALL    BC.WRTV
  188A    01 08FF                           LD      BC,BC.D073
  188D    CD 0312                           CALL    BC.WRTV
  1890    10 FB                             DJNZ    $-03
  1892    C3 04A0                           JP      BC.J012
                                
  1895    7E                    BC.C096:    LD      A,M
  1896    B7                                OR      A
  1897    C8                                RET     Z
  1898    4F                                LD      C,A
  1899    CD 0312                           CALL    BC.WRTV
  189C    23                                INC     HL
  189D    18 F6                             JR      $-08
                                
  189F    EB                    BC.C097:    EX      DE,HL
  18A0    21 05FC                           LD      HL,BC.D069
  18A3    E3                                EX      (SP),HL
  18A4    E5                                PUSH    HL
  18A5    EB                                EX      DE,HL
  18A6    FD 21 0315            BC.C098:    LD      IY,BC.LISTX
  18AA    FD 22 018E                        LD      (BC.D040),IY
  18AE    FD 21 0195                        LD      IY,BC.D044
  18B2    C9                                RET
                                
  18B3    08                    BC.RENB:    EX      AF,AF'              ;'TOKEN:  R E N U M B E R
  18B4    EB                                EX      DE,HL
  18B5    2A 0154                           LD      HL,(BC.D019)
  18B8    7C                                LD      A,H
	MACRO-80 3.44	09-Dec-81	PAGE	1-49


  18B9    A5                                AND     L
  18BA    3C                                INC     A
  18BB    C2 0A44                           JP      NZ,BC.J033
  18BE    2A 015C                           LD      HL,(BC.D023)
  18C1    7E                                LD      A,M
  18C2    23                                INC     HL
  18C3    B6                                OR      M
  18C4    EB                                EX      DE,HL
  18C5    CA 0B0D                           JP      Z,BC.DATA+2
  18C8    11 000A                           LD      DE,0000AH
  18CB    D5                                PUSH    DE
  18CC    08                                EX      AF,AF'              ;'
  18CD    DC 0985                           CALL    C,BC.C034
  18D0    ED 53 01A1                        LD      (BC.D051),DE
  18D4    D1                                POP     DE
  18D5    FE 2C                             CP      02CH
  18D7    20 06                             JR      NZ,$+08
  18D9    CD 0947                           CALL    BC.C031
  18DC    DC 0985                           CALL    C,BC.C034
  18DF    ED 53 019F                        LD      (BC.D050),DE
  18E3    E5                                PUSH    HL
  18E4    2A 015C                           LD      HL,(BC.D023)
  18E7    23                                INC     HL
  18E8    23                                INC     HL
  18E9    5E                                LD      E,M
  18EA    23                                INC     HL
  18EB    56                                LD      D,M
  18EC    E1                                POP     HL
  18ED    FE 2C                             CP      02CH
  18EF    20 0E                             JR      NZ,$+16
  18F1    CD 0947                           CALL    BC.C031
  18F4    DC 0985                           CALL    C,BC.C034
  18F7    2A 01A1                           LD      HL,(BC.D051)
  18FA    ED 52                             SBC     HL,DE
  18FC    DA 046D                           JP      C,BC.J004
  18FF    ED 53 01AC                        LD      (BC.D059),DE
  1903    B7                                OR      A
  1904    C2 046D                           JP      NZ,BC.J004
  1907    CD 0592                           CALL    BC.C009
  190A    D2 0AE1                           JP      NC,BC.J035
  190D    60                                LD      H,B
  190E    69                                LD      L,C
  190F    D9                                EXX
  1910    11 0001                           LD      DE,00001H
  1913    21 0000                           LD      HL,00000H
  1916    D9                                EXX
  1917    11 FFFF                           LD      DE,0FFFFH
  191A    CD 0595                           CALL    BC.C010
  191D    D9                                EXX
  191E    2B                                DEC     HL
  191F    EB                                EX      DE,HL
  1920    ED 4B 019F                        LD      BC,(BC.D050)
  1924    78                                LD      A,B
  1925    B1                                OR      C
  1926    CA 046D                           JP      Z,BC.J004
  1929    CD 23C6                           CALL    BC.C140
  192C    ED 5B 01A1                        LD      DE,(BC.D051)
  1930    19                                ADD     HL,DE
  1931    DA 116B                           JP      C,BC.J049
  1934    2A 015C                           LD      HL,(BC.D023)
  1937    23                    BC.J061:    INC     HL
  1938    23                                INC     HL
  1939    4E                                LD      C,M
  193A    23                                INC     HL
  193B    46                                LD      B,M
  193C    EB                                EX      DE,HL
  193D    2A 01AC                           LD      HL,(BC.D059)
  1940    ED 42                             SBC     HL,BC
  1942    38 06                             JR      C,$+08
  1944    28 0E                             JR      Z,$+16
  1946    60                                LD      H,B
  1947    69                                LD      L,C
  1948    18 0D                             JR      $+15
                                
  194A    ED 4B 019F                        LD      BC,(BC.D050)
  194E    2A 019A                           LD      HL,(BC.D047)
  1951    09                                ADD     HL,BC
  1952    18 03                             JR      $+05
                                
  1954    2A 01A1                           LD      HL,(BC.D051)
  1957    22 019A                           LD      (BC.D047),HL
  195A    EB                                EX      DE,HL
  195B    CD 0947                           CALL    BC.C031
	MACRO-80 3.44	09-Dec-81	PAGE	1-50


  195E    B7                    BC.J062:    OR      A
  195F    CA 1A68                           JP      Z,BC.J064
  1962    FE 88                             CP      088H
  1964    28 14                             JR      Z,$+22
  1966    FE 8C                             CP      08CH
  1968    28 10                             JR      Z,$+18
  196A    FE A2                             CP      0A2H
  196C    28 0C                             JR      Z,$+14
  196E    FE C9                             CP      0C9H
  1970    28 08                             JR      Z,$+10
  1972    FE 9D                             CP      09DH
  1974    28 04                             JR      Z,$+06
  1976    FE 8B                             CP      08BH
  1978    20 E1                             JR      NZ,$-29
  197A    CD 0947               BC.J063:    CALL    BC.C031
  197D    30 DF                             JR      NC,$-31
  197F    22 019C                           LD      (BC.D048),HL
  1982    2B                                DEC     HL
  1983    11 0000                           LD      DE,00000H
  1986    0E 00                             LD      C,000H
  1988    CD 0947                           CALL    BC.C031
  198B    30 2B                             JR      NC,$+45
  198D    E5                                PUSH    HL
  198E    B7                                OR      A
  198F    21 1998                           LD      HL,BC.D096
  1992    ED 52                             SBC     HL,DE
  1994    30 11                             JR      NC,$+19
  1998                          BC.D096     EQU     $+2
  1996    21 2E89                           LD      HL,BC.D125
  1999    CD 07BD                           CALL    BC.C027
  199C    CD 1A9A                           CALL    BC.C099
  199F    E1                                POP     HL
  19A0    CD 0947                           CALL    BC.C031
  19A3    38 FB                             JR      C,$-03
  19A5    18 B7                             JR      $-71
  19A7    62                                LD      H,D
  19A8    6B                                LD      L,E
  19A9    29                                ADD     HL,HL
  19AA    29                                ADD     HL,HL
  19AB    19                                ADD     HL,DE
  19AC    29                                ADD     HL,HL
  19AD    D6 30                             SUB     030H
  19AF    5F                                LD      E,A
  19B0    16 00                             LD      D,000H
  19B2    19                                ADD     HL,DE
  19B3    EB                                EX      DE,HL
  19B4    E1                                POP     HL
  19B5    0C                                INC     C
  19B6    18 D0                             JR      $-46
  19B8    79                                LD      A,C
  19B9    32 019E                           LD      (BC.D049),A
  19BC    E5                                PUSH    HL
  19BD    2A 01AC                           LD      HL,(BC.D059)
  19C0    EB                                EX      DE,HL
  19C1    E5                                PUSH    HL
  19C2    ED 52                             SBC     HL,DE
  19C4    38 2A                             JR      C,$+44
  19C6    CD 0592                           CALL    BC.C009
  19C9    60                                LD      H,B
  19CA    69                                LD      L,C
  19CB    D1                                POP     DE
  19CC    D9                                EXX
  19CD    2A 01A1                           LD      HL,(BC.D051)
  19D0    ED 5B 019F                        LD      DE,(BC.D050)
  19D4    D9                                EXX
  19D5    CD 0595                           CALL    BC.C010
  19D8    38 13                             JR      C,$+21
  19DA    21 2E75                           LD      HL,BC.D124
  19DD    D5                                PUSH    DE
  19DE    CD 07BD                           CALL    BC.C027
  19E1    E1                                POP     HL
  19E2    CD 24C9                           CALL    BC.C147
  19E5    CD 1A9A                           CALL    BC.C099
  19E8    E1                                POP     HL
  19E9    7E                                LD      A,M
  19EA    C3 195E                           JP      BC.J062
  19ED    D9                                EXX
  19EE    E5                                PUSH    HL
  19EF    D9                                EXX
  19F0    D1                                POP     DE
  19F1    E1                                POP     HL
  19F2    AF                                XOR     A
  19F3    06 98                             LD      B,098H
	MACRO-80 3.44	09-Dec-81	PAGE	1-51


  19F5    CD 22AB                           CALL    BC.C124
  19F8    CD 24DD                           CALL    BC.C148
  19FB    06 00                             LD      B,000H
  19FD    23                                INC     HL
  19FE    E5                                PUSH    HL
  19FF    7E                                LD      A,M
  1A00    B7                                OR      A
  1A01    28 04                             JR      Z,$+06
  1A03    04                                INC     B
  1A04    23                                INC     HL
  1A05    18 F8                             JR      $-06
  1A07    3A 019E                           LD      A,(BC.D049)
  1A0A    90                                SUB     B
  1A0B    28 3C                             JR      Z,$+62
  1A0D    38 1C                             JR      C,$+30
  1A0F    4F                                LD      C,A
  1A10    06 00                             LD      B,000H
  1A12    2A 019C                           LD      HL,(BC.D048)
  1A15    54                                LD      D,H
  1A16    5D                                LD      E,L
  1A17    09                                ADD     HL,BC
  1A18    E5                                PUSH    HL
  1A19    2A 015E                           LD      HL,(BC.D024)
  1A1C    ED 52                             SBC     HL,DE
  1A1E    ED 42                             SBC     HL,BC
  1A20    44                                LD      B,H
  1A21    4D                                LD      C,L
  1A22    E1                                POP     HL
  1A23    ED B0                             LDIR
  1A25    ED 53 015E                        LD      (BC.D024),DE
  1A29    18 1E                             JR      $+32
  1A2B    ED 44                             NEG
  1A2D    4F                                LD      C,A
  1A2E    06 00                             LD      B,000H
  1A30    2A 015E                           LD      HL,(BC.D024)
  1A33    54                                LD      D,H
  1A34    5D                                LD      E,L
  1A35    09                                ADD     HL,BC
  1A36    CD 043E                           CALL    BC.C005
  1A39    22 015E                           LD      (BC.D024),HL
  1A3C    EB                                EX      DE,HL
  1A3D    E5                                PUSH    HL
  1A3E    ED 4B 019C                        LD      BC,(BC.D048)
  1A42    ED 42                             SBC     HL,BC
  1A44    44                                LD      B,H
  1A45    4D                                LD      C,L
  1A46    E1                                POP     HL
  1A47    ED B8                             LDDR
  1A49    D1                                POP     DE
  1A4A    2A 019C                           LD      HL,(BC.D048)
  1A4D    1A                                LD      A,(DE)
  1A4E    B7                                OR      A
  1A4F    28 05                             JR      Z,$+07
  1A51    77                                LD      M,A
  1A52    23                                INC     HL
  1A53    13                                INC     DE
  1A54    18 F7                             JR      $-07
  1A56    E5                                PUSH    HL
  1A57    2A 015C                           LD      HL,(BC.D023)
  1A5A    EB                                EX      DE,HL
  1A5B    CD 055F                           CALL    BC.C007
  1A5E    E1                                POP     HL
  1A5F    7E                                LD      A,M
  1A60    FE 2C                             CP      02CH
  1A62    CA 197A                           JP      Z,BC.J063
  1A65    C3 195E                           JP      BC.J062
                                
  1A68    23                    BC.J064:    INC     HL
  1A69    B6                                OR      M
  1A6A    23                                INC     HL
  1A6B    B6                                OR      M
  1A6C    2B                                DEC     HL
  1A6D    C2 1937                           JP      NZ,BC.J061
  1A70    ED 5B 01AC                        LD      DE,(BC.D059)
  1A74    CD 0592                           CALL    BC.C009
  1A77    60                                LD      H,B
  1A78    69                                LD      L,C
  1A79    ED 4B 019F                        LD      BC,(BC.D050)
  1A7D    ED 5B 01A1                        LD      DE,(BC.D051)
  1A81    23                                INC     HL
  1A82    23                                INC     HL
  1A83    73                                LD      M,E
  1A84    23                                INC     HL
	MACRO-80 3.44	09-Dec-81	PAGE	1-52


  1A85    72                                LD      M,D
  1A86    23                                INC     HL
  1A87    7E                                LD      A,M
  1A88    B7                                OR      A
  1A89    20 FB                             JR      NZ,$-03
  1A8B    EB                                EX      DE,HL
  1A8C    09                                ADD     HL,BC
  1A8D    EB                                EX      DE,HL
  1A8E    23                                INC     HL
  1A8F    B6                                OR      M
  1A90    23                                INC     HL
  1A91    B6                                OR      M
  1A92    20 EE                             JR      NZ,$-16
  1A94    CD 05C6                           CALL    BC.C013
  1A97    C3 04A0                           JP      BC.J012
                                
  1A9A    2A 019A               BC.C099:    LD      HL,(BC.D047)
  1A9D    CD 24C1               BC.C100:    CALL    BC.C146
  1AA0    C3 0CEE                           JP      BC.C048
                                
  1AA3    CD 0573               BC.DELET:   CALL    BC.C008             ;TOKEN:  D E L E T E
  1AA6    D1                                POP     DE
  1AA7    C5                                PUSH    BC
  1AA8    CD 0592                           CALL    BC.C009
  1AAB    D2 0A44                           JP      NC,BC.J033
  1AAE    54                                LD      D,H
  1AAF    5D                                LD      E,L
  1AB0    E3                                EX      (SP),HL
  1AB1    E5                                PUSH    HL
  1AB2    7C                                LD      A,H
  1AB3    92                                SUB     D
  1AB4    20 02                             JR      NZ,$+04
  1AB6    7D                                LD      A,L
  1AB7    93                                SUB     E
  1AB8    D2 0A44                           JP      NC,BC.J033
  1ABB    CD 0CDB                           CALL    BC.C047
  1ABE    C1                                POP     BC
  1ABF    21 0556                           LD      HL,BC.D068
  1AC2    E3                                EX      (SP),HL
  1AC3    EB                                EX      DE,HL
  1AC4    2A 015E                           LD      HL,(BC.D024)
  1AC7    1A                                LD      A,(DE)
  1AC8    02                                LD      (BC),A
  1AC9    03                                INC     BC
  1ACA    13                                INC     DE
  1ACB    7C                                LD      A,H
  1ACC    92                                SUB     D
  1ACD    20 02                             JR      NZ,$+04
  1ACF    7D                                LD      A,L
  1AD0    93                                SUB     E
  1AD1    20 F4                             JR      NZ,$-10
  1AD3    ED 43 015E                        LD      (BC.D024),BC
  1AD7    C9                                RET
                                
  1AD8    3E 7F                 BC.LTRCE:   LD      A,07FH              ;TOKEN:  L T R A C E
  1ADA    01                                DB      1                   ;LD  BC,0BF3EH
                                
  1ADB    3E BF                 BC.TRACE:   LD      A,0BFH
  1ADD    F5                                PUSH    AF
  1ADE    CD 0E9A                           CALL    BC.C056
  1AE1    CD 0948                           CALL    BC.C032
  1AE4    20 14                             JR      NZ,$+22
  1AE6    CD 22BF                           CALL    BC.C125
  1AE9    3D                                DEC     A
  1AEA    2F                                CPL
  1AEB    47                                LD      B,A
  1AEC    F1                                POP     AF
  1AED    4F                                LD      C,A
  1AEE    2F                                CPL
  1AEF    A0                                AND     B
  1AF0    47                                LD      B,A
  1AF1    3A 01A3                           LD      A,(BC.D052)
  1AF4    A1                                AND     C
  1AF5    B0                                OR      B
  1AF6    32 01A3                           LD      (BC.D052),A
  1AF9    C9                                RET
  1AFA    F1                                POP     AF
  1AFB    C3 046D                           JP      BC.J004
                                
  1AFE    CD 0985               BC.EDIT:    CALL    BC.C034             ;TOKEN:  E D I T
  1B01    C0                                RET     NZ
  1B02    E1                                POP     HL
  1B03    CD 0592               BC.J065:    CALL    BC.C009
	MACRO-80 3.44	09-Dec-81	PAGE	1-53


  1B06    D2 0A44                           JP      NC,BC.J033
  1B09    60                                LD      H,B
  1B0A    69                                LD      L,C
  1B0B    23                                INC     HL
  1B0C    23                                INC     HL
  1B0D    4E                                LD      C,M
  1B0E    23                                INC     HL
  1B0F    46                                LD      B,M
  1B10    23                                INC     HL
  1B11    C5                                PUSH    BC
  1B12    CD 0837                           CALL    BC.C030
  1B15    E1                    BC.J066:    POP     HL
  1B16    E5                                PUSH    HL
  1B17    CD 24C9                           CALL    BC.C147
  1B1A    CD 0764                           CALL    BC.C023
  1B1D    21 01B1                           LD      HL,BC.D063
  1B20    E5                                PUSH    HL
  1B21    1E FF                             LD      E,0FFH
  1B23    1C                                INC     E
  1B24    7E                                LD      A,M
  1B25    E6 7F                             AND     07FH
  1B27    77                                LD      M,A
  1B28    23                                INC     HL
  1B29    20 F8                             JR      NZ,$-06
  1B2B    E1                                POP     HL
  1B2C    57                                LD      D,A
  1B2D    06 00                 BC.D097:    LD      B,000H
  1B2F    CD 07C9                           CALL    BC.C028
  1B32    FE 3A                             CP      03AH
  1B34    30 10                             JR      NC,$+18
  1B36    FE 30                             CP      030H
  1B38    38 0C                             JR      C,$+14
  1B3A    D6 30                             SUB     030H
  1B3C    4F                                LD      C,A
  1B3D    78                                LD      A,B
  1B3E    07                                RLCA
  1B3F    07                                RLCA
  1B40    80                                ADD     A,B
  1B41    07                                RLCA
  1B42    81                                ADD     A,C
  1B43    47                                LD      B,A
  1B44    18 E9                             JR      $-21
  1B46    E5                                PUSH    HL
  1B47    21 1B2D                           LD      HL,BC.D097
  1B4A    E3                                EX      (SP),HL
  1B4B    05                                DEC     B
  1B4C    04                                INC     B
  1B4D    20 01                             JR      NZ,$+03
  1B4F    04                                INC     B
  1B50    D9                                EXX
  1B51    21 1B71                           LD      HL,BC.D098
  1B54    BE                                CP      M
  1B55    23                                INC     HL
  1B56    4E                                LD      C,M
  1B57    23                                INC     HL
  1B58    46                                LD      B,M
  1B59    23                                INC     HL
  1B5A    C5                                PUSH    BC
  1B5B    D9                                EXX
  1B5C    C8                                RET     Z
  1B5D    D9                                EXX
  1B5E    C1                                POP     BC
  1B5F    34                                INC     M
  1B60    35                                DEC     M
  1B61    20 F1                             JR      NZ,$-13
  1B63    FE 60                             CP      060H
  1B65    38 04                             JR      C,$+06
  1B67    E6 5F                             AND     05FH
  1B69    18 E6                             JR      $-24
  1B6B    D9                                EXX
  1B6C    3E 07                             LD      A,007H
  1B6E    C3 0772                           JP      BC.C026
                                
                                            PAGE
	MACRO-80 3.44	09-Dec-81	PAGE	1-54


                                
  1B71    20                    BC.D098:    DB      ' '
  1B72    1BA4                              DW      BC.C101
                                
  1B74    51                                DB      'Q'                 ;QUIT
  1B75    09C7                              DW      BC.EDQ
                                
  1B77    4C                                DB      'L'                 ;LIST
  1B78    1BDC                              DW      BC.EDL
                                
  1B7A    46                                DB      'F'                 ;FIND
  1B7B    1BB5                              DW      BC.EDF
                                
  1B7D    49                                DB      'I'                 ;INSERT
  1B7E    1C16                              DW      BC.EDI
                                
  1B80    44                                DB      'D'                 ;DELETE
  1B81    1BE6                              DW      BC.EDD
                                
  1B83    0D                                DB      00DH                ;ET1  bzw.  POS_QUIT
  1B84    1C65                              DW      BC.EDE1
                                
  1B86    52                                DB      'R'                 ;REPLACE
  1B87    1BFF                              DW      BC.EDR
                                
  1B89    45                                DB      'E'                 ;END
  1B8A    1C68                              DW      BC.EDE2
                                
  1B8C    58                                DB      'X'                 ;am Ende anfuegen
  1B8D    1C11                              DW      BC.EDX
                                
  1B8F    4B                                DB      'K'                 ;KILL
  1B90    1BAF                              DW      BC.EDK
                                
  1B92    48                                DB      'H'                 ;ab Position loeschen und einfuegen
  1B93    1C0E                              DW      BC.EDH
                                
  1B95    7F                                DB      7FH                 ;
  1B96    1C59                              DW      BC.EDDEL
                                
  1B98    41                                DB      'A'                 ;edit_buf neu laden
  1B99    1B9C                              DW      BC.EDA
                                
  1B9B    00                                DB      0
                                
                                            PAGE
	MACRO-80 3.44	09-Dec-81	PAGE	1-55


                                
  1B9C    C1                    BC.EDA:     POP     BC
  1B9D    D1                                POP     DE
  1B9E    CD 0CEE                           CALL    BC.C048
  1BA1    C3 1B03                           JP      BC.J065
                                
  1BA4    7E                    BC.C101:    LD      A,M
  1BA5    B7                                OR      A
  1BA6    C8                                RET     Z
  1BA7    14                                INC     D
  1BA8    CD 0766                           CALL    BC.C024
  1BAB    23                                INC     HL
  1BAC    10 F6                             DJNZ    $-08
  1BAE    C9                                RET
                                
  1BAF    E5                    BC.EDK:     PUSH    HL
  1BB0    21 1BFA                           LD      HL,BC.D100
  1BB3    E3                                EX      (SP),HL
  1BB4    37                                SCF
  1BB5    F5                    BC.EDF:     PUSH    AF
  1BB6    CD 07C9                           CALL    BC.C028
  1BB9    4F                                LD      C,A
  1BBA    F1                                POP     AF
  1BBB    35                                DEC     M
  1BBC    34                                INC     M
  1BBD    C8                                RET     Z
  1BBE    F5                                PUSH    AF
  1BBF    DC 1BFA                           CALL    C,BC.C102
  1BC2    7E                                LD      A,M
  1BC3    CD 0766                           CALL    BC.C024
  1BC6    F1                                POP     AF
  1BC7    F5                                PUSH    AF
  1BC9                          BC.D099     EQU     $+1
  1BC8    30 05                             JR      NC,$+07
  1BCA    CD 1C75                           CALL    BC.C103
  1BCD    18 02                             JR      $+04
  1BCF    23                                INC     HL
  1BD0    14                                INC     D
  1BD1    7E                                LD      A,M
  1BD2    B7                                OR      A
  1BD3    28 05                             JR      Z,$+07
  1BD5    B9                                CP      C
  1BD6    20 EB                             JR      NZ,$-19
  1BD8    10 E9                             DJNZ    $-21
  1BDA    F1                                POP     AF
  1BDB    C9                                RET
                                
  1BDC    CD 082A               BC.EDL:     CALL    BC.C029
  1BDF    CD 0CEE                           CALL    BC.C048
  1BE2    C1                                POP     BC
  1BE3    C3 1B15                           JP      BC.J066
                                
  1BE6    7E                    BC.EDD:     LD      A,M
  1BE7    B7                                OR      A
  1BE8    C8                                RET     Z
  1BE9    3E 5C                             LD      A,05CH
  1BEB    CD 0772                           CALL    BC.C026
  1BEE    7E                                LD      A,M
  1BEF    B7                                OR      A
  1BF0    28 08                             JR      Z,$+10
  1BF2    CD 0766                           CALL    BC.C024
  1BF5    CD 1C75                           CALL    BC.C103
  1BF8    10 F4                             DJNZ    $-10
  1BFA                          BC.D100     EQU     $
  1BFA    3E 5C                 BC.C102:    LD      A,05CH
  1BFC    C3 0772                           JP      BC.C026
                                
  1BFF    7E                    BC.EDR:     LD      A,M
  1C00    B7                                OR      A
  1C01    C8                                RET     Z
  1C02    CD 07C9                           CALL    BC.C028
  1C05    CD 0766                           CALL    BC.C024
  1C08    77                                LD      M,A
  1C09    23                                INC     HL
  1C0A    14                                INC     D
  1C0B    10 F2                             DJNZ    $-12
  1C0D    C9                                RET
                                
  1C0E    36 00                 BC.EDH:     LD      M,000H
  1C10    5A                                LD      E,D
  1C11    06 FF                 BC.EDX:     LD      B,0FFH
  1C13    CD 1BA4                           CALL    BC.C101
	MACRO-80 3.44	09-Dec-81	PAGE	1-56


  1C16    CD 07C9               BC.EDI:     CALL    BC.C028
  1C19    FE 0D                             CP      00DH
  1C1B    28 48                             JR      Z,$+74
  1C1D    FE 1B                             CP      01BH
  1C1F    C8                                RET     Z
  1C20    FE 7F                             CP      07FH
  1C22    20 0F                             JR      NZ,$+17
  1C24    15                                DEC     D
  1C25    14                                INC     D
  1C26    28 12                             JR      Z,$+20
  1C28    2B                                DEC     HL
  1C29    15                                DEC     D
  1C2A    7E                                LD      A,M
  1C2B    CD 0766                           CALL    BC.C024
  1C2E    CD 1C75                           CALL    BC.C103
  1C31    18 E3                             JR      $-27
  1C33    F5                                PUSH    AF
  1C34    7B                                LD      A,E
  1C35    FE FF                             CP      0FFH
  1C37    38 08                             JR      C,$+10
  1C39    F1                                POP     AF
  1C3A    3E 07                             LD      A,007H
  1C3C    CD 0772                           CALL    BC.C026
  1C3F    18 D5                             JR      $-41
  1C41    92                                SUB     D
  1C42    1C                                INC     E
  1C43    14                                INC     D
  1C44    D5                                PUSH    DE
  1C45    EB                                EX      DE,HL
  1C46    6F                                LD      L,A
  1C47    26 00                             LD      H,000H
  1C49    19                                ADD     HL,DE
  1C4A    44                                LD      B,H
  1C4B    4D                                LD      C,L
  1C4C    03                                INC     BC
  1C4D    CD 041F                           CALL    BC.C003
  1C50    D1                                POP     DE
  1C51    F1                                POP     AF
  1C52    CD 0766                           CALL    BC.C024
  1C55    77                                LD      M,A
  1C56    23                                INC     HL
  1C57    18 BD                             JR      $-65
                                
  1C59    7A                    BC.EDDEL:   LD      A,D
  1C5A    B7                                OR      A
  1C5B    C8                                RET     Z
  1C5C    15                                DEC     D
  1C5D    2B                                DEC     HL
  1C5E    7E                                LD      A,M
  1C5F    CD 0766                           CALL    BC.C024
  1C62    10 F5                             DJNZ    $-09
  1C64    C9                                RET
                                
  1C65    CD 082A               BC.EDE1:    CALL    BC.C029
  1C68    CD 0CEE               BC.EDE2:    CALL    BC.C048
  1C6B    C1                                POP     BC
  1C6C    D1                                POP     DE
  1C6D    37                                SCF
  1C6E    F5                                PUSH    AF
  1C6F    21 01B1                           LD      HL,BC.D063
  1C72    C3 04F9                           JP      BC.J016
                                
  1C75    E5                    BC.C103:    PUSH    HL
  1C76    1D                                DEC     E
  1C77    7E                                LD      A,M
  1C78    B7                                OR      A
  1C79    28 07                             JR      Z,$+09
  1C7B    23                                INC     HL
  1C7C    7E                                LD      A,M
  1C7D    2B                                DEC     HL
  1C7E    77                                LD      M,A
  1C7F    23                                INC     HL
  1C80    18 F5                             JR      $-09
  1C82    E1                                POP     HL
  1C83    C9                                RET
                                
  1C84    C0                    BC.RANDO:   RET     NZ                  ;TOKEN:  R A N D O M I Z E
  1C85    EB                                EX      DE,HL
  1C86    21 0187                           LD      HL,BC.D036
  1C89    ED 5F                             LD      A,R
  1C8B    77                                LD      M,A
  1C8C    23                                INC     HL
  1C8D    77                                LD      M,A
	MACRO-80 3.44	09-Dec-81	PAGE	1-57


  1C8E    23                                INC     HL
  1C8F    77                                LD      M,A
  1C90    23                                INC     HL
  1C91    77                                LD      M,A
  1C92    23                                INC     HL
  1C93    E6 7F                             AND     07FH
  1C95    77                                LD      M,A
  1C96    23                                INC     HL
  1C97    36 80                             LD      M,080H
  1C99    EB                                EX      DE,HL
  1C9A    C9                                RET
                                
  1C9B    CD 189F               BC.LLVAR:   CALL    BC.C097             ;TOKEN:  L L V A R
  1C9E    C0                    BC.LVAR:    RET     NZ                  ;TOKEN:  L V A R
  1C9F    E5                                PUSH    HL
  1CA0    2A 015E                           LD      HL,(BC.D024)
  1CA3    CD 0CEE                           CALL    BC.C048
  1CA6    CD 0993                           CALL    BC.C036
  1CA9    ED 5B 0160                        LD      DE,(BC.D025)
  1CAD    7C                                LD      A,H
  1CAE    92                                SUB     D
  1CAF    20 02                             JR      NZ,$+04
  1CB1    7D                                LD      A,L
  1CB2    93                                SUB     E
  1CB3    28 3B                             JR      Z,$+61
  1CB5    4E                                LD      C,M
  1CB6    23                                INC     HL
  1CB7    7E                                LD      A,M
  1CB8    23                                INC     HL
  1CB9    CB 7F                             BIT     7,A
  1CBB    20 2B                             JR      NZ,$+45
  1CBD    CD 0772                           CALL    BC.C026
  1CC0    79                                LD      A,C
  1CC1    E6 7F                             AND     07FH
  1CC3    C4 0772                           CALL    NZ,BC.C026
  1CC6    3E 24                             LD      A,024H
  1CC8    CB 79                             BIT     7,C
  1CCA    C4 0772                           CALL    NZ,BC.C026
  1CCD    3E 3D                             LD      A,03DH
  1CCF    CD 0772                           CALL    BC.C026
  1CD2    79                                LD      A,C
  1CD3    17                                RLA
  1CD4    9F                                SBC     A,A
  1CD5    22 0166                           LD      (BC.D029),HL
  1CD8    E5                                PUSH    HL
  1CD9    20 09                             JR      NZ,$+11
  1CDB    CD 22EC                           CALL    BC.C129
  1CDE    CD 24DD                           CALL    BC.C148
  1CE1    CD 13ED                           CALL    BC.C070
  1CE4    CD 1434                           CALL    BC.C076
  1CE7    E1                                POP     HL
  1CE8    23                                INC     HL
  1CE9    23                                INC     HL
  1CEA    23                                INC     HL
  1CEB    23                                INC     HL
  1CEC    23                                INC     HL
  1CED    23                                INC     HL
  1CEE    18 B3                             JR      $-75
  1CF0    E1                                POP     HL
  1CF1    C9                                RET
                                
  1CF2    CD 05B4               BC.ALOAD:   CALL    BC.C011             ;TOKEN:  A L O A D
  1CF5    2A 015E               BC.AMRG:    LD      HL,(BC.D024)        ;TOKEN:  A M E R G E
  1CF8    2B                                DEC     HL
  1CF9    CD 1D64                           CALL    BC.C104
  1CFC    38 27                             JR      C,$+41
  1CFE    28 F9                             JR      Z,$-05
  1D00    FE 7F                             CP      07FH
  1D02    28 F5                             JR      Z,$-09
  1D04    23                                INC     HL
  1D05    77                                LD      M,A
  1D06    CD 043E                           CALL    BC.C005
  1D09    7E                                LD      A,M
  1D0A    D6 0D                             SUB     00DH
  1D0C    20 13                             JR      NZ,$+21
  1D0E    77                                LD      M,A
  1D0F    23                                INC     HL
  1D10    77                                LD      M,A
  1D11    23                                INC     HL
  1D12    77                                LD      M,A
  1D13    23                                INC     HL
  1D14    77                                LD      M,A
  1D15    CD 1D64                           CALL    BC.C104
	MACRO-80 3.44	09-Dec-81	PAGE	1-58


  1D18    38 0B                             JR      C,$+13
  1D1A    FE 0A                             CP      00AH
  1D1C    28 DB                             JR      Z,$-35
  1D1E    B7                                OR      A
  1D1F    18 DD                             JR      $-33
  1D21    FE 0D                             CP      00DH
  1D23    20 D4                             JR      NZ,$-42
  1D25    36 00                             LD      M,000H
  1D27    23                                INC     HL
  1D28    36 1A                             LD      M,01AH
  1D2A    2A 015E                           LD      HL,(BC.D024)
  1D2D    E5                    BC.J067:    PUSH    HL
  1D2E    7E                                LD      A,M
  1D2F    D6 1A                             SUB     01AH
  1D31    20 09                             JR      NZ,$+11
  1D33    32 01AB                           LD      (BC.D058),A
  1D36    CD 05C2                           CALL    BC.C012
  1D39    C3 04A0                           JP      BC.J012
  1D3C    7E                                LD      A,M
  1D3D    23                                INC     HL
  1D3E    B7                                OR      A
  1D3F    20 FB                             JR      NZ,$-03
  1D41    7E                                LD      A,M
  1D42    23                                INC     HL
  1D43    B7                                OR      A
  1D44    28 FB                             JR      Z,$-03
  1D46    2B                                DEC     HL
  1D47    22 019A                           LD      (BC.D047),HL
  1D4A    E1                                POP     HL
  1D4B    3E FF                             LD      A,0FFH
  1D4D    32 01AB                           LD      (BC.D058),A
  1D50    CD 0948                           CALL    BC.C032
  1D53    3C                                INC     A
  1D54    3D                                DEC     A
  1D55    CA 04A9                           JP      Z,BC.J013
  1D58    30 05                             JR      NC,$+07
  1D5A    F5                                PUSH    AF
  1D5B    AF                                XOR     A
  1D5C    C3 04F1                           JP      BC.J015
  1D5F    1E 18                             LD      E,018H
  1D61    C3 047E                           JP      BC.J010
                                
  1D64    CD 030C               BC.C104:    CALL    BC.RIV
  1D67    D8                                RET     C
  1D68    E6 7F                             AND     07FH
  1D6A    C9                                RET
                                
  1D6B    CD 05B4               BC.ALODC:   CALL    BC.C011             ;TOKEN:  A L O A D C
  1D6E    21 01B0               BC.AMRGC:   LD      HL,BC.D062          ;TOKEN:  A M E R G E C
  1D71    06 00                             LD      B,0
  1D73    CD 1D64                           CALL    BC.C104
  1D76    38 32                             JR      C,$+52
  1D78    28 F9                             JR      Z,$-05
  1D7A    FE 7F                             CP      07FH
  1D7C    28 F5                             JR      Z,$-09
  1D7E    FE 1A                             CP      01AH
  1D80    28 28                             JR      Z,$+42
  1D82    FE 0A                             CP      00AH
  1D84    20 04                             JR      NZ,$+06
  1D86    04                                INC     B
  1D87    05                                DEC     B
  1D88    28 E9                             JR      Z,$-21
  1D8A    4F                                LD      C,A
  1D8B    78                                LD      A,B
  1D8C    FE FF                             CP      0FFH
  1D8E    79                                LD      A,C
  1D8F    28 02                             JR      Z,$+04
  1D91    23                                INC     HL
  1D92    04                                INC     B
  1D93    77                                LD      M,A
  1D94    D6 0D                             SUB     00DH
  1D96    20 DB                             JR      NZ,$-35
  1D98    77                                LD      M,A
  1D99    3E FE                             LD      A,0FEH
  1D9B    32 01AB                           LD      (BC.D058),A
  1D9E    21 01B0                           LD      HL,BC.D062
  1DA1    CD 0947                           CALL    BC.C031
  1DA4    3C                                INC     A
  1DA5    3D                                DEC     A
  1DA6    28 C6                             JR      Z,$-56
  1DA8    18 AE                             JR      $-80
  1DAA    CD 05C2                           CALL    BC.C012
  1DAD    C3 04A0                           JP      BC.J012
	MACRO-80 3.44	09-Dec-81	PAGE	1-59


                                
  1DB0    32 0166               BC.LOADG:   LD      (BC.D029),A         ;TOKEN:  L O A D G O
  1DB3    CD 0947                           CALL    BC.C031
  1DB6    11 FFFF                           LD      DE,0FFFFH
  1DB9    28 0E                             JR      Z,$+16
  1DBB    3E 2C                             LD      A,02CH
  1DBD    CD 0451                           CALL    BC.C006
  1DC0    D2 046D                           JP      NC,BC.J004
  1DC3    CD 0985                           CALL    BC.C034
  1DC6    C2 046D                           JP      NZ,BC.J004
  1DC9    ED 53 019A                        LD      (BC.D047),DE
  1DCD    3E FD                             LD      A,0FDH
  1DCF    32 01AB                           LD      (BC.D058),A
  1DD2    C3 1807                           JP      BC.J060
                                
  1DD5    3C                    BC.J068:    INC     A
  1DD6    CA 1D2D                           JP      Z,BC.J067
  1DD9    3C                                INC     A
  1DDA    28 92                             JR      Z,$-108
  1DDC    CD 05C2                           CALL    BC.C012
  1DDF    AF                                XOR     A
  1DE0    32 01AB                           LD      (BC.D058),A
  1DE3    ED 5B 019A                        LD      DE,(BC.D047)
  1DE7    7A                                LD      A,D
  1DE8    A3                                AND     E
  1DE9    3C                                INC     A
  1DEA    01 08CC                           LD      BC,BC.D072
  1DED    C5                                PUSH    BC
  1DEE    C8                                RET     Z
  1DEF    C3 0ADA                           JP      BC.J034
                                
  1DF2    C8                    BC.COPY:    RET     Z                   ;TOKEN:  C O P Y
  1DF3    D2 0A44                           JP      NC,BC.J033
  1DF6    CD 0985                           CALL    BC.C034
  1DF9    ED 53 019A                        LD      (BC.D047),DE
  1DFD    11 000A                           LD      DE,0000AH
  1E00    FE 2C                             CP      02CH
  1E02    20 06                             JR      NZ,$+08
  1E04    CD 0947                           CALL    BC.C031
  1E07    DC 0985                           CALL    C,BC.C034
  1E0A    ED 53 019C                        LD      (BC.D048),DE
  1E0E    3E AD                             LD      A,0ADH
  1E10    CD 0451                           CALL    BC.C006
  1E13    CD 0573                           CALL    BC.C008
  1E16    D1                                POP     DE
  1E17    C5                                PUSH    BC
  1E18    60                                LD      H,B
  1E19    69                                LD      L,C
  1E1A    D9                                EXX
  1E1B    11 0001                           LD      DE,00001H
  1E1E    21 0000                           LD      HL,00000H
  1E21    D9                                EXX
  1E22    CD 0595                           CALL    BC.C010
  1E25    D2 0A44                           JP      NC,BC.J033
  1E28    E5                                PUSH    HL
  1E29    D9                                EXX
  1E2A    EB                                EX      DE,HL
  1E2B    ED 4B 019C                        LD      BC,(BC.D048)
  1E2F    78                                LD      A,B
  1E30    B1                                OR      C
  1E31    CA 046D                           JP      Z,BC.J004
  1E34    CD 23C6                           CALL    BC.C140
  1E37    ED 5B 019A                        LD      DE,(BC.D047)
  1E3B    19                                ADD     HL,DE
  1E3C    DA 116B                           JP      C,BC.J049
  1E3F    E5                                PUSH    HL
  1E40    ED 5B 019A                        LD      DE,(BC.D047)
  1E44    CD 0592                           CALL    BC.C009
  1E47    DA 0A44                           JP      C,BC.J033
  1E4A    D1                                POP     DE
  1E4B    C5                                PUSH    BC
  1E4C    60                                LD      H,B
  1E4D    69                                LD      L,C
  1E4E    7E                                LD      A,M
  1E4F    23                                INC     HL
  1E50    B6                                OR      M
  1E51    28 0A                             JR      Z,$+12
  1E53    23                                INC     HL
  1E54    7E                                LD      A,M
  1E55    23                                INC     HL
  1E56    66                                LD      H,M
  1E57    6F                                LD      L,A
  1E58    ED 52                             SBC     HL,DE
	MACRO-80 3.44	09-Dec-81	PAGE	1-60


  1E5A    DA 116B                           JP      C,BC.J049
  1E5D    C1                                POP     BC
  1E5E    E1                                POP     HL
  1E5F    D1                                POP     DE
  1E60    E5                                PUSH    HL
  1E61    ED 52                             SBC     HL,DE
  1E63    E3                                EX      (SP),HL
  1E64    2B                                DEC     HL
  1E65    ED 42                             SBC     HL,BC
  1E67    EB                                EX      DE,HL
  1E68    38 0A                             JR      C,$+12
  1E6A    ED 42                             SBC     HL,BC
  1E6C    DA 0A44                           JP      C,BC.J033
  1E6F    09                                ADD     HL,BC
  1E70    EB                                EX      DE,HL
  1E71    E1                                POP     HL
  1E72    E5                                PUSH    HL
  1E73    19                                ADD     HL,DE
  1E74    E3                                EX      (SP),HL
  1E75    E5                                PUSH    HL
  1E76    50                                LD      D,B
  1E77    59                                LD      E,C
  1E78    ED 4B 015E                        LD      BC,(BC.D024)
  1E7C    09                                ADD     HL,BC
  1E7D    E5                                PUSH    HL
  1E7E    CD 0419                           CALL    BC.C002
  1E81    E1                                POP     HL
  1E82    22 015E                           LD      (BC.D024),HL
  1E85    60                                LD      H,B
  1E86    69                                LD      L,C
  1E87    C1                                POP     BC
  1E88    E3                                EX      (SP),HL
  1E89    D5                                PUSH    DE
  1E8A    ED B0                             LDIR
  1E8C    E1                                POP     HL
  1E8D    ED 4B 019A                        LD      BC,(BC.D047)
  1E91    23                                INC     HL
  1E92    23                                INC     HL
  1E93    71                                LD      M,C
  1E94    23                                INC     HL
  1E95    70                                LD      M,B
  1E96    23                                INC     HL
  1E97    7E                                LD      A,M
  1E98    B7                                OR      A
  1E99    20 FB                             JR      NZ,$-03
  1E9B    23                                INC     HL
  1E9C    D1                                POP     DE
  1E9D    7C                                LD      A,H
  1E9E    92                                SUB     D
  1E9F    20 02                             JR      NZ,$+04
  1EA1    7D                                LD      A,L
  1EA2    93                                SUB     E
  1EA3    28 0B                             JR      Z,$+13
  1EA5    D5                                PUSH    DE
  1EA6    EB                                EX      DE,HL
  1EA7    2A 019C                           LD      HL,(BC.D048)
  1EAA    09                                ADD     HL,BC
  1EAB    44                                LD      B,H
  1EAC    4D                                LD      C,L
  1EAD    EB                                EX      DE,HL
  1EAE    18 E1                             JR      $-29
  1EB0    CD 0CDB                           CALL    BC.C047
  1EB3    C3 0556                           JP      BC.J017
                                
  1EB6    CD 106A               BC.EXCH:    CALL    BC.C060             ;TOKEN:  E X C H A N G E
  1EB9    D5                                PUSH    DE
  1EBA    E5                                PUSH    HL
  1EBB    21 016D                           LD      HL,BC.D034
  1EBE    CD 2319                           CALL    BC.C134
  1EC1    2A 0160                           LD      HL,(BC.D025)
  1EC4    E3                                EX      (SP),HL
  1EC5    3A 0102                           LD      A,(BC.D004)
  1EC8    F5                                PUSH    AF
  1EC9    3E 2C                             LD      A,02CH
  1ECB    CD 0451                           CALL    BC.C006
  1ECE    CD 106A                           CALL    BC.C060
  1ED1    C1                                POP     BC
  1ED2    3A 0102                           LD      A,(BC.D004)
  1ED5    A8                                XOR     B
  1ED6    1F                                RRA
  1ED7    DA 0E90                           JP      C,BC.J042
  1EDA    E3                                EX      (SP),HL
  1EDB    EB                                EX      DE,HL
	MACRO-80 3.44	09-Dec-81	PAGE	1-61


  1EDC    E5                                PUSH    HL
  1EDD    2A 0160                           LD      HL,(BC.D025)
  1EE0    7C                                LD      A,H
  1EE1    92                                SUB     D
  1EE2    20 02                             JR      NZ,$+04
  1EE4    7D                                LD      A,L
  1EE5    93                                SUB     E
  1EE6    C2 0A44                           JP      NZ,BC.J033
  1EE9    D1                                POP     DE
  1EEA    E1                                POP     HL
  1EEB    E3                                EX      (SP),HL
  1EEC    D5                                PUSH    DE
  1EED    CD 2319                           CALL    BC.C134
  1EF0    E1                                POP     HL
  1EF1    11 016D                           LD      DE,BC.D034
  1EF4    CD 2319                           CALL    BC.C134
  1EF7    E1                                POP     HL
  1EF8    C9                                RET
                                
  1EF9    3E 01                 BC.KILL:    LD      A,001H              ;TOKEN:  K I L L
  1EFB    32 014E                           LD      (BC.D015),A
  1EFE    C3 106A                           JP      BC.C060
                                
  1F01    E5                    BC.J069:    PUSH    HL
  1F02    19                                ADD     HL,DE
  1F03    EB                                EX      DE,HL
  1F04    2A 0162                           LD      HL,(BC.D026)
  1F07    B7                                OR      A
  1F08    ED 52                             SBC     HL,DE
  1F0A    E3                                EX      (SP),HL
  1F0B    C1                                POP     BC
  1F0C    EB                                EX      DE,HL
  1F0D    1B                                DEC     DE
  1F0E    1B                                DEC     DE
  1F0F    1B                                DEC     DE
  1F10    1B                                DEC     DE
  1F11    28 02                             JR      Z,$+04
  1F13    ED B0                             LDIR
  1F15    ED 53 0162                        LD      (BC.D026),DE
  1F19    32 014E               BC.J070:    LD      (BC.D015),A
  1F1C    E1                                POP     HL
  1F1D    7E                                LD      A,M
  1F1E    FE 2C                             CP      02CH
  1F20    C0                                RET     NZ
  1F21    CD 0947                           CALL    BC.C031
  1F24    18 D3                             JR      $-43
                                
  1F26    C8                    BC.CALL:    RET     Z                   ;TOKEN:  C A L L
  1F27    ED 73 019A                        LD      (BC.D047),SP
  1F2B    E5                                PUSH    HL
  1F2C    11 1F57                           LD      DE,BC.D101
  1F2F    D5                                PUSH    DE
  1F30    CD 0A24                           CALL    BC.C041
  1F33    0E 00                             LD      C,000H
  1F35    D5                                PUSH    DE
  1F36    CD 0948                           CALL    BC.C032
  1F39    28 10                             JR      Z,$+18
  1F3B    3E 2C                             LD      A,02CH
  1F3D    CD 0451                           CALL    BC.C006
  1F40    0C                    BC.CALL1:   INC     C
  1F41    C5                                PUSH    BC
  1F42    CD 0A24                           CALL    BC.C041
  1F45    C1                                POP     BC
  1F46    EB                                EX      DE,HL
  1F47    E3                                EX      (SP),HL
  1F48    EB                                EX      DE,HL
  1F49    18 EA                             JR      $-20
                                
  1F4B    D5                    BC.CALL2:   PUSH    DE
  1F4C    EB                                EX      DE,HL
  1F4D    2A 019A                           LD      HL,(BC.D047)
  1F50    2B                                DEC     HL
  1F51    72                                LD      M,D
  1F52    2B                                DEC     HL
  1F53    73                                LD      M,E
  1F54    2B                                DEC     HL
  1F55    2B                                DEC     HL
  1F56    C9                                RET
                                
  1F57    E1                    BC.D101:    POP     HL
  1F58    C9                                RET
                                
  1F59    3E 00                 BC.PREC:    LD      A,0                 ;TOKEN:  P R E C I S I O N
	MACRO-80 3.44	09-Dec-81	PAGE	1-62


  1F5B    C4 171B                           CALL    NZ,BC.C091
  1F5E    C0                                RET     NZ
  1F5F    FE 0B                             CP      00BH
  1F61    28 F6                             JR      Z,$-08
  1F63    D2 0A44                           JP      NC,BC.J033
  1F66    32 01AF                           LD      (BC.D061),A
  1F69    C9                                RET
                                
  1F6A    CD 0A27               BC.PEEK:    CALL    BC.C042             ;TOKEN:  P E E K
  1F6D    1A                                LD      A,(DE)
  1F6E    C3 1232                           JP      BC.C064
                                
  1F71    CD 0A24               BC.POKE:    CALL    BC.C041             ;TOKEN:  P O K E
  1F74    D5                                PUSH    DE
  1F75    3E 2C                             LD      A,02CH
  1F77    CD 0451                           CALL    BC.C006
  1F7A    CD 171B                           CALL    BC.C091
  1F7D    D1                                POP     DE
  1F7E    12                                LD      (DE),A
  1F7F    C9                                RET
                                
  1F80    21 2A08               BC.C105:    LD      HL,BC.D114
  1F83    CD 2305               BC.C106:    CALL    BC.C132
  1F86    18 0C                             JR      $+14
                                
  1F88                          BC.D102     EQU     $
  1F88    CD 2305               BC.C107:    CALL    BC.C132
  1F8B    18 04                             JR      $+06
  1F8D    C1                                POP     BC
  1F8E    DD E1                             POP     IX
  1F90    D1                                POP     DE
  1F91    CD 22D2               BC.C108:    CALL    BC.C126
  1F94    78                    BC.C109:    LD      A,B
  1F95    B7                                OR      A
  1F96    C8                                RET     Z
  1F97    3A 016B                           LD      A,(BC.D032)
  1F9A    B7                                OR      A
  1F9B    CA 22F5                           JP      Z,BC.C130
  1F9E    90                                SUB     B
  1F9F    30 11                             JR      NC,$+19
  1FA1    ED 44                             NEG
  1FA3    D9                                EXX
  1FA4    DD E5                             PUSH    IX
  1FA6    CD 2302                           CALL    BC.C131
  1FA9    D9                                EXX
  1FAA    DD E3                             EX      (SP),IX
  1FAC    CD 22F5                           CALL    BC.C130
  1FAF    D9                                EXX
  1FB0    DD E1                             POP     IX
  1FB2    FE 29                             CP      029H
  1FB4    D0                                RET     NC
  1FB5    F5                                PUSH    AF
  1FB6    CD 2321                           CALL    BC.C135
  1FB9    67                                LD      H,A
  1FBA    F1                                POP     AF
  1FBB    CD 208F                           CALL    BC.C116
  1FBE    B4                                OR      H
  1FBF    21 0166                           LD      HL,BC.D029
  1FC2    F2 1FD6                           JP      P,BC.J071
  1FC5    CD 205A                           CALL    BC.C114
  1FC8    30 69                             JR      NC,$+107
  1FCA    23                                INC     HL
  1FCB    34                                INC     M
  1FCC    CA 2055                           JP      Z,BC.J075
  1FCF    2E 01                             LD      L,001H
  1FD1    CD 20AC                           CALL    BC.C117
  1FD4    18 5D                             JR      $+95
                                
  1FD6    AF                    BC.J071:    XOR     A
  1FD7    90                                SUB     B
  1FD8    47                                LD      B,A
  1FD9    7E                                LD      A,M
  1FDA    9B                                SBC     A,E
  1FDB    5F                                LD      E,A
  1FDC    23                                INC     HL
  1FDD    7E                                LD      A,M
  1FDE    9A                                SBC     A,D
  1FDF    57                                LD      D,A
  1FE0    23                                INC     HL
  1FE1    7E                                LD      A,M
  1FE2    DD 9D                             DB      0DDH,09DH           ; SBC     A,IXL
  1FE4    DD 6F                             DB      0DDH,06FH           ; LD      IXL,A
  1FE6    23                                INC     HL
	MACRO-80 3.44	09-Dec-81	PAGE	1-63


  1FE7    7E                                LD      A,M
  1FE8    DD 9C                             DB      0DDH,09CH           ; SBC     A,IXH
  1FEA    DD 67                             DB      0DDH,067H           ; LD      IXH,A
  1FEC    23                                INC     HL
  1FED    7E                                LD      A,M
  1FEE    99                                SBC     A,C
  1FEF    4F                                LD      C,A
  1FF0    DC 2072               BC.C110:    CALL    C,BC.C115
  1FF3                          BC.D103     EQU     $
  1FF3    68                    BC.C111:    LD      L,B
  1FF4    63                                LD      H,E
  1FF5    AF                                XOR     A
  1FF6    47                                LD      B,A
  1FF7    79                                LD      A,C
  1FF8    B7                                OR      A
  1FF9    20 27                             JR      NZ,$+41
  1FFB    DD 4C                             DB      0DDH,04CH           ; LD   C,IXH
  1FFD    DD 7D                             DB      0DDH,07DH           ; LD   A,IXL
  1FFF    DD 67                             DB      0DDH,067H           ; LD   IXH,A
  2001    DD 6A                             DB      0DDH,06AH           ; LD   IXL,D
  2003    AF                                XOR     A
  2004    54                                LD      D,H
  2005    65                                LD      H,L
  2006    6F                                LD      L,A
  2007    78                                LD      A,B
  2008    D6 08                             SUB     008H
  200A    FE D0                             CP      0D0H
  200C    20 E8                             JR      NZ,$-22
  200E    AF                    BC.C112:    XOR     A
  200F    32 016B               BC.J072:    LD      (BC.D032),A
  2012    C9                                RET
                                
  2013    05                    BC.J073:    DEC     B
  2014    29                                ADD     HL,HL
  2015    CB 12                             RL      D
  2017    08                                EX      AF,AF'              ;'
  2018    DD 29                             ADD     IX,IX
  201A    08                                EX      AF,AF'              ;'
  201B    30 02                             JR      NC,$+04
  201D    DD 23                             INC     IX
  201F    08                                EX      AF,AF'              ;'
  2020    CB 11                             RL      C
  2022    F2 2013                           JP      P,BC.J073
  2025    78                                LD      A,B
  2026    5C                                LD      E,H
  2027    45                                LD      B,L
  2028    B7                                OR      A
  2029    28 08                             JR      Z,$+10
  202B    21 016B                           LD      HL,BC.D032
  202E    86                                ADD     A,M
  202F    77                                LD      M,A
  2030    30 DC                             JR      NC,$-34
  2032    C8                                RET     Z
  2033    78                                LD      A,B
  2034    21 016B               BC.J074:    LD      HL,BC.D032
  2037    B7                                OR      A
  2038    FC 2045                           CALL    M,BC.C113
  203B    46                                LD      B,M
  203C    23                                INC     HL
  203D    7E                                LD      A,M
  203E    E6 80                             AND     080H
  2040    A9                                XOR     C
  2041    4F                                LD      C,A
  2042    C3 22F5                           JP      BC.C130
                                
  2045    1C                    BC.C113:    INC     E
  2046    C0                                RET     NZ
  2047    14                                INC     D
  2048    C0                                RET     NZ
  2049    DD 2C                             DB      0DDH,02CH           ; INC  IXL
  204B    C0                                RET     NZ
  204C    DD 24                             DB      0DDH,024H           ; INC  IXH
  204E    C0                                RET     NZ
  204F    0C                                INC     C
  2050    C0                                RET     NZ
  2051    0E 80                             LD      C,080H
  2053    34                                INC     M
  2054    C0                                RET     NZ
  2055    1E 06                 BC.J075:    LD      E,6
  2057    C3 047E                           JP      BC.J010
                                
  205A    7E                    BC.C114:    LD      A,M
  205B    83                                ADD     A,E
	MACRO-80 3.44	09-Dec-81	PAGE	1-64


  205C    5F                                LD      E,A
  205D    23                                INC     HL
  205E    7E                                LD      A,M
  205F    8A                                ADC     A,D
  2060    57                                LD      D,A
  2061    23                                INC     HL
  2062    7E                                LD      A,M
  2063    DD 8D                             DB      0DDH,08DH           ; ADC  A,IXL
  2065    DD 6F                             DB      0DDH,06FH           ; LD   IXL,A
  2067    23                                INC     HL
  2068    7E                                LD      A,M
  2069    DD 8C                             DB      0DDH,08CH           ; ADC  A,IXH
  206B    DD 67                             DB      0DDH,067H           ; LD   IXH,A
  206D    23                                INC     HL
  206E    7E                                LD      A,M
  206F    89                                ADC     A,C
  2070    4F                                LD      C,A
  2071    C9                                RET
                                
  2072    21 016C               BC.C115:    LD      HL,BC.D033
  2075    7E                                LD      A,M
  2076    2F                                CPL
  2077    77                                LD      M,A
  2078    AF                                XOR     A
  2079    6F                                LD      L,A
  207A    67                                LD      H,A
  207B    90                                SUB     B
  207C    47                                LD      B,A
  207D    7D                                LD      A,L
  207E    ED 52                             SBC     HL,DE
  2080    EB                                EX      DE,HL
  2081    6F                                LD      L,A
  2082    DD 9D                             DB      0DDH,09DH           ; SBC  A,IXL
  2084    DD 6F                             DB      0DDH,06FH           ; LD   IXL,A
  2086    7D                                LD      A,L
  2087    DD 9C                             DB      0DDH,09CH           ; SBC  A,IXH
  2089    DD 67                             DB      0DDH,067H           ; LD   IXH,A
  208B    7D                                LD      A,L
  208C    99                                SBC     A,C
  208D    4F                                LD      C,A
  208E    C9                                RET
                                ;
  208F    06 00                 BC.C116:    LD      B,0
  2091    D6 08                             SUB     008H
  2093    38 10                             JR      C,$+18
  2095    43                                LD      B,E
  2096    5A                                LD      E,D
  2097    DD 55                             DB      0DDH,055H           ; LD   D,IXL
  2099    08                                EX      AF,AF'              ;'
  209A    DD 7C                             DB      0DDH,07CH           ; LD   A,IXH
  209C    DD 6F                             DB      0DDH,06FH           ; LD   IXL,A
  209E    08                                EX      AF,AF'              ;'
  209F    DD 61                             DB      0DDH,061H           ; LD   IXH,C
  20A1    0E 00                             LD      C,0
  20A3    18 EC                             JR      $-18
                                ;
  20A5    C6 09                             ADD     A,009H
  20A7    6F                                LD      L,A
  20A8    AF                                XOR     A
  20A9    2D                                DEC     L
  20AA    C8                                RET     Z
  20AB    79                                LD      A,C
  20AC    1F                    BC.C117:    RRA
  20AD    4F                                LD      C,A
  20AE    DD 7C                             DB      0DDH,07CH           ; LD   A,IXH
  20B0    1F                                RRA
  20B1    DD 67                             DB      0DDH,067H           ; LD   IXH,A
  20B3    DD 7D                             DB      0DDH,07DH           ; LD   A,IXL
  20B5    1F                                RRA
  20B6    DD 6F                             DB      0DDH,06FH           ; LD   IXL,A
  20B8    CB 1A                             RR      D
  20BA    CB 1B                             RR      E
  20BC    CB 18                             RR      B
  20BE    18 E8                             JR      $-22
                                
                                            PAGE
	MACRO-80 3.44	09-Dec-81	PAGE	1-65


                                
  20C0    0000                  BC.D104:    DW      0
  20C2    0000                              DW      0
  20C4    8100                              DW      08100H
                                
                                
  20C6    06                    BC.D105:    DB      6                   ;Anzahl
                                
  20C7    8523                              DW      08523H              ;erste Zahl
  20C9    C3AC                              DW      0C3ACH
  20CB    7F11                              DW      07F11H
                                
  20CD    CB53                              DW      0CB53H              ;zweite
  20CF    B79E                              DW      0B79EH
  20D1    7F23                              DW      07F23H
                                
  20D3    FECC                              DW      0FECCH              ;dritte
  20D5    0DA6                              DW      00DA6H
  20D7    7F53                              DW      07F53H
                                
  20D9    5CCB                              DW      05CCBH              ;vierte
  20DB    BB60                              DW      0BB60H
  20DD    8013                              DW      08013H
                                
  20DF    E3DD                              DW      0E3DDH              ;fuenfte
  20E1    384E                              DW      0384EH
  20E3    8076                              DW      08076H
                                
  20E5    295C                              DW      0295CH              ;sechste
  20E7    AA3B                              DW      0AA3BH
  20E9    8238                              DW      08238H
                                
                                            PAGE
	MACRO-80 3.44	09-Dec-81	PAGE	1-66


                                
  20EB    CD 22BF               BC.LOG:     CALL    BC.C125             ;TOKEN:  L O G
  20EE    B7                                OR      A
  20EF    EA 0A44                           JP      PE,BC.J033
  20F2    21 016B                           LD      HL,BC.D032
  20F5    7E                                LD      A,M
  20F6    01 8035                           LD      BC,08035H
  20F9    DD 21 04F3                        LD      IX,BC.D067
  20FD    11 33FA                           LD      DE,033FAH
  2100    90                                SUB     B
  2101    F5                                PUSH    AF
  2102    70                                LD      M,B
  2103    D5                                PUSH    DE
  2104    DD E5                             PUSH    IX
  2106    C5                                PUSH    BC
  2107    CD 1F94                           CALL    BC.C109
  210A    C1                                POP     BC
  210B    DD E1                             POP     IX
  210D    D1                                POP     DE
  210E    04                                INC     B
  210F    CD 21C3                           CALL    BC.C120
  2112    21 20C0                           LD      HL,BC.D104
  2115    CD 1F88                           CALL    BC.C107
  2118    21 20C6                           LD      HL,BC.D105
  211B    CD 2ADB                           CALL    BC.C164
  211E    01 8080                           LD      BC,08080H
  2121    DD 21 0000                        LD      IX,00000H
  2125    11 0000                           LD      DE,00000H
  2128    CD 1F94                           CALL    BC.C109
  212B    F1                                POP     AF
  212C    CD 24A1                           CALL    BC.C142
  212F    01 8031                           LD      BC,08031H
  2132    DD 21 7217                        LD      IX,07217H
  2136    11 F7D2                           LD      DE,0F7D2H
  2139    18 04                             JR      $+06
                                
  213B    C1                    BC.D106:    POP     BC
  213C    DD E1                             POP     IX
  213E    D1                                POP     DE
  213F    CD 22BF               BC.C118:    CALL    BC.C125
  2142    C8                                RET     Z
  2143    2E 00                             LD      L,000H
  2145    CD 2263                           CALL    BC.C121
  2148    79                                LD      A,C
  2149    D5                                PUSH    DE
  214A    D9                                EXX
  214B    4F                                LD      C,A
  214C    D1                                POP     DE
  214D    DD E5                             PUSH    IX
  214F    E1                                POP     HL
  2150    D9                                EXX
  2151    01 0000                           LD      BC,00000H
  2154    50                                LD      D,B
  2155    58                                LD      E,B
  2156    DD 21 0000                        LD      IX,00000H
  215A    21 1FF3                           LD      HL,BC.D103
  215D    E5                                PUSH    HL
  215E    21 2168                           LD      HL,BC.D107
  2161    E5                                PUSH    HL
  2162    E5                                PUSH    HL
  2163    E5                                PUSH    HL
  2164    E5                                PUSH    HL
  2165    21 0166                           LD      HL,BC.D029
  2168    7E                    BC.D107:    LD      A,M
  2169    23                                INC     HL
  216A    B7                                OR      A
  216B    20 0E                             JR      NZ,$+16
  216D    43                                LD      B,E
  216E    5A                                LD      E,D
  216F    DD 55                             DB      0DDH,055H           ; LD   D,IXL
  2171    08                                EX      AF,AF'              ;'
  2172    DD 7C                             DB      0DDH,07CH           ; LD   A,IXH
  2174    DD 6F                             DB      0DDH,06FH           ; LD   IXL,A
  2176    08                                EX      AF,AF'              ;'
  2177    DD 61                             DB      0DDH,061H           ; LD   IXH,C
  2179    4F                                LD      C,A
  217A    C9                                RET
  217B    E5                                PUSH    HL
  217C    EB                                EX      DE,HL
  217D    1E 08                             LD      E,008H
  217F    1F                                RRA
  2180    57                                LD      D,A
	MACRO-80 3.44	09-Dec-81	PAGE	1-67


  2181    79                                LD      A,C
  2182    30 12                             JR      NC,$+20
  2184    E5                                PUSH    HL
  2185    D9                                EXX
  2186    E3                                EX      (SP),HL
  2187    19                                ADD     HL,DE
  2188    E3                                EX      (SP),HL
  2189    EB                                EX      DE,HL
  218A    DD E5                             PUSH    IX
  218C    E3                                EX      (SP),HL
  218D    ED 5A                             ADC     HL,DE
  218F    E3                                EX      (SP),HL
  2190    DD E1                             POP     IX
  2192    EB                                EX      DE,HL
  2193    89                                ADC     A,C
  2194    D9                                EXX
  2195    E1                                POP     HL
  2196    1F                                RRA
  2197    4F                                LD      C,A
  2198    DD 7C                             DB      0DDH,07CH           ; LD   A,IXH
  219A    1F                                RRA
  219B    DD 67                             DB      0DDH,067H           ; LD   IXH,A
  219D    DD 7D                             DB      0DDH,07DH           ; LD   A,IXL 
  219F    1F                                RRA
  21A0    DD 6F                             DB      0DDH,06FH           ; LD   IXL,A
  21A2    CB 1C                             RR      H
  21A4    CB 1D                             RR      L
  21A6    CB 18                             RR      B
  21A8    1D                                DEC     E
  21A9    7A                                LD      A,D
  21AA    20 D3                             JR      NZ,$-43
  21AC    EB                                EX      DE,HL
  21AD    E1                    BC.J076:    POP     HL
  21AE    C9                                RET
                                
  21AF    CD 22DA               BC.C119:    CALL    BC.C127
  21B2    01 8420                           LD      BC,08420H
  21B5    DD 21 0000                        LD      IX,00000H
  21B9    11 0000                           LD      DE,00000H
  21BC    CD 22F5                           CALL    BC.C130
  21BF    C1                    BC.J077:    POP     BC
  21C0    DD E1                             POP     IX
  21C2    D1                                POP     DE
  21C3    CD 22BF               BC.C120:    CALL    BC.C125
  21C6    CA 0470                           JP      Z,BC.J005
  21C9    2E FF                             LD      L,0FFH
  21CB    CD 2263                           CALL    BC.C121
  21CE    FD E5                             PUSH    IY
  21D0    34                                INC     M
  21D1    34                                INC     M
  21D2    2B                                DEC     HL
  21D3    E5                                PUSH    HL
  21D4    D9                                EXX
  21D5    E1                                POP     HL
  21D6    4E                                LD      C,M
  21D7    2B                                DEC     HL
  21D8    56                                LD      D,M
  21D9    2B                                DEC     HL
  21DA    5E                                LD      E,M
  21DB    2B                                DEC     HL
  21DC    7E                                LD      A,M
  21DD    2B                                DEC     HL
  21DE    6E                                LD      L,M
  21DF    67                                LD      H,A
  21E0    EB                                EX      DE,HL
  21E1    D9                                EXX
  21E2    41                                LD      B,C
  21E3    EB                                EX      DE,HL
  21E4    DD E5                             PUSH    IX
  21E6    FD E1                             POP     IY
  21E8    AF                                XOR     A
  21E9    4F                                LD      C,A
  21EA    57                                LD      D,A
  21EB    5F                                LD      E,A
  21EC    DD 21 0000                        LD      IX,00000H
  21F0    32 01AE                           LD      (BC.D060),A
  21F3    E5                                PUSH    HL
  21F4    FD E5                             PUSH    IY
  21F6    C5                                PUSH    BC
  21F7    E5                                PUSH    HL
  21F8    78                                LD      A,B
  21F9    D9                                EXX
  21FA    E3                                EX      (SP),HL
	MACRO-80 3.44	09-Dec-81	PAGE	1-68


  21FB    B7                                OR      A
  21FC    ED 52                             SBC     HL,DE
  21FE    E3                                EX      (SP),HL
  21FF    EB                                EX      DE,HL
  2200    FD E5                             PUSH    IY
  2202    E3                                EX      (SP),HL
  2203    ED 52                             SBC     HL,DE
  2205    E3                                EX      (SP),HL
  2206    FD E1                             POP     IY
  2208    EB                                EX      DE,HL
  2209    99                                SBC     A,C
  220A    D9                                EXX
  220B    E1                                POP     HL
  220C    47                                LD      B,A
  220D    3A 01AE                           LD      A,(BC.D060)
  2210    DE 00                             SBC     A,000H
  2212    3F                                CCF
  2213    30 09                             JR      NC,$+11
  2215    32 01AE                           LD      (BC.D060),A
  2218    F1                                POP     AF
  2219    F1                                POP     AF
  221A    F1                                POP     AF
  221B    37                                SCF
  221C    18 04                             JR      $+06
  221E    C1                                POP     BC
  221F    FD E1                             POP     IY
  2221    E1                                POP     HL
  2222    0C                                INC     C
  2223    0D                                DEC     C
  2224    1F                                RRA
  2225    FA 225E                           JP      M,BC.J078
  2228    17                                RLA
  2229    CB 13                             RL      E
  222B    CB 12                             RL      D
  222D    08                                EX      AF,AF'              ;'
  222E    DD 29                             ADD     IX,IX
  2230    08                                EX      AF,AF'              ;'
  2231    30 02                             JR      NC,$+04
  2233    DD 23                             INC     IX
  2235    08                                EX      AF,AF'              ;'
  2236    CB 11                             RL      C
  2238    29                                ADD     HL,HL
  2239    08                                EX      AF,AF'              ;'
  223A    FD 29                             ADD     IY,IY
  223C    08                                EX      AF,AF'              ;'
  223D    30 02                             JR      NC,$+04
  223F    FD 23                             INC     IY
  2241    08                                EX      AF,AF'              ;'
  2242    CB 10                             RL      B
  2244    3A 01AE                           LD      A,(BC.D060)
  2247    17                                RLA
  2248    32 01AE                           LD      (BC.D060),A
  224B    79                                LD      A,C
  224C    B2                                OR      D
  224D    B3                                OR      E
  224E    DD B4                             DB      0DDH,0B4H           ; OR   IXH
  2250    DD B5                             DB      0DDH,0B5H           ; OR   IXL 
  2252    20 9F                             JR      NZ,$-95
  2254    E5                                PUSH    HL
  2255    21 016B                           LD      HL,BC.D032
  2258    35                                DEC     M
  2259    E1                                POP     HL
  225A    20 97                             JR      NZ,$-103
  225C    18 2D                             JR      $+47
                                
  225E    FD E1                 BC.J078:    POP     IY
  2260    C3 2034                           JP      BC.J074
                                
  2263    78                    BC.C121:    LD      A,B
  2264    B7                                OR      A
  2265    28 20                             JR      Z,$+34
  2267    7D                                LD      A,L
  2268    21 016B                           LD      HL,BC.D032
  226B    AE                                XOR     M
  226C    80                                ADD     A,B
  226D    47                                LD      B,A
  226E    1F                                RRA
  226F    A8                                XOR     B
  2270    78                                LD      A,B
  2271    F2 2286                           JP      P,BC.J080
  2274    C6 80                             ADD     A,080H
  2276    77                                LD      M,A
  2277    CA 21AD                           JP      Z,BC.J076
	MACRO-80 3.44	09-Dec-81	PAGE	1-69


  227A    CD 2321                           CALL    BC.C135
  227D    77                                LD      M,A
  227E    2B                                DEC     HL
  227F    C9                                RET
                                
  2280    CD 22BF               BC.J079:    CALL    BC.C125
  2283    2F                                CPL
  2284    B7                                OR      A
  2285    21                                DB      21H
  2286    B7                    BC.J080:    OR      A
  2287    E1                                POP     HL
  2288    F2 200E                           JP      P,BC.C112
  228B    C3 2055                           JP      BC.J075
                                
  228E    CD 2302               BC.C122:    CALL    BC.C131
  2291    78                                LD      A,B
  2292    B7                                OR      A
  2293    C8                                RET     Z
  2294    C6 02                             ADD     A,002H
  2296    38 F3                             JR      C,$-11
  2298    47                                LD      B,A
  2299    CD 1F94                           CALL    BC.C109
  229C    21 016B                           LD      HL,BC.D032
  229F    34                                INC     M
  22A0    C0                                RET     NZ
  22A1    18 E8                             JR      $-22
                                
  22A3    CD 22BF               BC.SGN:     CALL    BC.C125             ;TOKEN:  S G N
  22A6    06 88                 BC.C123:    LD      B,088H
  22A8    11 0000                           LD      DE,0
  22AB    21 016B               BC.C124:    LD      HL,BC.D032
  22AE    4F                                LD      C,A
  22AF    D5                                PUSH    DE
  22B0    DD E1                             POP     IX
  22B2    11 0000                           LD      DE,0
  22B5    70                                LD      M,B
  22B6    06 00                             LD      B,0
  22B8    23                                INC     HL
  22B9    36 80                             LD      M,080H
  22BB    17                                RLA
  22BC    C3 1FF0                           JP      BC.C110
                                
  22BF    3A 016B               BC.C125:    LD      A,(BC.D032)
  22C2    B7                                OR      A
  22C3    C8                                RET     Z
  22C4    3A 016A                           LD      A,(BC.D031)
  22C7    FE                                DB      0FEH                ;CP   02FH
  22C8    2F                    BC.J081:    CPL
  22C9    17                                RLA
  22CA    9F                    BC.J082:    SBC     A,A
  22CB    C0                                RET     NZ
  22CC    3C                                INC     A
  22CD    C9                                RET
                                
  22CE    CD 22BF               BC.ABS:     CALL    BC.C125             ;TOKEN:  A B S
  22D1    F0                                RET     P
  22D2                          BC.D108     EQU     $
  22D2    21 016A               BC.C126:    LD      HL,BC.D031
  22D5    7E                                LD      A,M
  22D6    EE 80                             XOR     080H
  22D8    77                                LD      M,A
  22D9    C9                                RET
                                
  22DA    EB                    BC.C127:    EX      DE,HL
  22DB    2A 0166               BC.C128:    LD      HL,(BC.D029)
  22DE    E3                                EX      (SP),HL
  22DF    E5                                PUSH    HL
  22E0    2A 0168                           LD      HL,(BC.D030)
  22E3    E3                                EX      (SP),HL
  22E4    E5                                PUSH    HL
  22E5    2A 016A                           LD      HL,(BC.D031)
  22E8    E3                                EX      (SP),HL
  22E9    E5                                PUSH    HL
  22EA    EB                                EX      DE,HL
  22EB    C9                                RET
                                
  22EC    11 0166               BC.C129:    LD      DE,BC.D029
  22EF    01 0006                           LD      BC,00006H
  22F2    ED B0                             LDIR
  22F4    C9                                RET
                                
  22F5    ED 53 0166            BC.C130:    LD      (BC.D029),DE
  22F9    DD 22 0168                        LD      (BC.D030),IX
	MACRO-80 3.44	09-Dec-81	PAGE	1-70


  22FD    ED 43 016A                        LD      (BC.D031),BC
  2301    C9                                RET
                                
  2302    21 0166               BC.C131:    LD      HL,BC.D029
  2305    5E                    BC.C132:    LD      E,M
  2306    23                                INC     HL
  2307    56                                LD      D,M
  2308    23                                INC     HL
  2309    4E                                LD      C,M
  230A    DD 69                             DB      0DDH,069H           ; LD   IXL,C 
  230C    23                                INC     HL
  230D    4E                                LD      C,M
  230E    DD 61                             DB      0DDH,061H           ; LD   IXH,C 
  2310    23                                INC     HL
  2311    4E                                LD      C,M
  2312    23                                INC     HL
  2313    46                                LD      B,M
  2314    23                                INC     HL
  2315    C9                                RET
                                
  2316    11 0166               BC.C133:    LD      DE,BC.D029
  2319    01 0006               BC.C134:    LD      BC,00006H
  231C    EB                                EX      DE,HL
  231D    ED B0                             LDIR
  231F    EB                                EX      DE,HL
  2320    C9                                RET
                                
  2321    21 016A               BC.C135:    LD      HL,BC.D031
  2324    7E                                LD      A,M
  2325    07                                RLCA
  2326    37                                SCF
  2327    1F                                RRA
  2328    77                                LD      M,A
  2329    3F                                CCF
  232A    1F                                RRA
  232B    23                                INC     HL
  232C    23                                INC     HL
  232D    77                                LD      M,A
  232E    79                                LD      A,C
  232F    07                                RLCA
  2330    37                                SCF
  2331    1F                                RRA
  2332    4F                                LD      C,A
  2333    1F                                RRA
  2334    AE                                XOR     M
  2335    C9                                RET
                                
  2336    78                    BC.C136:    LD      A,B
  2337    B7                                OR      A
  2338    28 85                             JR      Z,$-121
  233A    CD 22BF                           CALL    BC.C125
  233D    79                                LD      A,C
  233E    28 88                             JR      Z,$-118
  2340    21 016A                           LD      HL,BC.D031
  2343    AE                                XOR     M
  2344    79                                LD      A,C
  2345    FA 22C8                           JP      M,BC.J081
  2348    CD 2350                           CALL    BC.C137
  234B    1F                                RRA
  234C    A9                                XOR     C
  234D    C3 22C8                           JP      BC.J081
                                
  2350    23                    BC.C137:    INC     HL
  2351    78                                LD      A,B
  2352    BE                                CP      M
  2353    C0                                RET     NZ
  2354    2B                                DEC     HL
  2355    79                                LD      A,C
  2356    BE                                CP      M
  2357    C0                                RET     NZ
  2358    2B                                DEC     HL
  2359    DD 7C                             DB      0DDH,07CH           ; LD   A,IXH
  235B    BE                                CP      (HL)
  235C    C0                                RET     NZ
  235D    2B                                DEC     HL
  235E    DD 7D                             DB      0DDH,07DH           ; LD   A,IXL 
  2360    BE                                CP      (HL)
  2361    C0                                RET     NZ
  2362    2B                                DEC     HL
  2363    7A                                LD      A,D
  2364    BE                                CP      M
  2365    C0                                RET     NZ
  2366    2B                                DEC     HL
	MACRO-80 3.44	09-Dec-81	PAGE	1-71


  2367    7B                                LD      A,E
  2368    96                                SUB     M
  2369    C0                                RET     NZ
  236A    E1                                POP     HL
  236B    C9                                RET
                                
  236C    5E                    BC.C138:    LD      E,M
  236D    23                                INC     HL
  236E    56                                LD      D,M
  236F    23                                INC     HL
  2370    4E                                LD      C,M
  2371    23                                INC     HL
  2372    46                                LD      B,M
  2373    23                                INC     HL
  2374    C9                                RET
                                
  2375    47                    BC.C139:    LD      B,A
  2376    4F                                LD      C,A
  2377    57                                LD      D,A
  2378    5F                                LD      E,A
  2379    DD 67                             DB      0DDH,067H           ; LD   IXH,A
  237B    DD 6F                             DB      0DDH,06FH           ; LD   IXL,A
  237D    B7                                OR      A
  237E    C8                                RET     Z
  237F    E5                                PUSH    HL
  2380    CD 2302                           CALL    BC.C131
  2383    CD 2321                           CALL    BC.C135
  2386    AE                                XOR     M
  2387    67                                LD      H,A
  2388    F2 239B                           JP      P,BC.J083
  238B    1B                                DEC     DE
  238C    7A                                LD      A,D
  238D    A3                                AND     E
  238E    3C                                INC     A
  238F    20 0A                             JR      NZ,$+12
  2391    DD 2B                             DEC     IX
  2393    DD 7C                             DB      0DDH,07CH           ; LD   A,IXH
  2395    DD A5                             DB      0DDH,0A5H           ; AND  IXL
  2397    3C                                INC     A
  2398    20 01                             JR      NZ,$+03
  239A    0D                                DEC     C
  239B    3E A8                 BC.J083:    LD      A,0A8H
  239D    90                                SUB     B
  239E    CD 208F                           CALL    BC.C116
  23A1    7C                                LD      A,H
  23A2    17                                RLA
  23A3    DC 2045                           CALL    C,BC.C113
  23A6    06 00                             LD      B,000H
  23A8    DC 2072                           CALL    C,BC.C115
  23AB    E1                                POP     HL
  23AC    C9                                RET
                                
  23AD                          BC.D109     EQU     $
  23AD    21 016B               BC.INT:     LD      HL,BC.D032          ;TOKEN:  I N T
  23B0    7E                                LD      A,M
  23B1    FE A8                             CP      0A8H
  23B3    3A 0166                           LD      A,(BC.D029)
  23B6    D0                                RET     NC
  23B7    7E                                LD      A,M
  23B8    CD 2375                           CALL    BC.C139
  23BB    36 A8                             LD      M,0A8H
  23BD    7B                                LD      A,E
  23BE    F5                                PUSH    AF
  23BF    79                                LD      A,C
  23C0    17                                RLA
  23C1    CD 1FF0                           CALL    BC.C110
  23C4    F1                                POP     AF
  23C5    C9                                RET
                                
  23C6    21 0000               BC.C140:    LD      HL,0
  23C9    78                                LD      A,B
  23CA    B1                                OR      C
  23CB    C8                    BC.D110:    RET     Z
  23CC    3E 11                             LD      A,011H
  23CE    3D                                DEC     A
  23CF    C8                                RET     Z
  23D0    29                                ADD     HL,HL
  23D1    38 08                             JR      C,$+10
  23D3    EB                                EX      DE,HL
  23D4    29                                ADD     HL,HL
  23D5    EB                                EX      DE,HL
  23D6    30 F6                             JR      NC,$-08
  23D8    09                                ADD     HL,BC
	MACRO-80 3.44	09-Dec-81	PAGE	1-72


  23D9    30 F3                             JR      NC,$-11
  23DB    C3 116B                           JP      BC.J049
                                
  23DE    FE 26                 BC.C141:    CP      026H
  23E0    CA 2471                           JP      Z,BC.J086
  23E3    FE 2D                 BC.J084:    CP      02DH
  23E5    F5                                PUSH    AF
  23E6    28 05                             JR      Z,$+07
  23E8    FE 2B                             CP      02BH
  23EA    28 01                             JR      Z,$+03
  23EC    2B                                DEC     HL
  23ED    CD 200E                           CALL    BC.C112
  23F0    47                                LD      B,A
  23F1    57                                LD      D,A
  23F2    5F                                LD      E,A
  23F3    2F                                CPL
  23F4    4F                                LD      C,A
  23F5    CD 0947                           CALL    BC.C031
  23F8    38 56                             JR      C,$+88
  23FA    FE 2E                             CP      02EH
  23FC    28 26                             JR      Z,$+40
  23FE    FE 45                             CP      045H
  2400    20 25                             JR      NZ,$+39
  2402    CD 0947                           CALL    BC.C031
  2405    15                                DEC     D
  2406    FE A6                             CP      0A6H
  2408    28 0E                             JR      Z,$+16
  240A    FE 2D                             CP      02DH
  240C    28 0A                             JR      Z,$+12
  240E    14                                INC     D
  240F    FE 2B                             CP      02BH
  2411    28 05                             JR      Z,$+07
  2413    FE A5                             CP      0A5H
  2415    28 01                             JR      Z,$+03
  2417    2B                                DEC     HL
  2418    CD 0947                           CALL    BC.C031
  241B    38 49                             JR      C,$+75
  241D    14                                INC     D
  241E    20 07                             JR      NZ,$+09
  2420    AF                                XOR     A
  2421    93                                SUB     E
  2422    5F                                LD      E,A
  2423    0C                                INC     C
  2424    0C                                INC     C
  2425    28 CE                             JR      Z,$-48
  2427    E5                                PUSH    HL
  2428    7B                                LD      A,E
  2429    90                                SUB     B
  242A    F2 2439                           JP      P,BC.J085
  242D    CD 22DA                           CALL    BC.C127
  2430    ED 44                             NEG
  2432    21 20C0                           LD      HL,BC.D104
  2435    CD 22EC                           CALL    BC.C129
  2438    37                                SCF
  2439    F5                    BC.J085:    PUSH    AF
  243A    CD 24AE                           CALL    BC.C143
  243D    20 FB                             JR      NZ,$-03
  243F    F1                                POP     AF
  2440    30 07                             JR      NC,$+09
  2442    C1                                POP     BC
  2443    DD E1                             POP     IX
  2445    D1                                POP     DE
  2446    CD 21C3                           CALL    BC.C120
  2449    D1                                POP     DE
  244A    F1                                POP     AF
  244B    CC 22D2                           CALL    Z,BC.C126
  244E    EB                                EX      DE,HL
  244F    C9                                RET
  2450    D5                                PUSH    DE
  2451    57                                LD      D,A
  2452    78                                LD      A,B
  2453    89                                ADC     A,C
  2454    47                                LD      B,A
  2455    C5                                PUSH    BC
  2456    E5                                PUSH    HL
  2457    D5                                PUSH    DE
  2458    CD 228E                           CALL    BC.C122
  245B    F1                                POP     AF
  245C    D6 30                             SUB     030H
  245E    CD 24A1                           CALL    BC.C142
  2461    E1                                POP     HL
  2462    C1                                POP     BC
  2463    D1                                POP     DE
	MACRO-80 3.44	09-Dec-81	PAGE	1-73


  2464    18 8F                             JR      $-111
  2466    7B                                LD      A,E
  2467    87                                ADD     A,A
  2468    87                                ADD     A,A
  2469    83                                ADD     A,E
  246A    87                                ADD     A,A
  246B    86                                ADD     A,M
  246C    D6 30                             SUB     030H
  246E    5F                                LD      E,A
  246F    18 A7                             JR      $-87
                                
  2471    11 0000               BC.J086:    LD      DE,0
  2474    CD 0947                           CALL    BC.C031
  2477    28 22                             JR      Z,$+36
  2479    38 0C                             JR      C,$+14
  247B    D6 41                             SUB     041H
  247D    38 1C                             JR      C,$+30
  247F    FE 06                             CP      006H
  2481    30 18                             JR      NC,$+26
  2483    C6 0A                             ADD     A,00AH
  2485    18 02                             JR      $+04
  2487    D6 30                             SUB     030H
  2489    08                                EX      AF,AF'              ;'
  248A    7A                                LD      A,D
  248B    FE 10                             CP      010H
  248D    D2 2055                           JP      NC,BC.J075
  2490    08                                EX      AF,AF'              ;'
  2491    EB                                EX      DE,HL
  2492    29                                ADD     HL,HL
  2493    29                                ADD     HL,HL
  2494    29                                ADD     HL,HL
  2495    29                                ADD     HL,HL
  2496    B5                                OR      L
  2497    6F                                LD      L,A
  2498    EB                                EX      DE,HL
  2499    18 D9                             JR      $-37
  249B    E5                                PUSH    HL
  249C    CD 1218                           CALL    BC.C062
  249F    E1                                POP     HL
  24A0    C9                                RET
                                
  24A1    CD 22DA               BC.C142:    CALL    BC.C127
  24A4    CD 22A6                           CALL    BC.C123
  24A7    C1                                POP     BC
  24A8    DD E1                             POP     IX
  24AA    D1                                POP     DE
  24AB    C3 1F94                           JP      BC.C109
                                
  24AE    C8                    BC.C143:    RET     Z
  24AF    F5                    BC.C144:    PUSH    AF
  24B0    CD 228E                           CALL    BC.C122
  24B3    F1                                POP     AF
  24B4    3D                                DEC     A
  24B5    C9                                RET
                                
  24B6    D5                    BC.C145:    PUSH    DE
  24B7    E5                                PUSH    HL
  24B8    F5                                PUSH    AF
  24B9    CD 21AF                           CALL    BC.C119
  24BC    F1                                POP     AF
  24BD    E1                                POP     HL
  24BE    D1                                POP     DE
  24BF    3C                                INC     A
  24C0    C9                                RET
                                
  24C1    E5                    BC.C146:    PUSH    HL
  24C2    21 2F93                           LD      HL,BC.D127
  24C5    CD 07BD                           CALL    BC.C027
  24C8    E1                                POP     HL
  24C9    CD 1217               BC.C147:    CALL    BC.C061
  24CC    21 01AF                           LD      HL,BC.D061
  24CF    7E                                LD      A,M
  24D0    36 00                             LD      M,000H
  24D2    F5                                PUSH    AF
  24D3    CD 24DD                           CALL    BC.C148
  24D6    F1                                POP     AF
  24D7    32 01AF                           LD      (BC.D061),A
  24DA    C3 1430                           JP      BC.J055
                                
  24DD    AF                    BC.C148:    XOR     A
  24DE    32 01AA               BC.C149:    LD      (BC.D057),A
  24E1    21 016E                           LD      HL,BC.D035
  24E4    36 20                             LD      M,020H
	MACRO-80 3.44	09-Dec-81	PAGE	1-74


  24E6    E6 08                             AND     008H
  24E8    28 02                             JR      Z,$+04
  24EA    36 2B                             LD      M,02BH
  24EC    CD 22BF                           CALL    BC.C125
  24EF    F2 24FA                           JP      P,BC.J087
  24F2    36 2D                             LD      M,02DH
  24F4    E5                                PUSH    HL
  24F5    CD 22D2                           CALL    BC.C126
  24F8    E1                                POP     HL
  24F9    B4                                OR      H
  24FA    23                    BC.J087:    INC     HL
  24FB    36 30                             LD      M,030H
  24FD    3A 01AA                           LD      A,(BC.D057)
  2500    57                                LD      D,A
  2501    17                                RLA
  2502    DA 25B2                           JP      C,BC.J092
  2505    CA 25AA                           JP      Z,BC.J091
  2508    E5                                PUSH    HL
  2509    CD 271F                           CALL    BC.C152
  250C    21 01AF                           LD      HL,BC.D061
  250F    34                                INC     M
  2510    35                                DEC     M
  2511    28 51                             JR      Z,$+83
  2513    57                                LD      D,A
  2514    C6 0B                             ADD     A,00BH
  2516    FA 2555                           JP      M,BC.J088
  2519    BE                                CP      M
  251A    28 02                             JR      Z,$+04
  251C    30 37                             JR      NC,$+57
  251E    47                                LD      B,A
  251F    7E                                LD      A,M
  2520    90                                SUB     B
  2521    3C                                INC     A
  2522    4F                                LD      C,A
  2523    04                                INC     B
  2524    7A                                LD      A,D
  2525    16 0B                             LD      D,00BH
  2527    E1                                POP     HL
  2528    23                                INC     HL
  2529    CD 2683                           CALL    BC.C151
  252C    E5                                PUSH    HL
  252D    AF                                XOR     A
  252E    01 0000                           LD      BC,00000H
  2531    ED B1                             CPIR
  2533    2B                                DEC     HL
  2534    01 253C                           LD      BC,BC.D111
  2537    C5                                PUSH    BC
  2538    AF                                XOR     A
  2539    F5                                PUSH    AF
  253A    18 47                             JR      $+73
  253C    E1                    BC.D111:    POP     HL
  253D    7E                                LD      A,M
  253E    FE 2D                             CP      02DH
  2540    C8                                RET     Z
  2541    FE 20                             CP      020H
  2543    C8                                RET     Z
  2544    FE 30                             CP      030H
  2546    28 0A                             JR      Z,$+12
  2548    FE 25                             CP      025H
  254A    20 05                             JR      NZ,$+07
  254C    23                                INC     HL
  254D    7E                                LD      A,M
  254E    FE 2D                             CP      02DH
  2550    C8                                RET     Z
  2551    2B                                DEC     HL
  2552    36 20                             LD      M,020H
  2554    C9                                RET
                                
  2555    4E                    BC.J088:    LD      C,M
  2556    0D                                DEC     C
  2557    28 01                             JR      Z,$+03
  2559    0C                                INC     C
  255A    06 02                             LD      B,002H
  255C    E1                                POP     HL
  255D    23                                INC     HL
  255E    7A                                LD      A,D
  255F    16 00                             LD      D,000H
  2561    C3 26D7                           JP      BC.J098
  2564    01 0300                           LD      BC,00300H
  2567    C6 0C                             ADD     A,00CH
  2569    FA 2574                           JP      M,BC.J089
  256C    FE 0D                             CP      00DH
  256E    30 04                             JR      NC,$+06
	MACRO-80 3.44	09-Dec-81	PAGE	1-75


  2570    3C                                INC     A
  2571    47                                LD      B,A
  2572    3E 02                             LD      A,002H
  2574    D6 02                 BC.J089:    SUB     002H
  2576    E1                                POP     HL
  2577    F5                                PUSH    AF
  2578    CD 275A                           CALL    BC.C154
  257B    36 30                             LD      M,030H
  257D    20 01                             JR      NZ,$+03
  257F    23                                INC     HL
  2580    CD 276D                           CALL    BC.C156
  2583    2B                                DEC     HL
  2584    7E                                LD      A,M
  2585    FE 30                             CP      030H
  2587    28 FA                             JR      Z,$-04
  2589    FE 2E                             CP      02EH
  258B    28 01                             JR      Z,$+03
  258D    23                                INC     HL
  258E    F1                                POP     AF
  258F    28 1A                             JR      Z,$+28
  2591    36 45                 BC.C150:    LD      M,'E'
  2593    23                                INC     HL
  2594    36 2B                             LD      M,'+'
  2596    F2 259D                           JP      P,BC.J090
  2599    36 2D                             LD      M,'-'
  259B    ED 44                             NEG
  259D    06 2F                 BC.J090:    LD      B,02FH
  259F    04                                INC     B
  25A0    D6 0A                             SUB     00AH
  25A2    30 FB                             JR      NC,$-03
  25A4    C6 3A                             ADD     A,03AH
  25A6    23                                INC     HL
  25A7    70                                LD      M,B
  25A8    23                                INC     HL
  25A9    77                                LD      M,A
  25AA    23                    BC.J091:    INC     HL
  25AB    36 00                             LD      M,000H
  25AD    EB                                EX      DE,HL
  25AE    21 016E                           LD      HL,BC.D035
  25B1    C9                                RET
                                
  25B2    23                    BC.J092:    INC     HL
  25B3    C5                                PUSH    BC
  25B4    E5                                PUSH    HL
  25B5    7A                                LD      A,D
  25B6    1F                                RRA
  25B7    DA 26CE                           JP      C,BC.J097
  25BA    01 B60E                           LD      BC,0B60EH
  25BD    DD 21 1BC9                        LD      IX,BC.D099
  25C1    11 BF04                           LD      DE,0BF04H
  25C4    CD 2336                           CALL    BC.C136
  25C7    FA 25D3                           JP      M,BC.J093
  25CA    E1                                POP     HL
  25CB    C1                                POP     BC
  25CC    CD 24DD                           CALL    BC.C148
  25CF    2B                                DEC     HL
  25D0    36 25                             LD      M,025H
  25D2    C9                                RET
                                
  25D3    16 0B                 BC.J093:    LD      D,00BH
  25D5    CD 22BF                           CALL    BC.C125
  25D8    C4 271F                           CALL    NZ,BC.C152
  25DB    E1                                POP     HL
  25DC    C1                                POP     BC
  25DD    FA 2683                           JP      M,BC.C151
  25E0    C5                                PUSH    BC
  25E1    5F                                LD      E,A
  25E2    78                                LD      A,B
  25E3    92                                SUB     D
  25E4    93                                SUB     E
  25E5    F4 27F9                           CALL    P,BC.C157
  25E8    CD 2801                           CALL    BC.C158
  25EB    CD 276D                           CALL    BC.C156
  25EE    B3                                OR      E
  25EF    C4 281B                           CALL    NZ,BC.C160
  25F2    B3                                OR      E
  25F3    C4 275A                           CALL    NZ,BC.C154
  25F6    D1                                POP     DE
  25F7    7B                                LD      A,E
  25F8    B7                                OR      A
  25F9    20 01                             JR      NZ,$+03
  25FB    2B                                DEC     HL
  25FC    3D                                DEC     A
	MACRO-80 3.44	09-Dec-81	PAGE	1-76


  25FD    F4 27F9                           CALL    P,BC.C157
  2600    E5                    BC.J094:    PUSH    HL
  2601    21 016E                           LD      HL,BC.D035
  2604    46                                LD      B,M
  2605    0E 20                             LD      C,020H
  2607    3A 01AA                           LD      A,(BC.D057)
  260A    5F                                LD      E,A
  260B    E6 20                             AND     020H
  260D    28 07                             JR      Z,$+09
  260F    78                                LD      A,B
  2610    B9                                CP      C
  2611    0E 2A                             LD      C,02AH
  2613    20 01                             JR      NZ,$+03
  2615    41                                LD      B,C
  2616    71                                LD      M,C
  2617    CD 0947                           CALL    BC.C031
  261A    28 10                             JR      Z,$+18
  261C    FE 45                             CP      045H
  261E    28 0C                             JR      Z,$+14
  2620    FE 30                             CP      030H
  2622    28 F2                             JR      Z,$-12
  2624    FE 2C                             CP      02CH
  2626    28 EE                             JR      Z,$-16
  2628    FE 2E                             CP      02EH
  262A    20 03                             JR      NZ,$+05
  262C    2B                                DEC     HL
  262D    36 30                             LD      M,030H
  262F    CB 63                             BIT     4,E
  2631    28 03                             JR      Z,$+05
  2633    2B                                DEC     HL
  2634    36 24                             LD      M,024H
  2636    CB 53                             BIT     2,E
  2638    20 02                             JR      NZ,$+04
  263A    2B                                DEC     HL
  263B    70                                LD      M,B
  263C    E1                                POP     HL
  263D    28 02                             JR      Z,$+04
  263F    70                                LD      M,B
  2640    23                                INC     HL
  2641    36 00                             LD      M,000H
  2643    21 016D                           LD      HL,BC.D034
  2646    23                                INC     HL
  2647    3A 01A8                           LD      A,(BC.D056)
  264A    95                                SUB     L
  264B    92                                SUB     D
  264C    C8                                RET     Z
  264D    7E                                LD      A,M
  264E    FE 20                             CP      020H
  2650    28 F4                             JR      Z,$-10
  2652    FE 2A                             CP      02AH
  2654    28 F0                             JR      Z,$-14
  2656    2B                                DEC     HL
  2657    E5                                PUSH    HL
  2658    F5                                PUSH    AF
  2659    CD 0947                           CALL    BC.C031
  265C    FE 2D                             CP      02DH
  265E    28 F8                             JR      Z,$-06
  2660    FE 2B                             CP      02BH
  2662    28 F4                             JR      Z,$-10
  2664    FE 24                             CP      024H
  2666    28 F0                             JR      Z,$-14
  2668    FE 30                             CP      030H
  266A    20 10                             JR      NZ,$+18
  266C    23                                INC     HL
  266D    CD 0947                           CALL    BC.C031
  2670    30 0A                             JR      NC,$+12
  2672    2B                                DEC     HL
  2673    01 772B                           LD      BC,0772BH
  2676    F1                                POP     AF
  2677    28 FB                             JR      Z,$-03
  2679    C1                                POP     BC
  267A    18 CB                             JR      $-51
  267C    F1                                POP     AF
  267D    28 FD                             JR      Z,$-01
  267F    E1                                POP     HL
  2680    36 25                             LD      M,025H
  2682    C9                                RET
                                
  2683    5F                    BC.C151:    LD      E,A
  2684    79                                LD      A,C
  2685    B7                                OR      A
  2686    28 01                             JR      Z,$+03
  2688    3D                                DEC     A
	MACRO-80 3.44	09-Dec-81	PAGE	1-77


  2689    83                                ADD     A,E
  268A    FA 268E                           JP      M,BC.J095
  268D    AF                                XOR     A
  268E    C5                    BC.J095:    PUSH    BC
  268F    F5                                PUSH    AF
  2690    FC 24B6                           CALL    M,BC.C145
  2693    20 FB                             JR      NZ,$-03
  2695    C1                                POP     BC
  2696    7B                                LD      A,E
  2697    90                                SUB     B
  2698    C1                                POP     BC
  2699    5F                                LD      E,A
  269A    82                                ADD     A,D
  269B    78                                LD      A,B
  269C    FA 26AA                           JP      M,BC.J096
  269F    92                                SUB     D
  26A0    93                                SUB     E
  26A1    F4 27F9                           CALL    P,BC.C157
  26A4    C5                                PUSH    BC
  26A5    CD 2801                           CALL    BC.C158
  26A8    18 11                             JR      $+19
                                
  26AA    CD 27F9               BC.J096:    CALL    BC.C157
  26AD    79                                LD      A,C
  26AE    CD 275D                           CALL    BC.C155
  26B1    4F                                LD      C,A
  26B2    AF                                XOR     A
  26B3    92                                SUB     D
  26B4    93                                SUB     E
  26B5    CD 27F9                           CALL    BC.C157
  26B8    C5                                PUSH    BC
  26B9    47                                LD      B,A
  26BA    4F                                LD      C,A
  26BB    CD 276D                           CALL    BC.C156
  26BE    C1                                POP     BC
  26BF    B1                                OR      C
  26C0    20 03                             JR      NZ,$+05
  26C2    2A 01A8                           LD      HL,(BC.D056)
  26C5    83                                ADD     A,E
  26C6    3D                                DEC     A
  26C7    F4 27F9                           CALL    P,BC.C157
  26CA    50                                LD      D,B
  26CB    C3 2600                           JP      BC.J094
                                
  26CE    CD 22BF               BC.J097:    CALL    BC.C125
  26D1    37                                SCF
  26D2    C4 271F                           CALL    NZ,BC.C152
  26D5    E1                                POP     HL
  26D6    C1                                POP     BC
  26D7    F5                    BC.J098:    PUSH    AF
  26D8    79                                LD      A,C
  26D9    B7                                OR      A
  26DA    F5                                PUSH    AF
  26DB    28 01                             JR      Z,$+03
  26DD    3D                                DEC     A
  26DE    80                                ADD     A,B
  26DF    4F                                LD      C,A
  26E0    7A                                LD      A,D
  26E1    E6 04                             AND     004H
  26E3    FE 01                             CP      001H
  26E5    9F                                SBC     A,A
  26E6    57                                LD      D,A
  26E7    81                                ADD     A,C
  26E8    4F                                LD      C,A
  26E9    D6 0B                             SUB     00BH
  26EB    F5                                PUSH    AF
  26EC    C5                                PUSH    BC
  26ED    FC 24B6               BC.J099:    CALL    M,BC.C145
  26F0    FA 26ED                           JP      M,BC.J099
  26F3    C1                                POP     BC
  26F4    F1                                POP     AF
  26F5    C5                                PUSH    BC
  26F6    F5                                PUSH    AF
  26F7    FA 26FB                           JP      M,BC.J100
  26FA    AF                                XOR     A
  26FB    ED 44                 BC.J100:    NEG
  26FD    80                                ADD     A,B
  26FE    3C                                INC     A
  26FF    82                                ADD     A,D
  2700    47                                LD      B,A
  2701    0E 00                             LD      C,000H
  2703    CD 276D                           CALL    BC.C156
  2706    F1                                POP     AF
	MACRO-80 3.44	09-Dec-81	PAGE	1-78


  2707    F4 2815                           CALL    P,BC.C159
  270A    C1                                POP     BC
  270B    F1                                POP     AF
  270C    20 01                             JR      NZ,$+03
  270E    2B                                DEC     HL
  270F    F1                                POP     AF
  2710    38 04                             JR      C,$+06
  2712    C6 0B                             ADD     A,00BH
  2714    90                                SUB     B
  2715    92                                SUB     D
  2716    C5                                PUSH    BC
  2717    CD 2591                           CALL    BC.C150
  271A    EB                                EX      DE,HL
  271B    D1                                POP     DE
  271C    C3 2600                           JP      BC.J094
                                
  271F    D5                    BC.C152:    PUSH    DE
  2720    AF                                XOR     A
  2721    F5                                PUSH    AF
  2722    CD 2748                           CALL    BC.C153
  2725    01 A215               BC.J101:    LD      BC,0A215H
  2728    DD 21 02F8                        LD      IX,BC.D065
  272C    11 FFFD                           LD      DE,0FFFDH
  272F    CD 2336                           CALL    BC.C136
  2732    F2 2745                           JP      P,BC.J103
  2735    F1                                POP     AF
  2736    CD 24AF                           CALL    BC.C144
  2739    F5                                PUSH    AF
  273A    C3 2725                           JP      BC.J101
                                
  273D    F1                    BC.J102:    POP     AF
  273E    CD 24B6                           CALL    BC.C145
  2741    F5                                PUSH    AF
  2742    CD 2748                           CALL    BC.C153
  2745    F1                    BC.J103:    POP     AF
  2746    D1                                POP     DE
  2747    C9                                RET
                                
  2748    01 A53A               BC.C153:    LD      BC,0A53AH
  274B    DD 21 43B7                        LD      IX,043B7H
  274F    11 3FFC                           LD      DE,03FFCH
  2752    CD 2336                           CALL    BC.C136
  2755    E1                                POP     HL
  2756    F2 273D                           JP      P,BC.J102
  2759    E9                                JP      (HL)
                                
  275A    05                    BC.C154:    DEC     B
  275B    20 08                             JR      NZ,$+10
  275D    36 2E                 BC.C155:    LD      M,02EH
  275F    22 01A8                           LD      (BC.D056),HL
  2762    23                                INC     HL
  2763    48                                LD      C,B
  2764    C9                                RET
  2765    0D                                DEC     C
  2766    C0                                RET     NZ
  2767    36 2C                             LD      M,02CH
  2769    23                                INC     HL
  276A    0E 03                             LD      C,003H
  276C    C9                                RET
                                
  276D    D5                    BC.C156:    PUSH    DE
  276E    C5                                PUSH    BC
  276F    E5                                PUSH    HL
  2770    CD 1F80                           CALL    BC.C105
  2773    3C                                INC     A
  2774    CD 2375                           CALL    BC.C139
  2777    CD 22F5                           CALL    BC.C130
  277A    E1                                POP     HL
  277B    C1                                POP     BC
  277C    11 27C2                           LD      DE,BC.D112
  277F    3E 0B                             LD      A,00BH
  2781    CD 275A                           CALL    BC.C154
  2784    C5                                PUSH    BC
  2785    F5                                PUSH    AF
  2786    E5                                PUSH    HL
  2787    D5                                PUSH    DE
  2788    CD 2302                           CALL    BC.C131
  278B    E1                                POP     HL
  278C    06 2F                             LD      B,02FH
  278E    04                                INC     B
  278F    7B                                LD      A,E
  2790    96                                SUB     M
  2791    5F                                LD      E,A
	MACRO-80 3.44	09-Dec-81	PAGE	1-79


  2792    23                                INC     HL
  2793    7A                                LD      A,D
  2794    9E                                SBC     A,M
  2795    57                                LD      D,A
  2796    23                                INC     HL
  2797    DD 7D                             DB      0DDH,07DH           ; LD   A,IXL 
  2799    9E                                SBC     A,(HL)
  279A    DD 6F                             DB      0DDH,06FH           ; LD   IXL,A
  279C    23                                INC     HL
  279D    DD 7C                             DB      0DDH,07CH           ; LD   A,IXH
  279F    9E                                SBC     A,(HL)
  27A0    DD 67                             DB      0DDH,067H           ; LD   IXH,A
  27A2    23                                INC     HL
  27A3    79                                LD      A,C
  27A4    9E                                SBC     A,M
  27A5    4F                                LD      C,A
  27A6    2B                                DEC     HL
  27A7    2B                                DEC     HL
  27A8    2B                                DEC     HL
  27A9    2B                                DEC     HL
  27AA    30 E2                             JR      NC,$-28
  27AC    CD 205A                           CALL    BC.C114
  27AF    23                                INC     HL
  27B0    CD 22F5                           CALL    BC.C130
  27B3    EB                                EX      DE,HL
  27B4    E1                                POP     HL
  27B5    70                                LD      M,B
  27B6    23                                INC     HL
  27B7    F1                                POP     AF
  27B8    C1                                POP     BC
  27B9    3D                                DEC     A
  27BA    20 C5                             JR      NZ,$-57
  27BC    CD 275A                           CALL    BC.C154
  27BF    77                                LD      M,A
  27C0    D1                                POP     DE
  27C1    C9                                RET
                                
  27C2    E400                  BC.D112:    DW      0E400H
  27C4    540B                              DW      0540BH
  27C6    0002                              DW      00002H
                                
  27C8    9ACA                              DW      09ACAH
  27CA    003B                              DW      0003BH
  27CC    E100                              DW      0E100H
                                
  27CE    05F5                              DW      005F5H
  27D0    8000                              DW      08000H
  27D2    9896                              DW      09896H
                                
  27D4    0000                              DW      00000H
  27D6    4240                              DW      04240H
  27D8    000F                              DW      0000FH
                                
  27DA    A000                              DW      0A000H
  27DC    0186                              DW      00186H
  27DE    0000                              DW      00000H
                                
  27E0    2710                              DW      02710H
  27E2    0000                              DW      00000H
  27E4    E800                              DW      0E800H
                                
  27E6    0003                              DW      00003H
  27E8    0000                              DW      00000H
  27EA    0064                              DW      00064H
                                
  27EC    0000                              DW      00000H
  27EE    0A00                              DW      00A00H
  27F0    0000                              DW      00000H
                                
  27F2    0000                              DW      00000H
  27F4    0001                              DW      00001H
  27F6    0000                              DW      00000H
                                
  27F8    00                                DB      0
                                
  27F9    B7                    BC.C157:    OR      A
  27FA    C8                                RET     Z
  27FB    3D                                DEC     A
  27FC    36 30                             LD      M,030H
  27FE    23                                INC     HL
  27FF    18 F8                             JR      $-06
                                
  2801    7B                    BC.C158:    LD      A,E
	MACRO-80 3.44	09-Dec-81	PAGE	1-80


  2802    82                                ADD     A,D
  2803    3C                                INC     A
  2804    47                                LD      B,A
  2805    3C                                INC     A
  2806    D6 03                             SUB     003H
  2808    30 FC                             JR      NC,$-02
  280A    C6 05                             ADD     A,005H
  280C    4F                                LD      C,A
  280D    3A 01AA                           LD      A,(BC.D057)
  2810    E6 40                             AND     040H
  2812    C0                                RET     NZ
  2813    4F                                LD      C,A
  2814    C9                                RET
                                
  2815    20 04                 BC.C159:    JR      NZ,$+06
  2817    C8                                RET     Z
  2818    CD 275A                           CALL    BC.C154
  281B    36 30                 BC.C160:    LD      M,030H
  281D    23                                INC     HL
  281E    3D                                DEC     A
  281F    18 F6                             JR      $-08
                                
  2821    CD 0947               BC.J104:    CALL    BC.C031
  2824    30 1E                             JR      NC,$+32
  2826    CD 0985                           CALL    BC.C034
  2829    E5                                PUSH    HL
  282A    CD 0592                           CALL    BC.C009
  282D    D2 0AE1                           JP      NC,BC.J035
  2830    60                                LD      H,B
  2831    69                                LD      L,C
  2832    23                                INC     HL
  2833    23                                INC     HL
  2834    23                                INC     HL
  2835    CD 0947                           CALL    BC.C031
  2838    D6 9C                             SUB     09CH
  283A    C2 0A44                           JP      NZ,BC.J033
  283D    47                                LD      B,A
  283E    CD 13F0                           CALL    BC.C072
  2841    E1                                POP     HL
  2842    18 03                             JR      $+05
  2844    CD 0E95                           CALL    BC.C055
  2847    CD 0948                           CALL    BC.C032
  284A    37                                SCF
  284B    28 0C                             JR      Z,$+14
  284D    FE 2C                             CP      02CH
  284F    28 05                             JR      Z,$+07
  2851    FE 3B                             CP      03BH
  2853    C2 046D                           JP      NZ,BC.J004
  2856    CD 0947                           CALL    BC.C031
  2859    EB                                EX      DE,HL
  285A    2A 0166                           LD      HL,(BC.D029)
  285D    01                                DB      1
  285E    D1                    BC.J105:    POP     DE
  285F    EB                                EX      DE,HL
  2860    E5                                PUSH    HL
  2861    F5                                PUSH    AF
  2862    D5                                PUSH    DE
  2863    46                                LD      B,M
  2864    B0                                OR      B
  2865    CA 0A44                           JP      Z,BC.J033
  2868    23                                INC     HL
  2869    23                                INC     HL
  286A    4E                                LD      C,M
  286B    23                                INC     HL
  286C    66                                LD      H,M
  286D    69                                LD      L,C
  286E    C3 2877                           JP      BC.J107
                                
  2871    CD 29F9               BC.J106:    CALL    BC.C162
  2874    CD 0772                           CALL    BC.C026
  2877    AF                    BC.J107:    XOR     A
  2878    5F                                LD      E,A
  2879    57                                LD      D,A
  287A    CD 29F9                           CALL    BC.C162
  287D    57                                LD      D,A
  287E    7E                                LD      A,M
  287F    23                                INC     HL
  2880    FE 23                             CP      023H
  2882    CA 28BE                           JP      Z,BC.J108
  2885    FE 27                             CP      027H
  2887    CA 2981                           JP      Z,BC.J112
  288A    05                                DEC     B
  288B    CA 296D                           JP      Z,BC.J111
	MACRO-80 3.44	09-Dec-81	PAGE	1-81


  288E    FE 2B                             CP      02BH
  2890    3E 08                             LD      A,008H
  2892    28 E6                             JR      Z,$-24
  2894    2B                                DEC     HL
  2895    7E                                LD      A,M
  2896    23                                INC     HL
  2897    FE 2E                             CP      02EH
  2899    CA 28D6                           JP      Z,BC.J109
  289C    BE                                CP      M
  289D    20 D2                             JR      NZ,$-44
  289F    FE 24                             CP      024H
  28A1    28 14                             JR      Z,$+22
  28A3    FE 2A                             CP      02AH
  28A5    20 CA                             JR      NZ,$-52
  28A7    78                                LD      A,B
  28A8    FE 02                             CP      002H
  28AA    23                                INC     HL
  28AB    38 03                             JR      C,$+05
  28AD    7E                                LD      A,M
  28AE    FE 24                             CP      024H
  28B0    3E 20                             LD      A,020H
  28B2    20 07                             JR      NZ,$+09
  28B4    05                                DEC     B
  28B5    1C                                INC     E
  28B6    FE AF                             CP      0AFH
  28B8    C6 10                             ADD     A,010H
  28BA    23                                INC     HL
  28BB    1C                                INC     E
  28BC    82                                ADD     A,D
  28BD    57                                LD      D,A
  28BE    1C                    BC.J108:    INC     E
  28BF    0E 00                             LD      C,000H
  28C1    05                                DEC     B
  28C2    28 46                             JR      Z,$+72
  28C4    7E                                LD      A,M
  28C5    23                                INC     HL
  28C6    FE 2E                             CP      02EH
  28C8    28 17                             JR      Z,$+25
  28CA    FE 23                             CP      023H
  28CC    28 F0                             JR      Z,$-14
  28CE    FE 2C                             CP      02CH
  28D0    20 19                             JR      NZ,$+27
  28D2    CB F2                             SET     6,D
  28D4    18 E8                             JR      $-22
                                
  28D6    7E                    BC.J109:    LD      A,M
  28D7    FE 23                             CP      023H
  28D9    3E 2E                             LD      A,02EH
  28DB    C2 2871                           JP      NZ,BC.J106
  28DE    0E 01                             LD      C,001H
  28E0    23                                INC     HL
  28E1    0C                                INC     C
  28E2    05                                DEC     B
  28E3    28 25                             JR      Z,$+39
  28E5    7E                                LD      A,M
  28E6    23                                INC     HL
  28E7    FE 23                             CP      023H
  28E9    28 F6                             JR      Z,$-08
  28EB    D5                                PUSH    DE
  28EC    54                                LD      D,H
  28ED    5D                                LD      E,L
  28EE    FE 5E                             CP      05EH
  28F0    20 16                             JR      NZ,$+24
  28F2    BE                                CP      M
  28F3    20 13                             JR      NZ,$+21
  28F5    23                                INC     HL
  28F6    BE                                CP      M
  28F7    20 0F                             JR      NZ,$+17
  28F9    23                                INC     HL
  28FA    BE                                CP      M
  28FB    20 0B                             JR      NZ,$+13
  28FD    23                                INC     HL
  28FE    78                                LD      A,B
  28FF    D6 04                             SUB     004H
  2901    38 05                             JR      C,$+07
  2903    D1                                POP     DE
  2904    47                                LD      B,A
  2905    14                                INC     D
  2906    23                                INC     HL
  2907    CA D1EB                           JP      Z,0D1EBH
  290A    2B                                DEC     HL
  290B    1C                                INC     E
  290C    CB 5A                             BIT     3,D
	MACRO-80 3.44	09-Dec-81	PAGE	1-82


  290E    20 13                             JR      NZ,$+21
  2910    1D                                DEC     E
  2911    78                                LD      A,B
  2912    B7                                OR      A
  2913    28 0E                             JR      Z,$+16
  2915    7E                                LD      A,M
  2916    D6 2D                             SUB     02DH
  2918    28 06                             JR      Z,$+08
  291A    FE FE                             CP      0FEH
  291C    20 05                             JR      NZ,$+07
  291E    CB DA                             SET     3,D
  2920    CB D2                             SET     2,D
  2922    05                                DEC     B
  2923    E1                                POP     HL
  2924    F1                                POP     AF
  2925    28 51                             JR      Z,$+83
  2927    C5                                PUSH    BC
  2928    D5                                PUSH    DE
  2929    CD 0E9A                           CALL    BC.C056
  292C    D1                                POP     DE
  292D    C1                                POP     BC
  292E    C5                                PUSH    BC
  292F    E5                                PUSH    HL
  2930    43                                LD      B,E
  2931    78                                LD      A,B
  2932    81                                ADD     A,C
  2933    FE 19                             CP      019H
  2935    D2 0A44                           JP      NC,BC.J033
  2938    7A                                LD      A,D
  2939    F6 80                             OR      080H
  293B    CD 24DE                           CALL    BC.C149
  293E    CD 1431                           CALL    BC.C075
  2941    E1                    BC.J110:    POP     HL
  2942    CD 0948                           CALL    BC.C032
  2945    37                                SCF
  2946    28 0C                             JR      Z,$+14
  2948    FE 3B                             CP      03BH
  294A    28 05                             JR      Z,$+07
  294C    FE 2C                             CP      02CH
  294E    C2 046D                           JP      NZ,BC.J004
  2951    CD 0947                           CALL    BC.C031
  2954    C1                                POP     BC
  2955    EB                                EX      DE,HL
  2956    E1                                POP     HL
  2957    E5                                PUSH    HL
  2958    F5                                PUSH    AF
  2959    D5                                PUSH    DE
  295A    7E                                LD      A,M
  295B    90                                SUB     B
  295C    23                    BC.D113:    INC     HL
  295D    23                                INC     HL
  295E    4E                                LD      C,M
  295F    23                                INC     HL
  2960    66                                LD      H,M
  2961    69                                LD      L,C
  2962    16 00                             LD      D,000H
  2964    5F                                LD      E,A
  2965    19                                ADD     HL,DE
  2966    78                                LD      A,B
  2967    B7                                OR      A
  2968    C2 2877                           JP      NZ,BC.J107
  296B    18 06                             JR      $+08
                                
  296D    CD 29F9               BC.J111:    CALL    BC.C162
  2970    CD 0772                           CALL    BC.C026
  2973    E1                                POP     HL
  2974    F1                                POP     AF
  2975    C2 285E                           JP      NZ,BC.J105
  2978    DC 0CEE                           CALL    C,BC.C048
  297B    E3                                EX      (SP),HL
  297C    CD 1566                           CALL    BC.C084
  297F    E1                                POP     HL
  2980    C9                                RET
                                
  2981    0E 01                 BC.J112:    LD      C,001H
  2983    1E 4C                             LD      E,04CH
  2985    05                                DEC     B
  2986    28 1C                             JR      Z,$+30
  2988    7E                                LD      A,M
  2989    23                                INC     HL
  298A    FE 45                             CP      045H
  298C    28 0C                             JR      Z,$+14
  298E    FE 52                             CP      052H
	MACRO-80 3.44	09-Dec-81	PAGE	1-83


  2990    28 08                             JR      Z,$+10
  2992    FE 4C                             CP      04CH
  2994    28 04                             JR      Z,$+06
  2996    FE 43                             CP      043H
  2998    20 0A                             JR      NZ,$+12
  299A    5F                                LD      E,A
  299B    0C                                INC     C
  299C    05                                DEC     B
  299D    28 05                             JR      Z,$+07
  299F    7E                                LD      A,M
  29A0    23                                INC     HL
  29A1    BB                                CP      E
  29A2    28 F7                             JR      Z,$-07
  29A4    CD 29F9                           CALL    BC.C162
  29A7    E1                                POP     HL
  29A8    F1                                POP     AF
  29A9    28 CD                             JR      Z,$-49
  29AB    C5                                PUSH    BC
  29AC    D5                                PUSH    DE
  29AD    CD 0E95                           CALL    BC.C055
  29B0    D1                                POP     DE
  29B1    C1                                POP     BC
  29B2    C5                                PUSH    BC
  29B3    E5                                PUSH    HL
  29B4    2A 0166                           LD      HL,(BC.D029)
  29B7    41                                LD      B,C
  29B8    0E 00                             LD      C,000H
  29BA    7B                                LD      A,E
  29BB    FE 45                             CP      045H
  29BD    28 2B                             JR      Z,$+45
  29BF    D5                                PUSH    DE
  29C0    C5                                PUSH    BC
  29C1    CD 15CD                           CALL    BC.LFTD
  29C4    C1                                POP     BC
  29C5    D1                                POP     DE
  29C6    78                                LD      A,B
  29C7    96                                SUB     M
  29C8    47                                LD      B,A
  29C9    7B                                LD      A,E
  29CA    FE 4C                             CP      04CH
  29CC    28 0E                             JR      Z,$+16
  29CE    FE 52                             CP      052H
  29D0    28 15                             JR      Z,$+23
  29D2    78                                LD      A,B
  29D3    CB 38                             SRL     B
  29D5    90                                SUB     B
  29D6    08                                EX      AF,AF'              ;'
  29D7    CD 29F1                           CALL    BC.C161
  29DA    08                                EX      AF,AF'              ;'
  29DB    47                                LD      B,A
  29DC    C5                                PUSH    BC
  29DD    CD 1434                           CALL    BC.C076
  29E0    C1                                POP     BC
  29E1    CD 29F1                           CALL    BC.C161
  29E4    C3 2941                           JP      BC.J110
                                
  29E7    AF                                XOR     A
  29E8    18 EC                             JR      $-18
  29EA    78                                LD      A,B
  29EB    96                                SUB     M
  29EC    30 ED                             JR      NC,$-17
  29EE    AF                                XOR     A
  29EF    18 EA                             JR      $-20
                                
  29F1    04                    BC.C161:    INC     B
  29F2    05                                DEC     B
  29F3    C8                                RET     Z
  29F4    CD 0764                           CALL    BC.C023
  29F7    18 F9                             JR      $-05
                                
  29F9    F5                    BC.C162:    PUSH    AF
  29FA    7A                                LD      A,D
  29FB    B7                                OR      A
  29FC    3E 2B                             LD      A,02BH
  29FE    C4 0772                           CALL    NZ,BC.C026
  2A01    F1                                POP     AF
  2A02    C9                                RET
                                
  2A03    21 22D2               BC.C163:    LD      HL,BC.D108
  2A06    E3                                EX      (SP),HL
  2A07    E9                                JP      (HL)
                                
  2A08    0000                  BC.D114:    DW      00000H
	MACRO-80 3.44	09-Dec-81	PAGE	1-84


  2A0A    0000                              DW      00000H
  2A0C    8000                              DW      08000H
                                
  2A0E    CD 22DA               BC.SQR:     CALL    BC.C127             ;TOKEN:  S Q R
  2A11    21 2A08                           LD      HL,BC.D114
  2A14    CD 22EC                           CALL    BC.C129
  2A17    C1                                POP     BC
  2A18    DD E1                             POP     IX
  2A1A    D1                                POP     DE
  2A1B    CD 22BF                           CALL    BC.C125
  2A1E    28 44                             JR      Z,$+70
  2A20    78                                LD      A,B
  2A21    B7                                OR      A
  2A22    CA 200F                           JP      Z,BC.J072
  2A25    D5                                PUSH    DE
  2A26    DD E5                             PUSH    IX
  2A28    C5                                PUSH    BC
  2A29    79                                LD      A,C
  2A2A    F6 7F                             OR      07FH
  2A2C    CD 2302                           CALL    BC.C131
  2A2F    F2 2A44                           JP      P,BC.J113
  2A32    D5                                PUSH    DE
  2A33    DD E5                             PUSH    IX
  2A35    C5                                PUSH    BC
  2A36    CD 23AD                           CALL    BC.INT
  2A39    C1                                POP     BC
  2A3A    DD E1                             POP     IX
  2A3C    D1                                POP     DE
  2A3D    F5                                PUSH    AF
  2A3E    CD 2336                           CALL    BC.C136
  2A41    E1                                POP     HL
  2A42    7C                                LD      A,H
  2A43    1F                                RRA
  2A44    E1                    BC.J113:    POP     HL
  2A45    22 016A                           LD      (BC.D031),HL
  2A48    E1                                POP     HL
  2A49    22 0168                           LD      (BC.D030),HL
  2A4C    E1                                POP     HL
  2A4D    22 0166                           LD      (BC.D029),HL
  2A50    DC 2A03                           CALL    C,BC.C163
  2A53    CC 22D2                           CALL    Z,BC.C126
  2A56    D5                                PUSH    DE
  2A57    DD E5                             PUSH    IX
  2A59    C5                                PUSH    BC
  2A5A    CD 20EB                           CALL    BC.LOG
  2A5D    C1                                POP     BC
  2A5E    DD E1                             POP     IX
  2A60    D1                                POP     DE
  2A61    CD 213F                           CALL    BC.C118
  2A64    01 8138               BC.EXP:     LD      BC,08138H           ;TOKEN:  E X P
  2A67    DD 21 AA3B                        LD      IX,0AA3BH
  2A6B    11 295C                           LD      DE,BC.D113
  2A6E    CD 213F                           CALL    BC.C118
  2A71    3A 016B                           LD      A,(BC.D032)
  2A74    FE 88                             CP      088H
  2A76    D2 2280                           JP      NC,BC.J079
  2A79    CD 22DA                           CALL    BC.C127
  2A7C    CD 23AD                           CALL    BC.INT
  2A7F    C1                                POP     BC
  2A80    DD E1                             POP     IX
  2A82    D1                                POP     DE
  2A83    F5                                PUSH    AF
  2A84    CD 1F91                           CALL    BC.C108
  2A87    21 2A9E                           LD      HL,BC.D115
  2A8A    CD 2AEA                           CALL    BC.C165
  2A8D    21 016B                           LD      HL,BC.D032
  2A90    F1                                POP     AF
  2A91    B7                                OR      A
  2A92    FA 2A97                           JP      M,BC.J114
  2A95    86                                ADD     A,M
  2A96    01                                DB      1
  2A97    86                    BC.J114:    ADD     A,(HL)
  2A98    3F                                CCF
  2A99    77                                LD      M,A
  2A9A    D0                                RET     NC
  2A9B    C3 2280                           JP      BC.J079
                                
                                
  2A9E    0A                    BC.D115:    DB      10
                                
  2A9F    D5CC                              DW      0D5CCH
  2AA1    5645                              DW      05645H
  2AA3    6A15                              DW      06A15H
	MACRO-80 3.44	09-Dec-81	PAGE	1-85


                                
  2AA5    37CF                              DW      037CFH
  2AA7    92A0                              DW      092A0H
  2AA9    6D27                              DW      06D27H
                                
  2AAB    95F5                              DW      095F5H
  2AAD    93EE                              DW      093EEH
  2AAF    7100                              DW      07100H
                                
  2AB1    FCD0                              DW      0FCD0H
  2AB3    78A7                              DW      078A7H
  2AB5    7421                              DW      07421H
                                
  2AB7    21B1                              DW      021B1H
  2AB9    C482                              DW      0C482H
  2ABB    772E                              DW      0772EH
                                
  2ABD    5882                              DW      05882H
  2ABF    9558                              DW      09558H
  2AC1    7A1D                              DW      07A1DH
                                
  2AC3    CB6D                              DW      0CB6DH
  2AC5    5846                              DW      05846H
  2AC7    7C63                              DW      07C63H
                                
  2AC9    FBE9                              DW      0FBE9H
  2ACB    FDEF                              DW      0FDEFH
  2ACD    7E75                              DW      07E75H
                                
  2ACF    F7D2                              DW      0F7D2H
  2AD1    7217                              DW      07217H
  2AD3    8031                              DW      08031H
                                
  2AD5    0000                              DW      00000H
  2AD7    0000                              DW      00000H
  2AD9    8100                              DW      08100H
                                
                                
  2ADB    CD 22DA               BC.C164:    CALL    BC.C127
  2ADE    11 213B                           LD      DE,BC.D106
  2AE1    D5                                PUSH    DE
  2AE2    E5                                PUSH    HL
  2AE3    CD 2302                           CALL    BC.C131
  2AE6    CD 213F                           CALL    BC.C118
  2AE9    E1                                POP     HL
  2AEA    CD 22DA               BC.C165:    CALL    BC.C127
  2AED    7E                                LD      A,M
  2AEE    23                                INC     HL
  2AEF    CD 22EC                           CALL    BC.C129
  2AF2    FE F1                             CP      0F1H
  2AF4    C1                                POP     BC
  2AF5    DD E1                             POP     IX
  2AF7    D1                                POP     DE
  2AF8    3D                                DEC     A
  2AF9    C8                                RET     Z
  2AFA    D5                                PUSH    DE
  2AFB    DD E5                             PUSH    IX
  2AFD    C5                                PUSH    BC
  2AFE    F5                                PUSH    AF
  2AFF    E5                                PUSH    HL
  2B00    CD 213F                           CALL    BC.C118
  2B03    E1                                POP     HL
  2B04    CD 2305                           CALL    BC.C132
  2B07    E5                                PUSH    HL
  2B08    CD 1F94                           CALL    BC.C109
  2B0B    E1                                POP     HL
  2B0C    18 E5                             JR      $-25
                                
  2B0E    CD 22BF               BC.RND:     CALL    BC.C125             ;TOKEN:  R N D
  2B11    FA 2B35                           JP      M,BC.J115
  2B14    21 0187                           LD      HL,BC.D036
  2B17    CD 22EC                           CALL    BC.C129
  2B1A    C8                                RET     Z
  2B1B    01 9835                           LD      BC,09835H
  2B1E    DD 21 447A                        LD      IX,0447AH
  2B22    11 0000                           LD      DE,00000H
  2B25    CD 213F                           CALL    BC.C118
  2B28    01 6828                           LD      BC,06828H
  2B2B    DD 21 B146                        LD      IX,0B146H
  2B2F    11 0000                           LD      DE,00000H
  2B32    CD 1F94                           CALL    BC.C109
  2B35    CD 2302               BC.J115:    CALL    BC.C131
  2B38    7B                                LD      A,E
	MACRO-80 3.44	09-Dec-81	PAGE	1-86


  2B39    59                                LD      E,C
  2B3A    4F                                LD      C,A
  2B3B    36 80                             LD      M,080H
  2B3D    2B                                DEC     HL
  2B3E    46                                LD      B,M
  2B3F    36 80                             LD      M,080H
  2B41    CD 1FF3                           CALL    BC.C111
  2B44    21 0187                           LD      HL,BC.D036
  2B47    C3 2316                           JP      BC.C133
                                
  2B4A                          BC.D116     EQU     $
  2B4A    21 2B9C               BC.COS:     LD      HL,BC.D117          ;TOKEN:  C O S
  2B4D    CD 1F83                           CALL    BC.C106
  2B50    CD 22DA               BC.SIN:     CALL    BC.C127             ;TOKEN:  S I N
  2B53    01 8349                           LD      BC,08349H
  2B56    DD 21 0FDA                        LD      IX,BC.D083
  2B5A    11 A221                           LD      DE,0A221H
  2B5D    CD 22F5                           CALL    BC.C130
  2B60    C1                                POP     BC
  2B61    DD E1                             POP     IX
  2B63    D1                                POP     DE
  2B64    CD 21C3                           CALL    BC.C120
  2B67    CD 22DA                           CALL    BC.C127
  2B6A    CD 23AD                           CALL    BC.INT
  2B6D    C1                                POP     BC
  2B6E    DD E1                             POP     IX
  2B70    D1                                POP     DE
  2B71    CD 1F91                           CALL    BC.C108
  2B74    21 2BA2                           LD      HL,BC.D118
  2B77    CD 1F88                           CALL    BC.C107
  2B7A    CD 22BF                           CALL    BC.C125
  2B7D    37                                SCF
  2B7E    F2 2B88                           JP      P,BC.J116
  2B81    CD 1F80                           CALL    BC.C105
  2B84    CD 22BF                           CALL    BC.C125
  2B87    B7                                OR      A
  2B88    F5                    BC.J116:    PUSH    AF
  2B89    F4 22D2                           CALL    P,BC.C126
  2B8C    21 2BA2                           LD      HL,BC.D118
  2B8F    CD 1F83                           CALL    BC.C106
  2B92    F1                                POP     AF
  2B93    D4 22D2                           CALL    NC,BC.C126
  2B96    21 2BA8                           LD      HL,BC.D119
  2B99    C3 2ADB                           JP      BC.C164
                                
                                
  2B9C    A221                  BC.D117:    DW      0A221H
  2B9E    0FDA                              DW      00FDAH
  2BA0    8149                              DW      08149H
                                
  2BA2    0000                  BC.D118:    DW      00000H
  2BA4    0000                              DW      00000H
  2BA6    7F00                              DW      07F00H
                                
                                
                                
  2BA8    07                    BC.D119:    DB      7
                                
                                
  2BA9    BA90                              DW      0BA90H
  2BAB    7634                              DW      07634H
  2BAD    826A                              DW      0826AH
                                
  2BAF    E9E4                              DW      0E9E4H
  2BB1    4BE7                              DW      04BE7H
  2BB3    84F1                              DW      084F1H
                                
  2BB5    4FB1                              DW      04FB1H
  2BB7    3B7F                              DW      03B7FH
  2BB9    8628                              DW      08628H
                                
  2BBB    B631                              DW      0B631H
  2BBD    6964                              DW      06964H
  2BBF    8799                              DW      08799H
                                
  2BC1    36E4                              DW      036E4H
  2BC3    35E3                              DW      035E3H
  2BC5    8723                              DW      08723H
                                
  2BC7    3124                              DW      03124H
  2BC9    5DE7                              DW      05DE7H
  2BCB    86A5                              DW      086A5H
                                
	MACRO-80 3.44	09-Dec-81	PAGE	1-87


  2BCD    A221                              DW      0A221H
  2BCF    0FDA                              DW      00FDAH
  2BD1    8349                              DW      08349H
                                
                                
                                
  2BD3    CD 22DA               BC.TAN:     CALL    BC.C127             ;TOKEN:  T A N
  2BD6    CD 2B50                           CALL    BC.SIN
  2BD9    C1                                POP     BC
  2BDA    DD E1                             POP     IX
  2BDC    D1                                POP     DE
  2BDD    CD 22DB                           CALL    BC.C128
  2BE0    EB                                EX      DE,HL
  2BE1    CD 22F5                           CALL    BC.C130
  2BE4    CD 2B4A                           CALL    BC.COS
  2BE7    C3 21BF                           JP      BC.J077
                                
  2BEA    CD 22BF               BC.ATN:     CALL    BC.C125             ;TOKEN:  A T N
  2BED    FC 2A03                           CALL    M,BC.C163
  2BF0    FC 22D2                           CALL    M,BC.C126
  2BF3    3A 016B                           LD      A,(BC.D032)
  2BF6    FE 81                             CP      081H
  2BF8    38 10                             JR      C,$+18
  2BFA    01 8100                           LD      BC,08100H
  2BFD    DD 21 0000                        LD      IX,00000H
  2C01    51                                LD      D,C
  2C02    59                                LD      E,C
  2C03    CD 21C3                           CALL    BC.C120
  2C06    21 1F88                           LD      HL,BC.D102
  2C09    E5                                PUSH    HL
  2C0A    21 2C14                           LD      HL,BC.D120
  2C0D    CD 2ADB                           CALL    BC.C164
  2C10    21 2B9C                           LD      HL,BC.D117
  2C13    C9                                RET
                                
                                
  2C14    0D                    BC.D120:    DB      13
                                
  2C15    0714                              DW      00714H
  2C17    FEBA                              DW      0FEBAH
  2C19    7562                              DW      07562H
                                
  2C1B    1651                              DW      01651H
  2C1D    D8CE                              DW      0D8CEH
  2C1F    78D6                              DW      078D6H
                                
  2C21    BD4C                              DW      0BD4CH
  2C23    D17D                              DW      0D17DH
  2C25    7A3E                              DW      07A3EH
                                
  2C27    CB01                              DW      0CB01H
  2C29    C423                              DW      0C423H
  2C2B    7BD7                              DW      07BD7H
                                
  2C2D    3ADC                              DW      03ADCH
  2C2F    170A                              DW      0170AH
  2C31    7C34                              DW      07C34H
                                
  2C33    C136                              DW      0C136H
  2C35    81A3                              DW      081A3H
  2C37    7CF7                              DW      07CF7H
                                
  2C39    16EB                              DW      016EBH
  2C3B    AE61                              DW      0AE61H
  2C3D    7D19                              DW      07D19H
                                
  2C3F    785D                              DW      0785DH
  2C41    608F                              DW      0608FH
  2C43    7DB9                              DW      07DB9H
                                
  2C45    44A2                              DW      044A2H
  2C47    7212                              DW      07212H
  2C49    7D63                              DW      07D63H
                                
  2C4B    6216                              DW      06216H
  2C4D    47FB                              DW      047FBH
  2C4F    7E92                              DW      07E92H
                                
  2C51    F0C0                              DW      0F0C0H
  2C53    CCBF                              DW      0CCBFH
  2C55    7E4C                              DW      07E4CH
                                
  2C57    8E7E                              DW      08E7EH
	MACRO-80 3.44	09-Dec-81	PAGE	1-88


  2C59    AAAA                              DW      0AAAAH
  2C5B    7FAA                              DW      07FAAH
                                
  2C5D    FFF6                              DW      0FFF6H
  2C5F    FFFF                              DW      0FFFFH
  2C61    807F                              DW      0807FH
                                
                                            PAGE
	MACRO-80 3.44	09-Dec-81	PAGE	1-89


                                
  2C63    45 4E                 BC.D121:    DB      'EN'                ;"END"
  2C65    C4                                DB      44H+80H
  2C66    46 4F                             DB      'FO'                ;"FOR"
  2C68    D2                                DB      52H+80H
  2C69    4E 45 58                          DB      'NEX'               ;"NEXT"
  2C6C    D4                                DB      54H+80H
  2C6D    44 41 54                          DB      'DAT'               ;"DATA"
  2C70    C1                                DB      41H+80H
  2C71    49 4E 50 55                       DB      'INPU'              ;"INPUT"
  2C75    D4                                DB      54H+80H
  2C76    44 49                             DB      'DI'                ;"DIM"
  2C78    CD                                DB      4DH+80H
  2C79    52 45 41                          DB      'REA'               ;"READ"
  2C7C    C4                                DB      44H+80H
  2C7D    4C 45                             DB      'LE'                ;"LET"
  2C7F    D4                                DB      54H+80H
  2C80    47 4F 20 54                       DB      'GO T'              ;"GO TO"
  2C84    CF                                DB      4FH+80H
  2C85    46 4E 45 4E                       DB      'FNEN'              ;"FNEND"
  2C89    C4                                DB      44H+80H
  2C8A    49                                DB      'I'                 ;"IF"
  2C8B    C6                                DB      46H+80H
  2C8C    52 45 53 54                       DB      'RESTOR'            ;"RESTORE"
  2C90    4F 52                 
  2C92    C5                                DB      45H+80H
  2C93    47 4F 20 53                       DB      'GO SU'             ;"GO SUB"
  2C97    55                    
  2C98    C2                                DB      42H+80H
  2C99    52 45 54 55                       DB      'RETUR'             ;"RETURN"
  2C9D    52                    
  2C9E    CE                                DB      4EH+80H
  2C9F    52 45                             DB      'RE'                ;"REM"
  2CA1    CD                                DB      4DH+80H
  2CA2    53 54 4F                          DB      'STO'               ;"STOP"
  2CA5    D0                                DB      50H+80H
  2CA6    4F 55                             DB      'OU'                ;"OUT"
  2CA8    D4                                DB      54H+80H
  2CA9    4F                                DB      'O'                 ;"ON"
  2CAA    CE                                DB      4EH+80H
  2CAB    4E 55 4C                          DB      'NUL'               ;"NULL"
  2CAE    CC                                DB      4CH+80H
  2CAF    57 41 49                          DB      'WAI'               ;"WAIT"
  2CB2    D4                                DB      54H+80H
  2CB3    44 45                             DB      'DE'                ;"DEF"
  2CB5    C6                                DB      46H+80H
  2CB6    50 4F 4B                          DB      'POK'               ;"POKE"
  2CB9    C5                                DB      45H+80H
  2CBA    50 52 49 4E                       DB      'PRIN'              ;"PRINT"
  2CBE    D4                                DB      54H+80H
  2CBF    BF                                DB      3FH+80H             ;"?"
  2CC0    4C 49 53 54           BC.GRF2:    DB      'LISTE'             ;"LISTEN"
  2CC4    45                    
  2CC5    CE                                DB      4EH+80H
  2CC6    43 4C 45 41                       DB      'CLEA'              ;"CLEAR"
  2CCA    D2                                DB      52H+80H
  2CCB    46 4E 52 45                       DB      'FNRETUR'           ;"FNRETURN"
  2CCF    54 55 52              
  2CD2    CE                                DB      4EH+80H
  2CD3    53 41 56                          DB      'SAV'               ;"SAVE"
  2CD6    C5                                DB      45H+80H
  2CD7    A1                                DB      21H+80H             ;"!"
  2CD8    55 53 49 4E                       DB      'USIN'              ;"USING"
  2CDC    C7                                DB      47H+80H
  2CDD    54 41 42                          DB      'TAB'               ;"TAB("
  2CE0    A8                                DB      28H+80H
  2CE1    54                                DB      'T'                 ;"TO"
  2CE2    CF                                DB      4FH+80H
  2CE3    46                                DB      'F'                 ;"FN"
  2CE4    CE                                DB      4EH+80H
  2CE5    53 50 43                          DB      'SPC'               ;"SPC("
  2CE8    A8                                DB      28H+80H
  2CE9    54 48 45                          DB      'THE'               ;"THEN"
  2CEC    CE                                DB      4EH+80H
  2CED    4E 4F                             DB      'NO'                ;"NOT"
  2CEF    D4                                DB      54H+80H
  2CF0    53 54 45                          DB      'STE'               ;"STEP"
  2CF3    D0                                DB      50H+80H
  2CF4    AB                                DB      2BH+80H             ;"+"
  2CF5    AD                                DB      2DH+80H             ;"-"
  2CF6    AA                                DB      2AH+80H             ;"*"
  2CF7    AF                                DB      2FH+80H             ;"/"
	MACRO-80 3.44	09-Dec-81	PAGE	1-90


  2CF8    DE                                DB      5EH+80H             ;" "
  2CF9    41 4E                             DB      'AN'                ;"AND"
  2CFB    C4                                DB      44H+80H
  2CFC    4F                                DB      'O'                 ;"OR"
  2CFD    D2                                DB      52H+80H
  2CFE    BE                                DB      3EH+80H             ;">"
  2CFF    BD                                DB      3DH+80H             ;"="
  2D00    BC                                DB      3CH+80H             ;"<"
  2D01    53 47                             DB      'SG'                ;"SGN"
  2D03    CE                                DB      4EH+80H
  2D04    49 4E                             DB      'IN'                ;"INT"
  2D06    D4                                DB      54H+80H
  2D07    41 42                             DB      'AB'                ;"ABS"
  2D09    D3                                DB      53H+80H
  2D0A    55 53                             DB      'US'                ;"USR"
  2D0C    D2                                DB      52H+80H
  2D0D    46 52                             DB      'FR'                ;"FRE"
  2D0F    C5                                DB      45H+80H
  2D10    49 4E                             DB      'IN'                ;"INP"
  2D12    D0                                DB      50H+80H
  2D13    50 4F                             DB      'PO'                ;"POS"
  2D15    D3                                DB      53H+80H
  2D16    53 51                             DB      'SQ'                ;"SQR"
  2D18    D2                                DB      52H+80H
  2D19    52 4E                             DB      'RN'                ;"RND"
  2D1B    C4                                DB      44H+80H
  2D1C    4C 4F                             DB      'LO'                ;"LOG"
  2D1E    C7                                DB      47H+80H
  2D1F    45 58                             DB      'EX'                ;"EXP"
  2D21    D0                                DB      50H+80H
  2D22    43 4F                             DB      'CO'                ;"COS"
  2D24    D3                                DB      53H+80H
  2D25    53 49                             DB      'SI'                ;"SIN"
  2D27    CE                                DB      4EH+80H
  2D28    54 41                             DB      'TA'                ;"TAN"
  2D2A    CE                                DB      4EH+80H
  2D2B    41 54                             DB      'AT'                ;"ATN"
  2D2D    CE                                DB      4EH+80H
  2D2E    50 45 45                          DB      'PEE'               ;"PEEK"
  2D31    CB                                DB      4BH+80H
  2D32    4C 45                             DB      'LE'                ;"LEN"
  2D34    CE                                DB      4EH+80H
  2D35    53 54 52                          DB      'STR'               ;"STR$"
  2D38    A4                                DB      24H+80H
  2D39    56 41                             DB      'VA'                ;"VAL"
  2D3B    CC                                DB      4CH+80H
  2D3C    41 53                             DB      'AS'                ;"ASC"
  2D3E    C3                                DB      43H+80H
  2D3F    43 48 52                          DB      'CHR'               ;"CHR$"
  2D42    A4                                DB      24H+80H
  2D43    4C 45 46 54                       DB      'LEFT'              ;"LEFT$"
  2D47    A4                                DB      24H+80H
  2D48    52 49 47 48                       DB      'RIGHT'             ;"RIGHT$"
  2D4C    54                    
  2D4D    A4                                DB      24H+80H
  2D4E    4D 49 44                          DB      'MID'               ;"MID$"
  2D51    A4                                DB      24H+80H
  2D52    4C 50 4F                          DB      'LPO'               ;"LPOS"
  2D55    D3                                DB      53H+80H
  2D56    49 4E 53 54                       DB      'INST'              ;"INSTR"
  2D5A    D2                                DB      52H+80H
  2D5B    45 4C 53                          DB      'ELS'               ;"ELSE"
  2D5E    C5                                DB      45H+80H
  2D5F    4C 50 52 49                       DB      'LPRIN'             ;"LPRINT"
  2D63    4E                    
  2D64    D4                                DB      54H+80H
  2D65    54 52 41 43                       DB      'TRAC'              ;"TRACE"
  2D69    C5                                DB      45H+80H
  2D6A    4C 54 52 41                       DB      'LTRAC'             ;"LTRACE"
  2D6E    43                    
  2D6F    C5                                DB      45H+80H
  2D70    52 41 4E 44                       DB      'RANDOMIZ'          ;"RANDOMIZE"
  2D74    4F 4D 49 5A           
  2D78    C5                                DB      45H+80H
  2D79    53 57 49 54                       DB      'SWITC'             ;"SWITCH"
  2D7D    43                    
  2D7E    C8                                DB      48H+80H
  2D7F    4C 57 49 44                       DB      'LWIDT'             ;"LWIDTH"
  2D83    54                    
  2D84    C8                                DB      48H+80H
  2D85    4C 4E 55 4C                       DB      'LNUL'              ;"LNULL"
  2D89    CC                                DB      4CH+80H
  2D8A    57 49 44 54                       DB      'WIDT'              ;"WIDTH"
	MACRO-80 3.44	09-Dec-81	PAGE	1-91


  2D8E    C8                                DB      48H+80H
  2D8F    4C 56 41                          DB      'LVA'               ;"LVAR"
  2D92    D2                                DB      52H+80H
  2D93    4C 4C 56 41                       DB      'LLVA'              ;"LLVAR"
  2D97    D2                                DB      52H+80H
  2D98    53 50 45 41           BC.SVC2:    DB      'SPEA'              ;"SPEAK"
  2D9C    CB                                DB      4BH+80H
  2D9D    A7                                DB      27H+80H             ;"'"
  2D9E    50 52 45 43                       DB      'PRECISIO'          ;"PRECISION"
  2DA2    49 53 49 4F           
  2DA6    CE                                DB      4EH+80H
  2DA7    43 41 4C                          DB      'CAL'               ;"CALL"
  2DAA    CC                                DB      4CH+80H
  2DAB    4B 49 4C                          DB      'KIL'               ;"KILL"
  2DAE    CC                                DB      4CH+80H
  2DAF    45 58 43 48                       DB      'EXCHANG'           ;"EXCHANGE"
  2DB3    41 4E 47              
  2DB6    C5                                DB      45H+80H
  2DB7    4C 49 4E                          DB      'LIN'               ;"LINE"
  2DBA    C5                                DB      45H+80H
  2DBB    4C 4F 41 44                       DB      'LOADG'             ;"LOADGO"
  2DBF    47                    
  2DC0    CF                                DB      4FH+80H
  2DC1    52 55                             DB      'RU'                ;"RUN"
  2DC3    CE                                DB      4EH+80H
  2DC4    4C 4F 41                          DB      'LOA'               ;"LOAD"
  2DC7    C4                                DB      44H+80H
  2DC8    4E 45                             DB      'NE'                ;"NEW"
  2DCA    D7                                DB      57H+80H
  2DCB    41 55 54                          DB      'AUT'               ;"AUTO"
  2DCE    CF                                DB      4FH+80H
  2DCF    43 4F 50                          DB      'COP'               ;"COPY"
  2DD2    D9                                DB      59H+80H
  2DD3    41 4C 4F 41                       DB      'ALOAD'             ;"ALOADC"
  2DD7    44                    
  2DD8    C3                                DB      43H+80H
  2DD9    41 4D 45 52                       DB      'AMERGE'            ;"AMERGEC"
  2DDD    47 45                 
  2DDF    C3                                DB      43H+80H
  2DE0    41 4C 4F 41                       DB      'ALOA'              ;"ALOAD"
  2DE4    C4                                DB      44H+80H
  2DE5    41 4D 45 52                       DB      'AMERG'             ;"AMERGE"
  2DE9    47                    
  2DEA    C5                                DB      45H+80H
  2DEB    41 53 41 56                       DB      'ASAV'              ;"ASAVE"
  2DEF    C5                                DB      45H+80H
  2DF0    4C 49 53                          DB      'LIS'               ;"LIST"
  2DF3    D4                                DB      54H+80H
  2DF4    4C 4C 49 53                       DB      'LLIS'              ;"LLIST"
  2DF8    D4                                DB      54H+80H
  2DF9    52 45 4E 55                       DB      'RENUMBE'           ;"RENUMBER"
  2DFD    4D 42 45              
  2E00    D2                                DB      52H+80H
  2E01    44 45 4C 45                       DB      'DELET'             ;"DELETE"
  2E05    54                    
  2E06    C5                                DB      45H+80H
  2E07    45 44 49                          DB      'EDI'               ;"EDIT"
  2E0A    D4                                DB      54H+80H
  2E0B    43 4F 4E                          DB      'CON'               ;"CONT"
  2E0E    D4                                DB      54H+80H
  2E0F    00                                NOP
  2E10    537C                  BC.D122:    DW      537CH
  2E12    4E 45 58 54           BC.D123:    DB      'NEXT W/O FO'       ;"NEXT W/O FOR"
  2E16    20 57 2F 4F           
  2E1A    20 46 4F              
  2E1D    D2                                DB      52H+80H
  2E1E    53 59 4E 54                       DB      'SYNTAX ERRO'       ;"SYNTAX ERROR"
  2E22    41 58 20 45           
  2E26    52 52 4F              
  2E29    D2                                DB      52H+80H
  2E2A    52 45 54 55                       DB      'RETURN W/O GOSU'   ;"RETURN W/O GOSUB"
  2E2E    52 4E 20 57           
  2E32    2F 4F 20 47           
  2E36    4F 53 55              
  2E39    C2                                DB      42H+80H
  2E3A    4F 55 54 20                       DB      'OUT OF DAT'        ;"OUT OF DATA"
  2E3E    4F 46 20 44           
  2E42    41 54                 
  2E44    C1                                DB      41H+80H
  2E45    49 4C 4C 45                       DB      'ILLEGAL FUNCTIO'   ;"ILLEGAL FUNCTION"
  2E49    47 41 4C 20           
  2E4D    46 55 4E 43           
  2E51    54 49 4F              
	MACRO-80 3.44	09-Dec-81	PAGE	1-92


  2E54    CE                                DB      4EH+80H
  2E55    41 52 49 54                       DB      'ARITHMETIC OVERFLO'
  2E59    48 4D 45 54           
  2E5D    49 43 20 4F           
  2E61    56 45 52 46           
  2E65    4C 4F                 
  2E67    D7                                DB      57H+80H
  2E68    4F 55 54 20                       DB      'OUT OF MEMOR'      ;"OUT OF MEMORY"
  2E6C    4F 46 20 4D           
  2E70    45 4D 4F 52           
  2E74    D9                                DB      59H+80H
  2E75    55 4E 44 45           BC.D124:    DB      'UNDEFINED STATEMENT'
  2E79    46 49 4E 45           
  2E7D    44 20 53 54           
  2E81    41 54 45 4D           
  2E85    45 4E 54              
  2E88    A0                                DB      20H+80H
  2E89    53 55 42 53           BC.D125:    DB      'SUBSCRIPT OUT OF RANG'
  2E8D    43 52 49 50           
  2E91    54 20 4F 55           
  2E95    54 20 4F 46           
  2E99    20 52 41 4E           
  2E9D    47                    
  2E9E    C5                                DB      45H+80H
  2E9F    52 45 2D 44                       DB      'RE-DIMENSIONED ARRA'
  2EA3    49 4D 45 4E           
  2EA7    53 49 4F 4E           
  2EAB    45 44 20 41           
  2EAF    52 52 41              
  2EB2    D9                                DB      59H+80H
  2EB3    43 41 4E                          DB      'CAN'
  2EB6    27                                DB      27H
  2EB7    54 20 2F                          DB      'T /'
  2EBA    B0                                DB      30H+80H
  2EBB    49 4C 4C 45                       DB      'ILLEGAL DIREC'
  2EBF    47 41 4C 20           
  2EC3    44 49 52 45           
  2EC7    43                    
  2EC8    D4                                DB      54H+80H
  2EC9    54 59 50 45                       DB      'TYPE MIS-MATC'
  2ECD    20 4D 49 53           
  2ED1    2D 4D 41 54           
  2ED5    43                    
  2ED6    C8                                DB      48H+80H
  2ED7    4E 4F 20 53                       DB      'NO STRING SPAC'
  2EDB    54 52 49 4E           
  2EDF    47 20 53 50           
  2EE3    41 43                 
  2EE5    C5                                DB      45H+80H
  2EE6    53 54 52 49                       DB      'STRING TOO LON'
  2EEA    4E 47 20 54           
  2EEE    4F 4F 20 4C           
  2EF2    4F 4E                 
  2EF4    C7                                DB      47H+80H
  2EF5    54 4F 4F 20                       DB      'TOO COMPLE'
  2EF9    43 4F 4D 50           
  2EFD    4C 45                 
  2EFF    D8                                DB      58H+80H
  2F00    43 41 4E                          DB      'CAN'
  2F03    27                                DB      27H
  2F04    54 20 43 4F                       DB      'T CONTINU'
  2F08    4E 54 49 4E           
  2F0C    55                    
  2F0D    C5                                DB      45H+80H
  2F0E    55 4E 44 45                       DB      'UNDEFINED USER CAL'
  2F12    46 49 4E 45           
  2F16    44 20 55 53           
  2F1A    45 52 20 43           
  2F1E    41 4C                 
  2F20    CC                                DB      4CH+80H
  2F21    46 49 4C 45                       DB      'FILE NOT FOUN'
  2F25    20 4E 4F 54           
  2F29    20 46 4F 55           
  2F2D    4E                    
  2F2E    C4                                DB      44H+80H
  2F2F    49 4C 4C 45                       DB      'ILLEGAL EO'
  2F33    47 41 4C 20           
  2F37    45 4F                 
  2F39    C6                                DB      46H+80H
  2F3A    46 49 4C 45                       DB      'FILES DIFFEREN'
  2F3E    53 20 44 49           
  2F42    46 46 45 52           
  2F46    45 4E                 
	MACRO-80 3.44	09-Dec-81	PAGE	1-93


  2F48    D4                                DB      54H+80H
  2F49    52 45 43 4F                       DB      'RECOVERE'
  2F4D    56 45 52 45           
  2F51    C4                                DB      44H+80H
  2F52    46 4E 52 45                       DB      'FNRETURN W/O FUNCTION CAL'
  2F56    54 55 52 4E           
  2F5A    20 57 2F 4F           
  2F5E    20 46 55 4E           
  2F62    43 54 49 4F           
  2F66    4E 20 43 41           
  2F6A    4C                    
  2F6B    CC                                DB      4CH+80H
  2F6C    4D 49 53 53                       DB      'MISSING STATEMENT NUMBE'
  2F70    49 4E 47 20           
  2F74    53 54 41 54           
  2F78    45 4D 45 4E           
  2F7C    54 20 4E 55           
  2F80    4D 42 45              
  2F83    D2                                DB      52H+80H
  2F84    2A 49 4E 56           BC.D126:    DB      '*INVALID INPUT'
  2F88    41 4C 49 44           
  2F8C    20 49 4E 50           
  2F90    55 54                 
  2F92    8A                                DB      0AH+80H
  2F93    20 20 20 4C           BC.D127:    DB      '   LINE'
  2F97    49 4E 45              
  2F9A    A0                                DB      20H+80H
  2F9B    0A                    BC.D128:    DB      0AH
  2F9C    52 45 41 44                       DB      'READY:'
  2FA0    59 3A                 
  2FA2    8A                                DB      0AH+80H
  2FA3    2A 45 58 54           BC.D129:    DB      '*EXTRA LOST'
  2FA7    52 41 20 4C           
  2FAB    4F 53 54              
  2FAE    8A                                DB      0AH+80H
  2FAF    0A                    BC.D130:    DB      0AH
  2FB0    2A 42 52 45                       DB      '*BREA'
  2FB4    41                    
  2FB5    CB                                DB      4BH+80H
  2FB6    00                                NOP
                                
                                            PAGE
	MACRO-80 3.44	09-Dec-81	PAGE	1-94


                                
                                ;****************************************************************
                                ;*               Initialisierungsteil                           *
                                ;****************************************************************
  2FB7                          BC.D131     EQU     $
  2FB7    CD 0CEE               BC.J117:    CALL    BC.C048
  2FBA    2A 2E10                           LD      HL,(BC.D122)
  2FBD    CD 24C9                           CALL    BC.C147
  2FC0    CD 0CEE                           CALL    BC.C048
  2FC3    21 30B5                           LD      HL,BC.D133
  2FC6    CD 07BD                           CALL    BC.C027
  2FC9                          BC.D132     EQU     $
  2FC9    AF                    BC.J118:    XOR     A
  2FCA    21 0100                           LD      HL,BC.D002
  2FCD    3F                                CCF
  2FCE    77                                LD      M,A
  2FCF    2C                                INC     L
  2FD0    20 FC                             JR      NZ,$-02
  2FD2    24                                INC     H
  2FD3    38 F8                             JR      C,$-06
  2FD5    2B                                DEC     HL
  2FD6    F9                                LD      SP,HL
  2FD7    22 015A                           LD      (BC.D022),HL
  2FDA    21 FFFF                           LD      HL,0FFFFH
  2FDD    22 0154                           LD      (BC.D019),HL
  2FE0    3E 2C                             LD      A,02CH
  2FE2    32 01B0                           LD      (BC.D062),A
  2FE5    3E C3                             LD      A,0C3H
  2FE7    32 0000                           LD      (00000H),A
  2FEA    32 018D                           LD      (BC.D039),A
  2FED    32 01A4                           LD      (BC.D053),A
  2FF0    21 2FC9                           LD      HL,BC.D132
  2FF3    22 01A5                           LD      (BC.D054),HL
  2FF6    FD 21 0190                        LD      IY,BC.D041
  2FFA    21 030F                           LD      HL,BC.CON
  2FFD    22 018E                           LD      (BC.D040),HL
  3000    3E 48                             LD      A,048H
  3002    32 0191                           LD      (BC.D042),A
  3005    32 0196                           LD      (BC.D045),A
  3008    3E 38                             LD      A,038H
  300A    32 0192                           LD      (BC.D043),A
  300D    32 0197                           LD      (BC.D046),A
  3010    21 0303               BC.RECOV1:  LD      HL,BC.RECOV
  3013    22 0001                           LD      (00001H),HL
  3016    21 0108                           LD      HL,BC.D008
  3019    22 0106                           LD      (BC.D007),HL
  301C    21 8000                           LD      HL,08000H
  301F    22 0187                           LD      (BC.D036),HL
  3022    22 0189                           LD      (BC.D037),HL
  3025    22 018B                           LD      (BC.D038),HL
  3028    21 30EF                           LD      HL,BC.D134
  302B    CD 07BD                           CALL    BC.C027
  302E    CD 06E2                           CALL    BC.C019
  3031    CD 0947                           CALL    BC.C031
  3034    FE 41                             CP      041H
  3036    28 8B                             JR      Z,$-115
  3038    2F                                CPL
  3039    FE AC                             CP      0ACH
  303B    CA 2FB7                           JP      Z,BC.J117
  303E    3C                                INC     A
  303F    20 07                             JR      NZ,$+09
  3041    CD 0321                           CALL    BC.MEMCK
  3044    60                                LD      H,B
  3045    6F                                LD      L,A
  3046    18 14                             JR      $+22                ;305C
                                ;            
  3048    21 01B1                           LD      HL,BC.D063
  304B    CD 0948                           CALL    BC.C032
  304E    CD 23DE                           CALL    BC.C141
  3051    7E                                LD      A,M
  3052    B7                                OR      A
  3053    C2 046D                           JP      NZ,BC.J004
  3056    CD 0A27                           CALL    BC.C042
  3059    EB                                EX      DE,HL
  305A    2B                                DEC     HL
  305B    2B                                DEC     HL
                                ;305C            
  305C    22 0104                           LD      (BC.D006),HL
  305F    22 0148                           LD      (BC.D012),HL
  3062    E5                                PUSH    HL
  3063    11 0300                           LD      DE,00300H
  3066    B7                                OR      A
	MACRO-80 3.44	09-Dec-81	PAGE	1-95


  3067    ED 52                             SBC     HL,DE
  3069    E1                                POP     HL
                                ;306A            
  306A    DA 044D                           JP      C,BC.J002
  306D    11 FF9C                           LD      DE,0FF9CH           ;???
  3070    19                                ADD     HL,DE
  3071    11 0300                           LD      DE,00300H
  3074    7C                                LD      A,H
  3075    92                                SUB     D
  3076    20 02                             JR      NZ,$+04             ;307A
  3078    7D                                LD      A,L
  3079    93                                SUB     E
                                ;307A            
  307A    11 2FB7                           LD      DE,BC.D131
  307D    30 03                             JR      NC,$+05             ;3082
  307F    11 0300                           LD      DE,00300H
                                ;3082            
  3082    7C                                LD      A,H
  3083    92                                SUB     D
  3084    20 02                             JR      NZ,$+04             ;3088
  3086    7D                                LD      A,L
  3087    93                                SUB     E
                                ;3088            
  3088    38 E0                             JR      C,$-30              ;306A
  308A    F9                                LD      SP,HL
  308B    22 015A                           LD      (BC.D022),HL
  308E    EB                                EX      DE,HL
  308F    22 015C                           LD      (BC.D023),HL
  3092    CD 043E                           CALL    BC.C005
  3095    B7                                OR      A
  3096    EB                                EX      DE,HL
  3097    ED 52                             SBC     HL,DE
  3099    01 FFF0                           LD      BC,0FFF0H
  309C    09                                ADD     HL,BC
  309D    CD 0CEE                           CALL    BC.C048
  30A0    CD 24C9                           CALL    BC.C147
  30A3    21 30FE                           LD      HL,BC.D135
  30A6    CD 07BD                           CALL    BC.C027
  30A9    21 07BD                           LD      HL,BC.D070
  30AC    22 01A5                           LD      (BC.D054),HL
  30AF    CD 05B4                           CALL    BC.C011
  30B2    C3 3210               BC.ANF:     JP      START               ;BC.J012
                                
                                            PAGE
	MACRO-80 3.44	09-Dec-81	PAGE	1-96


                                
  30B5    44 45 47 20           BC.D133:    DB      'DEG 2000  B  A  S  I  C   [K EAW  IfR/Fm]  '
  30B9    32 30 30 30           
  30BD    20 20 42 20           
  30C1    20 41 20 20           
  30C5    53 20 20 49           
  30C9    20 20 43 20           
  30CD    20 20 5B 4B           
  30D1    20 45 41 57           
  30D5    20 20 49 66           
  30D9    52 2F 46 6D           
  30DD    5D 20 20              
  30E0    53 74 61 6E                       DB      'Stand: 10.82  '
  30E4    64 3A 20 31           
  30E8    30 2E 38 32           
  30EC    20 20                 
  30EE    8A                                DB      0AH+80H
  30EF    0A                    BC.D134:    DB      0AH
  30F0    6D 61 78 2E                       DB      'max. Speicher'
  30F4    20 53 70 65           
  30F8    69 63 68 65           
  30FC    72                    
  30FD    A0                                DB      20H+80H
  30FE    20 42 79 74           BC.D135:    DB      ' Bytes frei            '
  3102    65 73 20 66           
  3106    72 65 69 20           
  310A    20 20 20 20           
  310E    20 20 20 20           
  3112    20 20 20              
  3115    0A                                DB      0AH
  3116    44 45 47 20                       DB      'DEG 2000  B A S I C         , Version 2.1'
  311A    32 30 30 30           
  311E    20 20 42 20           
  3122    41 20 53 20           
  3126    49 20 43 20           
  312A    20 20 20 20           
  312E    20 20 20 20           
  3132    2C 20 56 65           
  3136    72 73 69 6F           
  313A    6E 20 32 2E           
  313E    31                    
  313F    20 20 20 20                       DB      '                 '
  3143    20 20 20 20           
  3147    20 20 20 20           
  314B    20 20 20 20           
  314F    20                    
  3150    8A                                DB      0AH+80H
  3151                                      DS      0AFH,0
  3200    04                                DB      004H
  3201                                      DS      00FH,0FFH
                                ;
  3210    21 3220               START:      LD      HL,ST01
  3213    11 2FB7                           LD      DE,BC.D131
  3216    01 00C0                           LD      BC,000C0H
  3219    ED B0                             LDIR
  321B    C3 32E0                           JP      ST02
                                ;            
  321E                                      DS      2,0FFH
                                ;            
  3220    04 30 01 00           ST01:       DB      4,030H,1,0
  3224    4F 50 45 4E                       DB      'OPEN'
  3228    AD                                DB      '-'+080H
  3229    26 45 41 42                       DB      '&EAB6:CLOSE'
  322D    36 3A 43 4C           
  3231    4F 53 45              
  3234    AD                                DB      '-'+080H
  3235    26 45 42 42                       DB      '&EBB9:EIN'
  3239    39 3A 45 49           
  323D    4E                    
  323E    AD                                DB      '-'+080H
  323F    37 33 3A 41                       DB      '73:AUS'
  3243    55 53                 
  3245    AD                                DB      '-'+080H
  3246    37 39 3A 4C                       DB      '79:LESEN'
  324A    45 53 45 4E           
  324E    AD                                DB      '-'+080H
  324F    26 45 43 31                       DB      '&EC1F:SCHREIBEN'
  3253    46 3A 53 43           
  3257    48 52 45 49           
  325B    42 45 4E              
  325E    AD                                DB      '-'+080H
  325F    26 45 43 34                       DB      '&EC4D:BLD'
	MACRO-80 3.44	09-Dec-81	PAGE	1-97


  3263    44 3A 42 4C           
  3267    44                    
  3268    AD                                DB      '-'+080H
  3269    26 38 30 00                       DB      '&80',0
  326D    6A 30 0A 00                       DB      'j0',00AH,0,084H
  3271    84                    
  3272    22 51 75 65                       DB      '"Quell-/Ladedatei (Q/L)";A$:'
  3276    6C 6C 2D 2F           
  327A    4C 61 64 65           
  327E    64 61 74 65           
  3282    69 20 28 51           
  3286    2F 4C 29 22           
  328A    3B 41 24 3A           
  328E    8A                                DB      08AH
  328F    41 24 AE AC                       DB      'A$',0AEH,0ACH
  3293    22 51 22 AA                       DB      '"Q"',0AAH
  3297    41 24 AE AC                       DB      'A$',0AEH,0ACH
  329B    22 4C 22 A2                       DB      '"L"',0A2H
  329F    31 30 3A C9                       DB      '10:',0C9H,084H
  32A3    84                    
  32A4    22 47 65 72                       DB      '"Geraet,Label";G,L:',0D7H
  32A8    61 65 74 2C           
  32AC    4C 61 62 65           
  32B0    6C 22 3B 47           
  32B4    2C 4C 3A D7           
  32B8    4F 50 45 4E                       DB      'OPEN,G,EIN,L:',08AH
  32BC    2C 47 2C 45           
  32C0    49 4E 2C 4C           
  32C4    3A 8A                 
  32C6    41 24 AD                          DB      'A$',0ADH
  32C9    22 51 22 A2                       DB      '"Q"',0A2H,0E1H,':',0C9H
  32CD    E1 3A C9              
  32D0    DD 41 00 00                       DB      0DDH,041H,0,0,0,0
  32D4    00 00                 
  32D6                                      DS      00AH,0FFH
                                ;
  32E0    21 306B               ST02:       LD      HL,0306BH
  32E3    22 0150                           LD      (00150H),HL
  32E6    23                                INC     HL
  32E7    22 015E                           LD      (0015EH),HL
  32EA    22 0160                           LD      (00160H),HL
  32ED    22 0162                           LD      (00162H),HL
  32F0    21 332E                           LD      HL,GRANA
  32F3    CD 07BD                           CALL    007BDH
  32F6    CD 0309                           CALL    00309H
  32F9    4F                                LD      C,A
  32FA    FE 4A                             CP      'J'
  32FC    28 08                             JR      Z,ST04
  32FE    0E 4E                 ST03:       LD      C,'N'
  3300    CD 030F                           CALL    0030FH
  3303    C3 04A0                           JP      BC.J012
                                ;
  3306    3A 010D               ST04:       LD      A,(0010DH)
  3309    FE 9C                             CP      09CH
  330B    30 F1                             JR      NC,ST03
  330D    CD 030F                           CALL    0030FH
  3310    3E 81                             LD      A,081H
  3312    D3 C1                             OUT     (0C1H),A            ;!!! ???
  3314    3E B3                             LD      A,0B3H
  3316    D3 C0                             OUT     (0C0H),A            ;!!! ???
  3318    21 7400                           LD      HL,07400H
  331B    11 9C00                           LD      DE,09C00H
  331E    01 0400                           LD      BC,00400H
  3321    ED B0                             LDIR
  3323    3E B7                             LD      A,0B7H
  3325    D3 C0                             OUT     (0C0H),A
  3327    3E 85                             LD      A,085H
  3329    D3 C1                             OUT     (0C1H),A
  332B    C3 04A0                           JP      BC.J012
                                ;
  332E    0A 47 72 61           GRANA:      DB      00AH,'Grafik nachladen ?',0A0H
  3332    66 69 6B 20           
  3336    6E 61 63 68           
  333A    6C 61 64 65           
  333E    6E 20 3F A0           
                                            
                                
  3342                                      DS      0BEH,0FFH
                                
                                            .DEPHASE
                                
                                            END
	MACRO-80 3.44	09-Dec-81	PAGE	S


Macros:

Symbols:
22CE 	BC.ABS          01A4 	BC.AKJPB        1CF2 	BC.ALOAD        
1D6B 	BC.ALODC        1CF5 	BC.AMRG         1D6E 	BC.AMRGC        
30B2 	BC.ANF          1841 	BC.ASAVE        15A8 	BC.ASC          
2BEA 	BC.ATN          0D24 	BC.AUTO         03F6 	BC.C001         
0419 	BC.C002         041F 	BC.C003         0431 	BC.C004         
043E 	BC.C005         0451 	BC.C006         055F 	BC.C007         
0573 	BC.C008         0592 	BC.C009         0595 	BC.C010         
05B4 	BC.C011         05C2 	BC.C012         05C6 	BC.C013         
05DB 	BC.C014         05F8 	BC.C015         05FC 	BC.C016         
0609 	BC.C017         06DD 	BC.C018         06E2 	BC.C019         
06F3 	BC.C020         06F6 	BC.C021         0707 	BC.C022         
0764 	BC.C023         0766 	BC.C024         0770 	BC.C025         
0772 	BC.C026         07BD 	BC.C027         07C9 	BC.C028         
082A 	BC.C029         0837 	BC.C030         0947 	BC.C031         
0948 	BC.C032         097B 	BC.C033         0985 	BC.C034         
0986 	BC.C035         0993 	BC.C036         0998 	BC.C037         
0A14 	BC.C038         0A1C 	BC.C039         0A21 	BC.C040         
0A24 	BC.C041         0A27 	BC.C042         0A2D 	BC.C043         
0A3A 	BC.C044         0A49 	BC.C045         0B33 	BC.C046         
0CDB 	BC.C047         0CEE 	BC.C048         0CFB 	BC.C049         
0D0E 	BC.C050         0E3E 	BC.C051         0E85 	BC.C052         
0E88 	BC.C053         0E8A 	BC.C054         0E95 	BC.C055         
0E9A 	BC.C056         0E9D 	BC.C057         0F14 	BC.C058         
0F48 	BC.C059         106A 	BC.C060         1217 	BC.C061         
1218 	BC.C062         121D 	BC.C063         1232 	BC.C064         
139C 	BC.C065         13AA 	BC.C066         13CA 	BC.C067         
13DE 	BC.C068         13E1 	BC.C069         13ED 	BC.C070         
13EE 	BC.C071         13F0 	BC.C072         13F1 	BC.C073         
1410 	BC.C074         1431 	BC.C075         1434 	BC.C076         
1449 	BC.C077         1473 	BC.C078         14D2 	BC.C079         
1549 	BC.C080         1559 	BC.C081         1560 	BC.C082         
1563 	BC.C083         1566 	BC.C084         1567 	BC.C085         
1583 	BC.C086         159D 	BC.C087         16FF 	BC.C088         
170A 	BC.C089         1718 	BC.C090         171B 	BC.C091         
171E 	BC.C092         177E 	BC.C093         17AB 	BC.C094         
17B6 	BC.C095         1895 	BC.C096         189F 	BC.C097         
18A6 	BC.C098         1A9A 	BC.C099         1A9D 	BC.C100         
1BA4 	BC.C101         1BFA 	BC.C102         1C75 	BC.C103         
1D64 	BC.C104         1F80 	BC.C105         1F83 	BC.C106         
1F88 	BC.C107         1F91 	BC.C108         1F94 	BC.C109         
1FF0 	BC.C110         1FF3 	BC.C111         200E 	BC.C112         
2045 	BC.C113         205A 	BC.C114         2072 	BC.C115         
208F 	BC.C116         20AC 	BC.C117         213F 	BC.C118         
21AF 	BC.C119         21C3 	BC.C120         2263 	BC.C121         
228E 	BC.C122         22A6 	BC.C123         22AB 	BC.C124         
22BF 	BC.C125         22D2 	BC.C126         22DA 	BC.C127         
22DB 	BC.C128         22EC 	BC.C129         22F5 	BC.C130         
2302 	BC.C131         2305 	BC.C132         2316 	BC.C133         
2319 	BC.C134         2321 	BC.C135         2336 	BC.C136         
2350 	BC.C137         236C 	BC.C138         2375 	BC.C139         
23C6 	BC.C140         23DE 	BC.C141         24A1 	BC.C142         
24AE 	BC.C143         24AF 	BC.C144         24B6 	BC.C145         
24C1 	BC.C146         24C9 	BC.C147         24DD 	BC.C148         
24DE 	BC.C149         2591 	BC.C150         2683 	BC.C151         
271F 	BC.C152         2748 	BC.C153         275A 	BC.C154         
275D 	BC.C155         276D 	BC.C156         27F9 	BC.C157         
2801 	BC.C158         2815 	BC.C159         281B 	BC.C160         
29F1 	BC.C161         29F9 	BC.C162         2A03 	BC.C163         
2ADB 	BC.C164         2AEA 	BC.C165         1F26 	BC.CALL         
1F40 	BC.CALL1        1F4B 	BC.CALL2        15B6 	BC.CHRD         
0309 	BC.CIN          0A72 	BC.CLEAR        030F 	BC.CON          
09E7 	BC.CONT         1DF2 	BC.COPY         2B4A 	BC.COS          
0318 	BC.CSTSX        00FF 	BC.D001         0100 	BC.D002         
0101 	BC.D003         0102 	BC.D004         0103 	BC.D005         
0104 	BC.D006         0106 	BC.D007         0108 	BC.D008         
011E 	BC.D009         0144 	BC.D010         0146 	BC.D011         
0148 	BC.D012         014A 	BC.D013         014C 	BC.D014         
014E 	BC.D015         014F 	BC.D016         0150 	BC.D017         
0152 	BC.D018         0154 	BC.D019         0156 	BC.D020         
0158 	BC.D021         015A 	BC.D022         015C 	BC.D023         
015E 	BC.D024         0160 	BC.D025         0162 	BC.D026         
0164 	BC.D027         0165 	BC.D028         0166 	BC.D029         
0168 	BC.D030         016A 	BC.D031         016B 	BC.D032         
016C 	BC.D033         016D 	BC.D034         016E 	BC.D035         
0187 	BC.D036         0189 	BC.D037         018B 	BC.D038         
018D 	BC.D039         018E 	BC.D040         0190 	BC.D041         
0191 	BC.D042         0192 	BC.D043         0195 	BC.D044         
0196 	BC.D045         0197 	BC.D046         019A 	BC.D047         
019C 	BC.D048         019E 	BC.D049         019F 	BC.D050         
	MACRO-80 3.44	09-Dec-81	PAGE	S-1


01A1 	BC.D051         01A3 	BC.D052         01A4 	BC.D053         
01A5 	BC.D054         01A7 	BC.D055         01A8 	BC.D056         
01AA 	BC.D057         01AB 	BC.D058         01AC 	BC.D059         
01AE 	BC.D060         01AF 	BC.D061         01B0 	BC.D062         
01B1 	BC.D063         02B0 	BC.D064         02F8 	BC.D065         
02FF 	BC.D066         04F3 	BC.D067         0556 	BC.D068         
05FC 	BC.D069         07BD 	BC.D070         07F4 	BC.D071         
08CC 	BC.D072         08FF 	BC.D073         0A1E 	BC.D074         
0B1E 	BC.D075         0D93 	BC.D076         0DF8 	BC.D077         
0E3A 	BC.D078         0EA9 	BC.D079         0EAC 	BC.D080         
0F62 	BC.D081         0F6A 	BC.D082         0FDA 	BC.D083         
0FF4 	BC.D084         103B 	BC.D085         105C 	BC.D086         
121D 	BC.D087         121E 	BC.D088         1232 	BC.D089         
144B 	BC.D090         1483 	BC.D091         14C4 	BC.D092         
15C2 	BC.D093         161E 	BC.D094         177F 	BC.D095         
1998 	BC.D096         1B2D 	BC.D097         1B71 	BC.D098         
1BC9 	BC.D099         1BFA 	BC.D100         1F57 	BC.D101         
1F88 	BC.D102         1FF3 	BC.D103         20C0 	BC.D104         
20C6 	BC.D105         213B 	BC.D106         2168 	BC.D107         
22D2 	BC.D108         23AD 	BC.D109         23CB 	BC.D110         
253C 	BC.D111         27C2 	BC.D112         295C 	BC.D113         
2A08 	BC.D114         2A9E 	BC.D115         2B4A 	BC.D116         
2B9C 	BC.D117         2BA2 	BC.D118         2BA8 	BC.D119         
2C14 	BC.D120         2C63 	BC.D121         2E10 	BC.D122         
2E12 	BC.D123         2E75 	BC.D124         2E89 	BC.D125         
2F84 	BC.D126         2F93 	BC.D127         2F9B 	BC.D128         
2FA3 	BC.D129         2FAF 	BC.D130         2FB7 	BC.D131         
2FC9 	BC.D132         30B5 	BC.D133         30EF 	BC.D134         
30FE 	BC.D135         0B0B 	BC.DATA         1236 	BC.DEF          
1AA3 	BC.DELET        1065 	BC.DIM          1B9C 	BC.EDA          
1BE6 	BC.EDD          1C59 	BC.EDDEL        1C65 	BC.EDE1         
1C68 	BC.EDE2         1BB5 	BC.EDF          1C0E 	BC.EDH          
1C16 	BC.EDI          1AFE 	BC.EDIT         1BAF 	BC.EDK          
1BDC 	BC.EDL          09C7 	BC.EDQ          1BFF 	BC.EDR          
1C11 	BC.EDX          09C3 	BC.END          1EB6 	BC.EXCH         
2A64 	BC.EXP          131D 	BC.FNEND        131D 	BC.FNRTN        
086A 	BC.FOR          11F6 	BC.FRE          0AA8 	BC.GOSUB        
0AC5 	BC.GOTO         03A6 	BC.GRF1         2CC0 	BC.GRF2         
0C23 	BC.IF           0300 	BC.INIT         16D4 	BC.INP          
0D55 	BC.INPUT        162E 	BC.INSTR        23AD 	BC.INT          
031B 	BC.IOCHX        031E 	BC.IOSTX        0117 	BC.J001         
044D 	BC.J002         0457 	BC.J003         046D 	BC.J004         
0470 	BC.J005         0473 	BC.J006         0476 	BC.J007         
0479 	BC.J008         047C 	BC.J009         047E 	BC.J010         
0494 	BC.J011         04A0 	BC.J012         04A9 	BC.J013         
04C3 	BC.J014         04F1 	BC.J015         04F9 	BC.J016         
0556 	BC.J017         05F4 	BC.J018         0612 	BC.J019         
06AD 	BC.J020         083B 	BC.J021         083C 	BC.J022         
08C8 	BC.J023         08CC 	BC.J024         0914 	BC.J025         
091B 	BC.J026         091C 	BC.J027         0980 	BC.J028         
098E 	BC.J029         098F 	BC.J030         0990 	BC.J031         
09C8 	BC.J032         0A44 	BC.J033         0ADA 	BC.J034         
0AE1 	BC.J035         0B2B 	BC.J036         0B4D 	BC.J037         
0B8B 	BC.J038         0CE1 	BC.J039         0CE9 	BC.J040         
0DCD 	BC.J041         0E90 	BC.J042         0EA9 	BC.J043         
0EF7 	BC.J044         0FE2 	BC.J045         1045 	BC.J046         
106F 	BC.J047         113C 	BC.J048         116B 	BC.J049         
121E 	BC.J050         1260 	BC.J051         126C 	BC.J052         
13A5 	BC.J053         140C 	BC.J054         1430 	BC.J055         
1476 	BC.J056         1512 	BC.J057         16D1 	BC.J058         
17F7 	BC.J059         1807 	BC.J060         1937 	BC.J061         
195E 	BC.J062         197A 	BC.J063         1A68 	BC.J064         
1B03 	BC.J065         1B15 	BC.J066         1D2D 	BC.J067         
1DD5 	BC.J068         1F01 	BC.J069         1F19 	BC.J070         
1FD6 	BC.J071         200F 	BC.J072         2013 	BC.J073         
2034 	BC.J074         2055 	BC.J075         21AD 	BC.J076         
21BF 	BC.J077         225E 	BC.J078         2280 	BC.J079         
2286 	BC.J080         22C8 	BC.J081         22CA 	BC.J082         
239B 	BC.J083         23E3 	BC.J084         2439 	BC.J085         
2471 	BC.J086         24FA 	BC.J087         2555 	BC.J088         
2574 	BC.J089         259D 	BC.J090         25AA 	BC.J091         
25B2 	BC.J092         25D3 	BC.J093         2600 	BC.J094         
268E 	BC.J095         26AA 	BC.J096         26CE 	BC.J097         
26D7 	BC.J098         26ED 	BC.J099         26FB 	BC.J100         
2725 	BC.J101         273D 	BC.J102         2745 	BC.J103         
2821 	BC.J104         285E 	BC.J105         2871 	BC.J106         
2877 	BC.J107         28BE 	BC.J108         28D6 	BC.J109         
2941 	BC.J110         296D 	BC.J111         2981 	BC.J112         
2A44 	BC.J113         2A97 	BC.J114         2B35 	BC.J115         
2B88 	BC.J116         2FB7 	BC.J117         2FC9 	BC.J118         
1EF9 	BC.KILL         15C6 	BC.LEFTD        1599 	BC.LEN          
0B27 	BC.LET          15CD 	BC.LFTD         0D4F 	BC.LINE         
07EF 	BC.LIST         0315 	BC.LISTX        07EC 	BC.LLIST        
	MACRO-80 3.44	09-Dec-81	PAGE	S-2


1C9B 	BC.LLVAR        09F9 	BC.LNULL        17FE 	BC.LOAD         
1DB0 	BC.LOADG        20EB 	BC.LOG          122A 	BC.LPOS         
0C59 	BC.LPRNT        1AD8 	BC.LTRCE        1C9E 	BC.LVAR         
1762 	BC.LWDTH        0321 	BC.MEMCK        15FF 	BC.MIDD         
05B3 	BC.NEW          0E3B 	BC.NEXT         09FC 	BC.NULL         
0C06 	BC.ON           16DD 	BC.OUT          0327 	BC.PAR          
1F6A 	BC.PEEK         1F71 	BC.POKE         122F 	BC.POS          
1F59 	BC.PREC         0C5C 	BC.PRINT        1C84 	BC.RANDO        
0DA6 	BC.READ         0303 	BC.RECOV        3010 	BC.RECOV1       
18B3 	BC.RENB         096A 	BC.REST         0AE6 	BC.RETRN        
15F6 	BC.RGHTD        030C 	BC.RIV          2B0E 	BC.RND          
032A 	BC.RUCK         0A9D 	BC.RUN          17C5 	BC.SAVE         
22A3 	BC.SGN          2B50 	BC.SIN          2A0E 	BC.SQR          
09C1 	BC.STOP         13BA 	BC.STRD         03C6 	BC.SVC1         
2D98 	BC.SVC2         1746 	BC.SWTCH        2BD3 	BC.TAN          
032D 	BC.TB1          0361 	BC.TB2          0376 	BC.TB3          
03B0 	BC.TB4          1ADB 	BC.TRACE        0324 	BC.TRAPX        
0306 	BC.USR          172B 	BC.VAL          16E3 	BC.WAIT         
1765 	BC.WIDTH        0312 	BC.WRTV         332E 	GRANA           
3220 	ST01            32E0 	ST02            32FE 	ST03            
3306 	ST04            3210 	START           



No Fatal error(s)


